FoodCode	ModCode	Main.food.description	Old.Main.food.description	FoodID
11111000	0	Milk_whole	Milk, whole	11111000.0
11111100	0	Whole_milk_low_sodium	Whole milk, low sodium	11111100.0
11111150	0	Milk_whole_calcium_fortified	Milk, whole, calcium fortified	11111150.0
11111160	0	Milk_low_fat_1_calcium_fortified	Milk, low fat (1%), calcium fortified	11111160.0
11111170	0	Fat_free_milk_calcium_fortified	Fat free milk, calcium fortified	11111170.0
11112110	0	Milk_reduced_fat_2_	Milk, reduced fat (2%)	11112110.0
11112120	0	1_acidophilus_milk	1% acidophilus milk	11112120.0
11112130	0	Milk_reduced_fat_2_acidophilus	Milk, reduced fat (2%), acidophilus	11112130.0
11112210	0	1_milk	1% milk	11112210.0
11113000	0	Milk_fat_free_skim_	Milk, fat free (skim)	11113000.0
11114300	0	Low_fat_milk_lactose_free_Lactaid_	Low fat milk, lactose-free (Lactaid)	11114300.0
11114310	0	Milk_low_fat_1_lactose_free_calcium_fortified	Milk, low fat (1%), lactose-free, calcium fortified	11114310.0
11114320	0	Lactaid_milk_fat_free_skim_	Lactaid milk, fat free (skim)	11114320.0
11114321	0	Skim_milk_lactose_free_calcium_fortified	Skim milk, lactose-free, calcium fortified	11114321.0
11114330	0	2_milk_lactose_free_Lactaid_	2% milk, lactose-free (Lactaid)	11114330.0
11114350	0	Milk_whole_lactose_free	Milk, whole, lactose-free	11114350.0
11115000	0	Kefir_milk	Kefir milk	11115000.0
11115100	0	Buttermilk_low_fat_1_	Buttermilk, low fat (1%)	11115100.0
11115200	0	2_buttermilk	2% buttermilk	11115200.0
11115300	0	Buttermilk_whole	Buttermilk, whole	11115300.0
11116000	0	Milk_goat_s	Milk, goat's	11116000.0
11121100	0	Milk_dry_whole_reconstituted	Milk, dry, whole, reconstituted	11121100.0
11121210	0	Powdered_milk_low_fat_reconstituted	Powdered milk,  low fat, reconstituted	11121210.0
11121300	0	Milk_dry_fat_free_reconstituted	Milk, dry, fat free, reconstituted	11121300.0
11122000	0	Buttermilk_dry_reconstituted	Buttermilk, dry, reconstituted	11122000.0
11211050	0	Evaporated_milk_whole	Evaporated milk, whole	11211050.0
11211400	0	Evaporated_milk_reduced_fat_2_	Evaporated milk, reduced fat (2%)	11211400.0
11212050	0	Evaporated_milk_fat_free_skim_	Evaporated milk, fat free (skim)	11212050.0
11220000	0	Sweetened_condensed_milk	Sweetened condensed milk	11220000.0
11320000	0	Soymilk_soy_beverage_	Soymilk (soy beverage)	11320000.0
11320100	0	Milk_soy_soy_beverage_light	Milk, soy (soy beverage), light	11320100.0
11320200	0	Soymilk_soy_beverage_fat_free_nonfat_	Soymilk (soy beverage), fat free (nonfat)	11320200.0
11321000	0	Milk_soy_soy_beverage_chocolate	Milk, soy (soy beverage), chocolate	11321000.0
11321100	0	Light_chocolate_soymilk	Light chocolate soymilk	11321100.0
11321200	0	Milk_soy_soy_beverage_fat_free_nonfat_chocolate	Milk, soy (soy beverage), fat free (nonfat), chocolate	11321200.0
11350000	0	Almond_milk	Almond milk	11350000.0
11350010	0	Almond_milk_chocolate	Almond milk, chocolate	11350010.0
11411100	0	Yogurt_plain_whole_milk	Yogurt, plain, whole milk	11411100.0
11411200	0	Yogurt_plain_low_fat	Yogurt, plain, low fat	11411200.0
11411300	0	Yogurt_plain_fat_free	Yogurt, plain, fat free	11411300.0
11421000	0	Yogurt_lemon_whole_milk	Yogurt, lemon, whole milk	11421000.0
11422000	0	Yogurt_coffee_lowfat	Yogurt, coffee, lowfat	11422000.0
11422100	0	Yogurt_coffee_lowfat_low_calorie_sweetener	Yogurt, coffee, lowfat, low calorie sweetener	11422100.0
11423000	0	Yogurt_vanilla_fat_free	Yogurt, vanilla, fat free	11423000.0
11424000	0	Yogurt_lemon_light_fat_free_low_calorie_sweetener_	Yogurt, lemon, light (fat free, low calorie sweetener)	11424000.0
11426000	0	Yogurt_chocolate_whole_milk	Yogurt, chocolate, whole milk	11426000.0
11427000	0	Yogurt_chocolate_fat_free	Yogurt, chocolate, fat free	11427000.0
11431000	0	Yogurt_blueberry_whole_milk	Yogurt, blueberry, whole milk	11431000.0
11432000	0	Yogurt_raspberry_lowfat	Yogurt, raspberry, lowfat	11432000.0
11432500	0	Yogurt_blueberry_lowfat_low_calorie_sweetener	Yogurt, blueberry, lowfat, low calorie sweetener	11432500.0
11433000	0	Yogurt_raspberry_fat_free	Yogurt, raspberry, fat free	11433000.0
11433500	0	Yogurt_blueberry_light_fat_free_low_calorie_sweetener_	Yogurt, blueberry, light (fat free, low calorie sweetener)	11433500.0
11445000	0	Yogurt_fruit_and_nuts_low_fat	Yogurt, fruit and nuts, low fat	11445000.0
11446000	0	Fruit_and_low_fat_yogurt_parfait	Fruit and low fat yogurt parfait	11446000.0
11447771	0	Greek_yogurt_plain_fat_free	Greek yogurt, plain, fat free	11447771.0
11447772	0	Greek_yogurt_fruit_fat_free	Greek yogurt, fruit, fat free	11447772.0
11460160	0	Frozen_yogurt_chocolate_low_fat	Frozen yogurt, chocolate, low fat	11460160.0
11460170	0	Frozen_yogurt_other_flavors_low_fat	Frozen yogurt, other flavors, low fat	11460170.0
11460200	0	Frozen_yogurt_chocolate_nonfat	Frozen yogurt, chocolate, nonfat	11460200.0
11460250	0	Frozen_yogurt_other_flavors_with_sorbet	Frozen yogurt, other flavors, with sorbet	11460250.0
11460300	0	Frozen_yogurt_vanilla_nonfat	Frozen yogurt, vanilla, nonfat	11460300.0
11460400	0	Frozen_yogurt_chocolate_nonfat_low_calorie_sweetener	Frozen yogurt, chocolate, nonfat, low-calorie sweetener	11460400.0
11460410	0	Frozen_yogurt_other_flavors_nonfat_low_calorie_sweetener	Frozen yogurt, other flavors, nonfat, low-calorie sweetener	11460410.0
11460430	0	Frozen_yogurt_chocolate_whole_milk	Frozen yogurt, chocolate, whole milk	11460430.0
11460440	0	Frozen_yogurt_other_flavors_whole_milk	Frozen yogurt, other flavors, whole milk	11460440.0
11461000	0	Frozen_yogurt_chocolate_coated	Frozen yogurt, chocolate-coated	11461000.0
11461100	0	Frozen_yogurt_carob_coated	Frozen yogurt, carob-coated	11461100.0
11461200	0	Frozen_yogurt_sandwich	Frozen yogurt, sandwich	11461200.0
11461250	0	Frozen_yogurt_cone_chocolate	Frozen yogurt, cone, chocolate	11461250.0
11461260	0	Frozen_yogurt_cone_other_flavors	Frozen yogurt, cone, other flavors	11461260.0
11461270	0	Frozen_yogurt_cone_vanilla_low_fat	Frozen yogurt, cone, vanilla, low fat	11461270.0
11461280	0	Frozen_yogurt_cone_chocolate_low_fat	Frozen yogurt, cone, chocolate, low fat	11461280.0
11511100	0	Chocolate_milk_whole	Chocolate milk, whole	11511100.0
11511200	0	Milk_chocolate_flavored_reduced_fat_2_	Milk, chocolate flavored, reduced fat (2%)	11511200.0
11511300	0	Chocolate_milk_fat_free_skim_	Chocolate milk, fat free (skim)	11511300.0
11511400	0	Milk_chocolate_flavored_low_fat_1_	Milk, chocolate flavored, low fat (1%)	11511400.0
11512000	0	Hot_chocolate_homemade_with_whole_milk	Hot chocolate, homemade, with whole milk	11512000.0
11512500	0	Hot_chocolate_Puerto_Rican_style_with_whole_milk	Hot chocolate, Puerto Rican style, with whole milk	11512500.0
11512500	206723	Hot_chocolate_Puerto_Rican_style_with_reduced_fat_2_milk	Hot chocolate, Puerto Rican style, with reduced fat (2%) milk	11512500.206723
11512500	206744	Hot_chocolate_Puerto_Rican_style_with_low_fat_1_milk	Hot chocolate, Puerto Rican style, with low fat (1%) milk	11512500.206744
11513100	0	Hot_chocolate_Hershey_s_Nestle_s_Quick_made_from_mix_with_whole_milk	Hot chocolate, (Hershey's), (Nestle's Quick), made from mix, with whole milk	11513100.0
11513150	0	Hot_cocoa_Hershey_s_Nestle_s_Quick_made_from_mix_with_reduced_fat_2_milk	Hot cocoa, (Hershey's), (Nestle's Quick), made from mix, with reduced fat (2%) milk	11513150.0
11513200	0	Hot_chocolate_Hershey_s_Nestle_s_Quick_made_from_mix_with_low_fat_1_milk	Hot chocolate, (Hershey's), (Nestle's Quick), made from mix, with low fat (1%) milk	11513200.0
11513300	0	Hot_cocoa_Hershey_s_Nestle_s_Quick_made_from_mix_with_fat_free_skim_milk	Hot cocoa, (Hershey's), (Nestle's Quick), made from mix, with fat free (skim) milk	11513300.0
11513355	0	Hot_cocoa_Hershey_s_Nestle_s_Quick_reduced_sugar_with_whole_milk	Hot cocoa, (Hershey's), (Nestle's Quick), reduced sugar, with whole milk	11513355.0
11513360	0	Hot_cocoa_Hershey_s_Nestle_s_Quick_reduced_sugar_with_reduced_fat_2_milk	Hot cocoa, (Hershey's), (Nestle's Quick), reduced sugar, with reduced fat (2%) milk	11513360.0
11513365	0	Hot_cocoa_Hershey_s_Nestle_s_Quick_reduced_sugar_with_low_fat_1_milk	Hot cocoa, (Hershey's), (Nestle's Quick), reduced sugar, with low fat (1%) milk	11513365.0
11513370	0	Hot_cocoa_Hershey_s_Nestle_s_Quick_reduced_sugar_with_fat_free_skim_milk	Hot cocoa, (Hershey's), (Nestle's Quick), reduced sugar, with fat free (skim) milk	11513370.0
11513500	0	Chocolate_milk_homemade_with_whole_milk	Chocolate milk, homemade, with whole milk	11513500.0
11513550	0	Milk_reduced_fat_2_with_chocolate_syrup	Milk, reduced fat (2%), with chocolate syrup	11513550.0
11513600	0	Chocolate_milk_homemade_with_low_fat_1_milk	Chocolate milk, homemade, with low fat (1%) milk	11513600.0
11513700	0	Milk_fat_free_skim_with_chocolate_syrup	Milk, fat free (skim), with chocolate syrup	11513700.0
11514100	0	Hot_chocolate_Swiss_Miss_Carnation_made_from_dry_mix_with_milk_sugar_with_water	Hot chocolate, (Swiss Miss), (Carnation), made from dry mix (with milk & sugar), with water	11514100.0
11514300	0	Hot_cocoa_Carnation_Swiss_Miss_Nutrisystem_made_from_mix_with_milk_low_calorie_sweetener_with_water	Hot cocoa, (Carnation), (Swiss Miss), (Nutrisystem), made from mix (with milk & low calorie sweetener), with water	11514300.0
11514500	0	Ovaltine_sugar_free_Hot_Cocoa	Ovaltine sugar free Hot Cocoa	11514500.0
11515400	0	Alba_High_Calcium_Cocoa	Alba High Calcium Cocoa	11515400.0
11516000	0	Chocolate_Milk_Nestle_s_Quik_Swiss_Miss_with_1_fat_milk	Chocolate Milk, (Nestle's Quik), (Swiss Miss), with 1% fat milk	11516000.0
11518000	0	Chocolate_beverage_Jenny_Craig_Alba_from_dry_mix_with_milk_and_low_calorie_sweetener_water_added	Chocolate beverage, (Jenny Craig), (Alba), from dry mix with milk and low calorie sweetener, water added	11518000.0
11519050	0	Milk_whole_with_strawberry_or_vanilla_flavor	Milk, whole, with strawberry or vanilla flavor	11519050.0
11519105	0	Strawberry_milk_reduced_fat_2_	Strawberry milk, reduced fat (2%)	11519105.0
11519200	0	Milk_low_fat_1_with_strawberry_or_vanilla_flavor	Milk, low fat (1%) with strawberry or vanilla flavor	11519200.0
11519205	0	Strawberry_milk_fat_free_skim_	Strawberry milk, fat free (skim)	11519205.0
11521000	0	Malted_milk_chocolate_with_2_milk	Malted milk, chocolate, with 2% milk	11521000.0
11522000	0	Malted_milk_natural_flavor_with_2_milk	Malted milk, natural flavor, with 2% milk	11522000.0
11522000	205085	Malted_milk_natural_flavor_with_whole_milk	Malted milk, natural flavor, with whole milk	11522000.205085
11525000	206681	Malted_milk_fortified_natural_flavor_with_whole_milk	Malted milk, fortified, natural flavor, with whole milk	11525000.206681
11525000	206746	Ovaltine_natural_flavor_with_2_milk	Ovaltine, natural flavor, with 2% milk	11525000.206746
11525000	206771	Malted_milk_fortified_natural_flavor_with_skim_milk	Malted milk, fortified, natural flavor, with skim milk	11525000.206771
11526000	201243	Ovaltine_chocolate_with_skim_milk	Ovaltine, chocolate, with skim milk	11526000.201243
11526000	201914	Malted_milk_fortified_chocolate_with_whole_milk	Malted milk, fortified, chocolate, with whole milk	11526000.201914
11526000	202280	Ovaltine_chocolate_with_2_milk	Ovaltine, chocolate, with 2% milk	11526000.202280
11526000	202663	Malted_milk_fortified_chocolate_with_1_milk	Malted milk, fortified, chocolate, with 1% milk	11526000.202663
11531000	0	Eggnog_with_whole_milk	Eggnog, with whole milk	11531000.0
11531500	0	Eggnog_with_2_milk	Eggnog, with 2% milk	11531500.0
11541110	0	Milk_shake_homemade_chocolate_with_whole_milk	Milk shake, homemade, chocolate, with whole milk	11541110.0
11541110	100566	Milk_shake_fountain_type_chocolate_with_2_milk	Milk shake,  fountain-type, chocolate, with 2% milk	11541110.100566
11541110	205157	Milk_shake_homemade_chocolate_with_low_fat_milk	Milk shake, homemade, chocolate, with low fat milk	11541110.205157
11541120	0	Milk_shake_fountain_type_vanilla_or_strawberry_with_whole_milk	Milk shake,  fountain-type, vanilla or strawberry, with whole milk	11541120.0
11541120	101293	Milk_shake_homemade_vanilla_or_strawberry_with_2_milk	Milk shake, homemade, vanilla or strawberry, with 2% milk	11541120.101293
11541120	201586	Milk_shake_fountain_type_vanilla_or_strawberry_with_low_fat_milk	Milk shake,  fountain-type, vanilla or strawberry, with low fat milk	11541120.201586
11541120	202978	Milk_shake_homemade_vanilla_or_strawberry_with_fat_free_milk	Milk shake, homemade, vanilla or strawberry, with fat free milk	11541120.202978
11541400	0	Milk_shake_with_malt_with_whole_milk	Milk shake, with malt, with whole milk	11541400.0
11541400	101023	Milk_shake_with_malt_with_1_milk	Milk shake, with malt, with 1% milk	11541400.101023
11542100	0	Milk_shake_fast_food_or_carry_out_chocolate	Milk shake, fast food or carry-out, chocolate	11542100.0
11542200	0	Milk_shake_fast_food_or_carry_out_vanilla_or_strawberry	Milk shake, fast food or carry out, vanilla or strawberry	11542200.0
11551050	204588	Fruit_smoothie_made_with_whole_milk	Fruit smoothie, made with whole milk	11551050.204588
11551050	206451	Fruit_smoothie_made_with_fat_free_skim_milk	Fruit smoothie, made with fat free (skim) milk	11551050.206451
11551050	206885	Fruit_smoothie_made_with_reduced_fat_2_milk	Fruit smoothie, made with reduced fat (2%) milk	11551050.206885
11551050	206927	Fruit_smoothie_made_with_low_fat_1_milk	Fruit smoothie, made with low fat (1%) milk	11551050.206927
11552200	0	Orange_Julius	Orange Julius	11552200.0
11553000	0	Fruit_smoothie_made_with_yogurt_and_ice_cream	Fruit smoothie, made with yogurt and ice cream	11553000.0
11560000	0	Chocolate_flavored_drink	Chocolate-flavored drink	11560000.0
11560020	0	Yoo_Hoo_drink_strawberry	Yoo-Hoo drink, strawberry	11560020.0
11561000	0	Cafe_con_leche_with_whole_milk	Cafe con leche, with whole milk	11561000.0
11561010	0	Cafe_con_leche_with_sugar	Cafe con leche  with sugar	11561010.0
11561010	204009	Cafe_con_leche_with_sugar_and_2_milk	Cafe con leche with sugar and 2% milk	11561010.204009
11611000	0	Instant_breakfast_canned	Instant breakfast, canned	11611000.0
11612000	100069	Instant_breakfast_powder_with_2_milk	Instant breakfast, powder, with 2% milk	11612000.100069
11612000	200404	Instant_breakfast_powder_with_whole_milk	Instant breakfast, powder, with whole milk	11612000.200404
11612000	201746	Instant_breakfast_powder_with_skim_milk	Instant breakfast, powder, with skim milk	11612000.201746
11612000	206499	Instant_breakfast_powder_with_1_milk	Instant breakfast, powder, with 1% milk	11612000.206499
11613000	203344	Instant_breakfast_powder_low_calorie_sweetener_with_2_milk	Instant breakfast, powder, low calorie sweetener, with 2% milk	11613000.203344
11622010	0	Diet_beverage_powder_made_with_fat_free_milk	Diet beverage, powder, made with fat free milk	11622010.0
11623000	0	Ensure_Nutrition_Shake	Ensure Nutrition Shake	11623000.0
11631000	0	Meal_supplement_high_calorie_canned_or_powdered_reconstituted	Meal supplement, high calorie, canned or powdered, reconstituted	11631000.0
11641000	0	Meal_supplement_high_protein_liquid	Meal supplement, high protein, liquid	11641000.0
11641020	0	Meal_supplement_ready_to_drink_Boost_	Meal supplement, ready-to-drink, (Boost)	11641020.0
11811000	0	Milk_dry_whole_not_reconstituted	Milk, dry, whole, not reconstituted	11811000.0
11812000	0	Milk_dry_low_fat_not_reconstituted	Milk, dry, low fat, not reconstituted	11812000.0
11813000	0	Milk_dry_nonfat_not_reconstituted	Milk, dry, nonfat, not reconstituted	11813000.0
11820000	0	Buttermilk_dry_not_reconstituted	Buttermilk, dry, not reconstituted	11820000.0
11825000	0	Whey_sweet_dry	Whey, sweet, dry	11825000.0
11830100	0	Cocoa_dry_mix_with_milk_sugar_not_reconstituted	Cocoa, dry mix (with milk & sugar), not reconstituted	11830100.0
11830110	0	Cocoa_dry_mix_with_nonfat_dry_milk_low_calorie_sweetener_not_reconstituted	Cocoa, dry mix (with nonfat dry milk & low calorie sweetener), not reconstituted	11830110.0
11830150	0	Cocoa_powder_unsweetened	Cocoa powder, unsweetened	11830150.0
11830160	0	Chocolate_flavored_powdered_drink_mix_not_reconstituted	Chocolate flavored powdered drink mix, not reconstituted	11830160.0
11830170	0	sugar_free_Nestle_s_Quik_powder	sugar free Nestle's Quik powder	11830170.0
11830200	0	Malted_milk_dry_mix_natural_flavor_not_reconstituted	Malted milk, dry mix, natural flavor, not reconstituted	11830200.0
11830210	0	Malted_milk_dry_mix_fortified_natural_flavor_not_reconstituted	Malted milk, dry mix, fortified, natural flavor, not reconstituted	11830210.0
11830250	0	Malted_milk_dry_mix_chocolate_not_reconstituted	Malted milk, dry mix, chocolate, not reconstituted	11830250.0
11830260	0	Malted_milk_dry_mix_fortified_chocolate_not_reconstituted	Malted milk, dry mix, fortified, chocolate, not reconstituted	11830260.0
11830400	0	Nestle_s_Quik_powder_strawberry	Nestle's Quik powder, strawberry	11830400.0
11830800	0	Instant_breakfast_powder_not_reconstituted	Instant breakfast, powder, not reconstituted	11830800.0
11830810	0	Instant_breakfast_powder_sweetened_with_low_calorie_sweetener_not_reconstituted	Instant breakfast, powder, sweetened with low calorie sweetener, not reconstituted	11830810.0
11830900	0	Protein_supplement_powder_milk_based_not_reconstituted	Protein supplement powder, milk-based, not reconstituted	11830900.0
11830940	0	Meal_replacement_powder_high_protein_milk_based_to_mix_with_fruit_juice_not_reconstituted	Meal replacement powder, high protein, milk-based, to mix with fruit juice, not reconstituted	11830940.0
11830970	0	Meal_replacement_powder_milk_based_not_reconstituted	Meal replacement powder, milk-based, not reconstituted	11830970.0
11830990	0	Nutrient_supplement_powder_milk_based_not_reconstituted	Nutrient supplement powder, milk-based, not reconstituted	11830990.0
11831500	0	Nutrient_supplement_powder_milk_based_high_protein_not_reconstituted	Nutrient supplement powder, milk-based, high protein, not reconstituted	11831500.0
11832000	0	Meal_replacement_powder_milk_and_soy_based_not_reconstituted	Meal replacement powder, milk- and soy-based,  not reconstituted	11832000.0
12110100	0	Light_cream	Light cream	12110100.0
12110300	0	Cream_light_whipped_unsweetened	Cream, light, whipped, unsweetened	12110300.0
12120100	0	Half_and_half	Half and half	12120100.0
12120105	0	Cream_half_and_half_low_fat	Cream, half and half, low fat	12120105.0
12120110	0	Cream_half_and_half_fat_free	Cream, half and half, fat free	12120110.0
12130100	0	Cream_heavy_whipping_cream_	Cream, heavy (whipping cream)	12130100.0
12130200	0	Cream_heavy_whipped_unsweetened	Cream, heavy, whipped, unsweetened	12130200.0
12140000	0	Whipped_cream_heavy_sweetened	Whipped cream, heavy, sweetened	12140000.0
12140100	0	Cream_whipped_pressurized_container	Cream, whipped, pressurized container	12140100.0
12140105	0	Whipped_cream_light_pressurized_container	Whipped cream, light, pressurized container	12140105.0
12140110	0	Cream_whipped_pressurized_container_fat_free	Cream, whipped, pressurized container, fat free	12140110.0
12210200	0	Cream_substitute_liquid	Cream substitute, liquid	12210200.0
12210210	0	Coffee_Mate_flavored_liquid	Coffee Mate, flavored, liquid	12210210.0
12210250	0	Cream_substitute_light_liquid	Cream substitute, light, liquid	12210250.0
12210400	0	Coffee_creamer_powdered	Coffee creamer, powdered	12210400.0
12210410	0	Cremora_light	Cremora, light	12210410.0
12210420	0	Coffee_creamer_flavored_powdered	Coffee creamer, flavored, powdered	12210420.0
12220100	0	Cool_Whip_pressurized_can	Cool Whip pressurized can	12220100.0
12220200	0	Whipped_topping_nondairy_frozen	Whipped topping, nondairy, frozen	12220200.0
12220250	0	Cool_Whip_Lite_frozen	Cool Whip Lite frozen	12220250.0
12220270	0	Whipped_topping_nondairy_frozen_fat_free	Whipped topping, nondairy, frozen, fat free	12220270.0
12220280	0	Cool_Whip_Sugar_Free_frozen	Cool Whip Sugar Free frozen	12220280.0
12220300	0	Whipped_topping_nondairy_made_from_powdered_mix	Whipped topping, nondairy, made from powdered mix	12220300.0
12310100	0	Sour_cream	Sour cream	12310100.0
12310200	0	Sour_cream_half_and_half	Sour cream, half and half	12310200.0
12310300	0	Sour_cream_reduced_fat	Sour cream, reduced fat	12310300.0
12310340	0	Sour_cream_low_fat	Sour cream, low fat	12310340.0
12310350	0	Sour_cream_light	Sour cream, light	12310350.0
12310370	0	Sour_cream_fat_free	Sour cream, fat free	12310370.0
12320100	0	Sour_cream_imitation_nondairy_	Sour cream, imitation (nondairy)	12320100.0
12350000	0	Ranch_dip_made_with_sour_cream	Ranch dip, made with sour cream	12350000.0
12350000	201766	Dip_made_with_fat_free_sour_cream	Dip, made with fat free sour cream	12350000.201766
12350000	202322	Ranch_dip_made_with_light_sour_cream	Ranch dip, made with light sour cream	12350000.202322
12350020	0	Dip_made_with_reduced_fat_sour_cream	Dip, made with reduced fat sour cream	12350020.0
12350100	0	Spinach_dip_made_with_sour_cream_and_mayonnaise	Spinach dip, made with sour cream and mayonnaise	12350100.0
12350100	100968	Spinach_dip_made_with_fat_free_sour_cream_and_low_calorie_mayonnaise	Spinach dip, made with fat free sour cream and low-calorie mayonnaise	12350100.100968
12350100	206570	Spinach_dip_made_with_reduced_fat_sour_cream_and_mayonnaise	Spinach dip, made with reduced fat sour cream and mayonnaise	12350100.206570
12350110	0	Spinach_and_artichoke_dip	Spinach and artichoke dip	12350110.0
13110100	0	Ice_cream_regular_vanilla_or_other_flavors	Ice cream, regular, vanilla or other flavors	13110100.0
13110110	0	Ice_cream_regular_chocolate	Ice cream, regular, chocolate	13110110.0
13110120	0	Ice_cream_premium_rich_vanilla_or_other_flavors	Ice cream, premium (rich), vanilla or other flavors	13110120.0
13110130	0	Ben_and_Jerry_s_ice_cream_chocolate	Ben and Jerry's ice cream, chocolate	13110130.0
13110200	0	Ice_cream_soft_serve_vanilla_or_other_flavors	Ice cream, soft serve, vanilla or other flavors	13110200.0
13110210	0	Ice_cream_soft_serve_chocolate	Ice cream, soft serve, chocolate	13110210.0
13110320	0	Ice_cream_no_sugar_added_vanilla_or_other_flavors	Ice cream, no sugar added, vanilla or other flavors	13110320.0
13110330	0	Ice_cream_no_sugar_added_chocolate	Ice cream, no sugar added, chocolate	13110330.0
13120050	0	Ice_cream_bar_no_coating	Ice cream bar, no coating	13120050.0
13120100	0	Ice_cream_bar_chocolate_covered	Ice cream bar, chocolate covered	13120100.0
13120110	0	Ice_cream_bar_chocolate_or_caramel_covered_with_nuts	Ice cream bar, chocolate or caramel covered, with nuts	13120110.0
13120120	0	Ice_cream_bar_rich_chocolate_ice_cream_thick_chocolate_covering	Ice cream bar, rich chocolate ice cream, thick chocolate covering	13120120.0
13120121	0	Dove_bar_vanilla_ice_cream	Dove bar, vanilla ice cream	13120121.0
13120130	0	Ice_cream_bar_rich_ice_cream_chocolate_covered_with_nuts	Ice cream bar, rich ice cream, chocolate covered, with nuts	13120130.0
13120140	0	Ice_cream_bar_chocolate_ice_cream_chocolate_covered	Ice cream bar, chocolate ice cream, chocolate covered	13120140.0
13120300	0	Ice_cream_bar_cake_covered	Ice cream bar, cake covered	13120300.0
13120310	0	Ice_cream_bar_with_crunch_coating	Ice cream bar, with crunch coating	13120310.0
13120400	0	Ice_cream_bar_or_stick_with_fruit	Ice cream bar or stick with fruit	13120400.0
13120500	0	Ice_cream_sandwich	Ice cream sandwich	13120500.0
13120550	0	Ice_cream_cookie_sandwich	Ice cream cookie sandwich	13120550.0
13120700	0	Ice_cream_cone_vanilla_ice_cream_or_other_flavors_with_nuts	Ice cream cone, vanilla ice cream or other flavors, with nuts	13120700.0
13120710	0	Ice_cream_cone_vanilla_ice_cream_or_other_flavors_chocolate_covered_with_nuts	Ice cream cone, vanilla ice cream or other flavors, chocolate covered, with nuts	13120710.0
13120720	0	Ice_cream_cone_vanilla_ice_cream_or_other_flavors_chocolate_covered	Ice cream cone, vanilla ice cream or other flavors, chocolate covered	13120720.0
13120730	0	Ice_cream_cone_vanilla_ice_cream_or_other_flavors	Ice cream cone, vanilla ice cream or other flavors	13120730.0
13120750	0	Ice_cream_cone_chocolate_ice_cream_with_nuts	Ice cream cone, chocolate ice cream, with nuts	13120750.0
13120760	0	Ice_cream_cone_chocolate_ice_cream_chocolate_covered	Ice cream cone, chocolate ice cream, chocolate covered	13120760.0
13120770	0	Ice_cream_cone_chocolate_ice_cream	Ice cream cone, chocolate ice cream	13120770.0
13120780	0	Ice_cream_cone_chocolate_ice_cream_chocolate_covered_with_nuts	Ice cream cone, chocolate ice cream, chocolate covered, with nuts	13120780.0
13120790	0	Ice_cream_sundae_cone	Ice cream sundae cone	13120790.0
13120800	0	Ice_cream_soda_vanilla_or_other_flavors	Ice cream soda, vanilla or other flavors	13120800.0
13120810	0	Ice_cream_soda_chocolate	Ice cream soda, chocolate	13120810.0
13121100	0	Ice_cream_sundae_fruit_topping_with_whipped_cream	Ice cream sundae, fruit topping, with whipped cream	13121100.0
13121200	0	Ice_cream_sundae_prepackaged_vanilla_or_other_flavors	Ice cream sundae, prepackaged, vanilla or other flavors	13121200.0
13121300	0	Ice_cream_sundae_chocolate_or_fudge_topping_with_whipped_cream	Ice cream sundae, chocolate or fudge topping, with whipped cream	13121300.0
13121400	0	Ice_cream_sundae_caramel_or_butterscotch_topping_with_whipped_cream	Ice cream sundae, caramel or butterscotch topping, with whipped cream	13121400.0
13121500	0	Ice_cream_sundae_fudge_topping_with_cake_and_whipped_cream	Ice cream sundae, fudge topping, with cake and whipped cream	13121500.0
13122100	0	Ice_cream_pie_no_crust	Ice cream pie, no crust	13122100.0
13122500	0	Pie_ice_cream_with_cookie_crust_fudge_topping_and_whipped_cream	Pie, ice cream, with cookie crust, fudge topping, and whipped cream	13122500.0
13126000	0	Ice_cream_fried	Ice cream, fried	13126000.0
13130300	0	Ice_cream_light_vanilla_or_other_flavors	Ice cream, light, vanilla or other flavors	13130300.0
13130310	0	Light_ice_cream_chocolate	Light ice cream, chocolate	13130310.0
13130330	0	Ice_cream_light_no_sugar_added_vanilla_or_other_flavors	Ice cream, light, no sugar added, vanilla or other flavors	13130330.0
13130340	0	Light_ice_cream_no_sugar_added_chocolate	Light ice cream, no sugar added, chocolate	13130340.0
13130600	0	Ice_cream_light_soft_serve_vanilla_or_other_flavors	Ice cream, light, soft serve, vanilla or other flavors	13130600.0
13130610	0	Light_ice_cream_soft_serve_chocolate	Light ice cream, soft serve, chocolate	13130610.0
13130620	0	Ice_cream_light_soft_serve_cone_vanilla_or_other_flavors	Ice cream, light, soft serve cone, vanilla or other flavors	13130620.0
13130630	0	Light_ice_cream_soft_serve_cone_chocolate	Light ice cream, soft serve cone, chocolate	13130630.0
13130700	0	Ice_cream_light_soft_serve_blended_with_candy_or_cookies_Blizzard_McFlurry_	Ice cream, light, soft serve, blended with candy or cookies (Blizzard, McFlurry)	13130700.0
13135000	0	Ice_cream_sandwich_light_vanilla_ice_cream	Ice cream sandwich, light vanilla ice cream	13135000.0
13135010	0	Ice_cream_sandwich_light_chocolate_ice_cream	Ice cream sandwich, light chocolate ice cream	13135010.0
13136000	0	Ice_cream_sandwich_light_no_sugar_added_ice_cream	Ice cream sandwich, light, no-sugar- added ice cream	13136000.0
13140100	0	Ice_cream_bar_light_ice_cream_chocolate_coated	Ice cream bar, light ice cream, chocolate-coated	13140100.0
13140110	0	Light_ice_cream_bar_chocolate_covered_with_nuts	Light ice cream bar, chocolate covered, with nuts	13140110.0
13140500	0	Ice_cream_cone_light_ice_cream_chocolate	Ice cream cone, light ice cream, chocolate	13140500.0
13140550	0	Light_ice_cream_cone_vanilla_or_other_flavors	Light ice cream cone, vanilla or other flavors	13140550.0
13140600	0	Ice_cream_sundae_light_soft_serve_chocolate_or_fudge_topping_with_whipped_cream	Ice cream sundae, light, soft serve, chocolate or fudge topping, with whipped cream	13140600.0
13140630	0	Light_ice_cream_sundae_soft_serve_fruit_topping_with_whipped_cream	Light ice cream sundae, soft serve, fruit topping, with whipped cream	13140630.0
13140650	0	Light_ice_cream_sundae_soft_serve_caramel_or_butterscotch_topping_with_whipped_cream	Light ice cream sundae, soft serve, caramel or butterscotch topping, with whipped cream	13140650.0
13140660	0	Ice_cream_sundae_light_soft_serve_chocolate_or_fudge_topping_no_whipped_cream	Ice cream sundae, light, soft serve, chocolate or fudge topping, no whipped cream	13140660.0
13140670	0	Light_ice_cream_sundae_soft_serve_fruit_topping_no_whipped_cream	Light ice cream sundae, soft serve, fruit topping, no whipped cream	13140670.0
13140680	0	Ice_cream_sundae_light_soft_serve_caramel_or_butterscotch_topping_no_whipped_cream	Ice cream sundae, light, soft serve, caramel or butterscotch topping, no whipped cream	13140680.0
13140700	0	Light_ice_cream_bar_creamsicle_or_dreamsicle	Light ice cream bar, creamsicle or dreamsicle	13140700.0
13140900	0	Fudgesicle	Fudgesicle	13140900.0
13142000	0	Milk_dessert_bar_or_stick_frozen_with_coconut	Milk dessert bar or stick, frozen, with coconut	13142000.0
13150000	0	Sherbet_all_flavors	Sherbet, all flavors	13150000.0
13160150	0	Ice_cream_fat_free_nonfat_no_sugar_added_chocolate	Ice cream, fat free (nonfat), no sugar added, chocolate	13160150.0
13160160	0	Fat_free_ice_cream_no_sugar_added_vanilla_or_other_flavors	Fat free ice cream, no sugar added, vanilla or other flavors	13160160.0
13160400	0	Ice_cream_fat_free_nonfat_vanilla_or_other_flavors	Ice cream, fat free (nonfat), vanilla or other flavors	13160400.0
13160410	0	Fat_free_ice_cream_chocolate	Fat free ice cream, chocolate	13160410.0
13161000	0	Milk_dessert_bar_frozen_made_from_low_fat_milk	Milk dessert bar, frozen, made from low fat milk	13161000.0
13161500	0	Milk_dessert_sandwich_bar_frozen_made_from_low_fat_milk	Milk dessert sandwich bar, frozen, made from low fat milk	13161500.0
13161520	0	Milk_dessert_sandwich_bar_frozen_with_low_calorie_sweetener_made_from_low_fat_milk	Milk dessert sandwich bar, frozen, with low-calorie sweetener, made from low fat milk	13161520.0
13161600	0	Milk_dessert_bar_frozen_made_from_low_fat_milk_and_low_calorie_sweetener	Milk dessert bar, frozen, made from low fat milk and low calorie sweetener	13161600.0
13161630	0	Light_ice_cream_bar_or_stick_with_low_calorie_sweetener_chocolate_coated	Light ice cream, bar or stick, with low-calorie sweetener, chocolate-coated	13161630.0
13170000	0	Baked_Alaska	Baked Alaska	13170000.0
13210110	0	Bread_pudding_with_raisins	Bread pudding, with raisins	13210110.0
13210110	202025	Bread_pudding_with_low_fat_1_milk	Bread pudding, with low fat (1%) milk	13210110.202025
13210110	202027	Bread_pudding_with_reduced_fat_2_milk	Bread pudding, with reduced fat (2%) milk	13210110.202027
13210110	206233	Bread_pudding_with_whole_milk	Bread pudding, with whole  milk	13210110.206233
13210110	206478	Bread_pudding_with_fat_free_skim_milk	Bread pudding, with fat free (skim) milk	13210110.206478
13210150	0	Bread_pudding_Puerto_Rican_with_evaporated_milk_and_rum	Bread pudding, Puerto Rican, with evaporated milk and rum	13210150.0
13210160	0	Diplomat_pudding_Puerto_Rican	Diplomat pudding, Puerto Rican	13210160.0
13210180	0	Bread_pudding_Mexican	Bread pudding, Mexican	13210180.0
13210180	205744	Bread_pudding_Mexican_with_milk	Bread pudding, Mexican, with milk	13210180.205744
13210190	0	Bread_pudding_Mexican_lower_fat	Bread pudding, Mexican, lower fat	13210190.0
13210300	201627	Custard_with_whole_milk	Custard, with whole milk	13210300.201627
13210300	201916	Custard_with_reduced_fat_2_milk	Custard, with reduced fat (2%) milk	13210300.201916
13210300	202337	Custard_with_heavy_cream	Custard, with heavy cream	13210300.202337
13210300	202532	Custard_with_fat_free_skim_milk	Custard, with fat free (skim) milk	13210300.202532
13210300	206348	Custard_with_low_fat_1_milk	Custard, with low fat (1%) milk	13210300.206348
13210300	207007	Custard_with_soymilk	Custard, with soymilk	13210300.207007
13210350	0	Custard_Puerto_Rican_style_with_evaporated_milk	Custard, Puerto Rican style, with evaporated milk	13210350.0
13210350	202228	Flan_made_with_reduced_fat_2_milk	Flan, made with reduced fat (2%) milk	13210350.202228
13210350	202769	Custard_Puerto_Rican_style_with_whole_milk	Custard, Puerto Rican style, with whole milk	13210350.202769
13210350	206307	Flan_made_with_heavy_cream	Flan, made with heavy cream	13210350.206307
13210350	207601	Flan_made_with_skim_milk	Flan, made with skim milk	13210350.207601
13210410	101318	Rice_pudding_with_rice_beverage	Rice pudding, with rice beverage	13210410.101318
13210410	200118	Pudding_rice_with_reduced_fat_2_milk	Pudding, rice, with reduced fat (2%) milk	13210410.200118
13210410	201036	Rice_pudding_with_whole_milk	Rice pudding, with whole milk	13210410.201036
13210410	202246	Pudding_rice_with_low_fat_1_milk	Pudding, rice, with low fat (1%) milk	13210410.202246
13210410	202515	Rice_pudding_with_half_and_half	Rice pudding, with half and half	13210410.202515
13210410	202676	Pudding_rice_with_fat_free_skim_milk	Pudding, rice, with fat free (skim) milk	13210410.202676
13210410	206391	Rice_pudding_with_soy_milk_soy_beverage_	Rice pudding, with soy milk (soy beverage)	13210410.206391
13210500	201871	Pudding_tapioca_home_recipe_with_reduced_fat_2_milk	Pudding, tapioca,  home recipe, with reduced fat (2%) milk	13210500.201871
13210500	202999	Tapioca_pudding_home_recipe_with_whole_milk	Tapioca pudding, home recipe, with whole milk	13210500.202999
13210500	203651	Pudding_tapioca_home_recipe_with_fat_free_skim_milk	Pudding, tapioca,  home recipe, with fat free (skim)  milk	13210500.203651
13210500	207373	Tapioca_pudding_home_recipe_with_low_fat_1_milk	Tapioca pudding, home recipe, with low fat (1%) milk	13210500.207373
13210520	100720	Tapioca_pudding_dry_mix_with_whole_milk	Tapioca pudding, dry mix, with whole milk	13210520.100720
13210520	200727	Pudding_tapioca_dry_mix_with_fat_free_skim_milk	Pudding, tapioca,  dry mix, with fat free (skim)  milk	13210520.200727
13210520	201398	Tapioca_pudding_dry_mix_with_reduced_fat_2_milk	Tapioca pudding, dry mix, with reduced fat (2%) milk	13210520.201398
13210520	201921	Pudding_tapioca_dry_mix_with_low_fat_1_milk	Pudding, tapioca,  dry mix, with low fat (1%) milk	13210520.201921
13210520	204518	Tapioca_pudding_dry_mix_with_light_cream	Tapioca pudding, dry mix, with light cream	13210520.204518
13210520	205449	Pudding_tapioca_dry_mix_with_half_and_half	Pudding, tapioca,  dry mix, with half and half	13210520.205449
13210520	206259	Tapioca_pudding_dry_mix_with_soy_milk_soy_beverage_	Tapioca pudding, dry mix, with soy milk (soy beverage)	13210520.206259
13210530	0	Pudding_tapioca_chocolate_with_milk	Pudding, tapioca, chocolate, with milk	13210530.0
13210610	100379	Pudding_coconut_with_reduced_fat_2_milk	Pudding, coconut, with reduced fat (2%) milk	13210610.100379
13210610	200583	Coconut_pudding_with_whole_milk	Coconut pudding, with whole milk	13210610.200583
13210710	0	Pudding_Indian_with_milk_molasses_and_cornmeal_	Pudding, Indian (with milk, molasses and cornmeal)	13210710.0
13210750	0	Pudding_pumpkin	Pudding, pumpkin	13210750.0
13210810	0	Pumpkin_pudding_Puerto_Rican_style	Pumpkin pudding, Puerto Rican style	13210810.0
13210820	0	Custard_fresh_corn_Puerto_Rican_style	Custard, fresh corn, Puerto Rican style	13210820.0
13220110	100034	Pudding_vanilla_dry_mix_with_reduced_fat_2_milk	Pudding, vanilla, dry mix, with reduced fat (2%) milk	13220110.100034
13220110	200385	Vanilla_pudding_dry_mix_whole_milk	Vanilla pudding, dry mix, whole milk	13220110.200385
13220110	200665	Pudding_vanilla_dry_mix_with_fat_free_skim_milk	Pudding, vanilla, dry mix, with fat free (skim) milk	13220110.200665
13220110	202106	Vanilla_pudding_dry_mix_with_low_fat_1_milk	Vanilla pudding, dry mix, with low fat (1%) milk	13220110.202106
13220120	200243	Pudding_chocolate_dry_mix_with_fat_free_skim_milk	Pudding, chocolate, dry mix, with fat free (skim) milk	13220120.200243
13220120	200504	Chocolate_pudding_dry_mix_with_reduced_fat_2_milk	Chocolate pudding, dry mix, with reduced fat (2%) milk	13220120.200504
13220120	201111	Pudding_chocolate_dry_mix_with_whole_milk	Pudding, chocolate, dry mix, with whole milk	13220120.201111
13220120	201777	Chocolate_pudding_dry_mix_with_low_fat_1_milk	Chocolate pudding, dry mix, with low fat (1%) milk	13220120.201777
13220120	203537	Pudding_chocolate_dry_mix_with_half_and_half	Pudding, chocolate, dry mix, with half and half	13220120.203537
13220120	205865	Chocolate_pudding_dry_mix_with_soymilk	Chocolate pudding, dry mix, with soymilk	13220120.205865
13220210	100147	Pudding_vanilla_low_calorie_dry_mix_with_reduced_fat_2_milk	Pudding, vanilla, low-calorie dry mix, with reduced fat (2%) milk	13220210.100147
13220210	200395	Vanilla_pudding_sugar_free_dry_mix_with_fat_free_skim_milk	Vanilla pudding, sugar free dry mix, with fat free (skim) milk	13220210.200395
13220210	205586	Pudding_vanilla_low_calorie_dry_mix_with_low_fat_1_milk	Pudding, vanilla, low-calorie dry mix, with low fat (1%) milk	13220210.205586
13220210	206251	Vanilla_pudding_sugar_free_dry_mix_whole_milk	Vanilla pudding, sugar free dry mix, whole milk	13220210.206251
13220220	200605	Pudding_chocolate_low_calorie_dry_mix_with_reduced_fat_2_milk	Pudding, chocolate, low-calorie dry mix, with reduced fat (2%) milk	13220220.200605
13220220	201118	Chocolate_pudding_sugar_free_dry_mix_with_fat_free_skim_milk	Chocolate pudding, sugar free dry mix, with fat free (skim) milk	13220220.201118
13220220	206196	Pudding_chocolate_low_calorie_dry_mix_with_low_fat_1_milk	Pudding, chocolate, low-calorie dry mix, with low fat (1%) milk	13220220.206196
13220220	206763	Chocolate_pudding_sugar_free_dry_mix_with_whole_milk	Chocolate pudding, sugar free dry mix, with whole milk	13220220.206763
13220230	0	Pudding_chocolate_ready_to_eat_snack_pack_or_cup_reduced_fat	Pudding, chocolate, ready-to-eat (snack pack or cup), reduced fat	13220230.0
13220235	0	Chocolate_pudding_ready_to_eat_snack_pack_or_cup_fat_free	Chocolate pudding, ready-to-eat (snack pack or cup), fat free	13220235.0
13220240	0	Pudding_vanilla_ready_to_eat_snack_pack_or_cup_reduced_fat	Pudding, vanilla, ready-to-eat (snack pack or cup), reduced fat	13220240.0
13220245	0	Vanilla_pudding_ready_to_eat_snack_pack_or_cup_fat_free	Vanilla pudding, ready-to-eat (snack pack or cup), fat free	13220245.0
13230110	0	Pudding_vanilla_ready_to_eat_snack_pack_or_cup_	Pudding, vanilla, ready-to-eat (snack pack or cup)	13230110.0
13230120	0	Vanilla_pudding_ready_to_eat_snack_pack_or_cup_low_calorie	Vanilla pudding, ready-to-eat (snack pack or cup), low calorie	13230120.0
13230130	0	Pudding_chocolate_ready_to_eat_snack_pack_or_cup_	Pudding, chocolate, ready-to-eat (snack pack or cup)	13230130.0
13230140	0	Chocolate_pudding_ready_to_eat_snack_pack_or_cup_low_calorie	Chocolate pudding, ready-to-eat (snack pack or cup), low calorie	13230140.0
13230200	0	Pudding_chocolate_swirl_ready_to_eat_snack_pack_or_cup_	Pudding, chocolate swirl, ready-to-eat (snack pack or cup)	13230200.0
13230500	0	Pudding_tapioca_ready_to_eat_snack_pack_or_cup_	Pudding, tapioca, ready-to-eat (snack pack or cup)	13230500.0
13230510	0	Tapioca_pudding_ready_to_eat_snack_pack_or_cup_fat_free	Tapioca pudding, ready-to-eat (snack pack or cup), fat free	13230510.0
13241000	0	Banana_pudding_with_vanilla_wafers_made_with_reduced_fat_2_milk	Banana pudding, with vanilla wafers, made with reduced fat (2%) milk	13241000.0
13241000	206113	Banana_pudding_with_vanilla_wafers_made_with_whole_milk	Banana pudding, with vanilla wafers, made with whole milk	13241000.206113
13250000	0	Chocolate_mousse	Chocolate mousse	13250000.0
13250000	207333	Mousse_chocolate_with_whole_milk	Mousse, chocolate, with whole milk	13250000.207333
13250000	207827	Mousse_chocolate_with_low_fat_1_milk	Mousse, chocolate, with low fat (1%) milk	13250000.207827
13250100	0	Mousse_fruit_flavored	Mousse, fruit-flavored	13250100.0
13251000	0	Chantilly_Cream	Chantilly Cream	13251000.0
13252100	0	Coconut_custard_Puerto_Rican_style	Coconut custard, Puerto Rican style	13252100.0
13252200	0	Dulce_de_leche	Dulce de leche	13252200.0
13252500	0	Barfi_or_Burfi_Indian_dessert	Barfi or Burfi, Indian dessert	13252500.0
13252600	0	Tiramisu	Tiramisu	13252600.0
13299996	0	Pudding_vanilla_instant_low_calorie_dry_mix	Pudding, vanilla, instant, low-calorie dry mix	13299996.0
13299997	0	Pudding_vanilla_instant_dry_mix	Pudding, vanilla, instant, dry mix	13299997.0
13299998	0	Pudding_chocolate_low_calorie_instant_dry_mix	Pudding, chocolate, low-calorie, instant, dry mix	13299998.0
13299999	0	Pudding_chocolate_instant_dry_mix	Pudding, chocolate, instant, dry mix	13299999.0
13411000	0	White_sauce_made_with_margarine	White sauce, made with margarine	13411000.0
13411000	205622	Cream_sauce_made_with_butter	Cream sauce, made with butter	13411000.205622
13412000	0	Milk_gravy_with_meat_drippings	Milk gravy, with meat drippings	13412000.0
13412000	206701	Quick_gravy_without_fat	Quick gravy, without fat	13412000.206701
13412000	207008	Milk_gravy_with_vegetable_oil	Milk gravy, with vegetable oil	13412000.207008
13412000	207010	Quick_gravy_with_margarine	Quick gravy, with margarine	13412000.207010
14101010	0	Roquefort_cheese	Roquefort cheese	14101010.0
14102010	0	Cheese_Brick	Cheese, Brick	14102010.0
14102110	0	Brick_cheese_with_salami	Brick cheese, with salami	14102110.0
14103010	0	Cheese_Camembert	Cheese, Camembert	14103010.0
14103020	0	Brie_cheese	Brie cheese	14103020.0
14104010	0	Cheese_Cheddar	Cheese, Cheddar	14104010.0
14104015	0	Cheese_Cheddar_reduced_fat	Cheese, Cheddar, reduced fat	14104015.0
14104020	0	Cheese_Cheddar_dry_grated	Cheese, Cheddar, dry, grated	14104020.0
14104115	0	Cheese_Cheddar_fat_free	Cheese, Cheddar, fat free	14104115.0
14104200	0	Cheese_Colby	Cheese, Colby	14104200.0
14104250	0	Colby_Jack_cheese	Colby Jack cheese	14104250.0
14104400	0	Cheese_Feta	Cheese, Feta	14104400.0
14104600	0	Fontina_cheese	Fontina cheese	14104600.0
14104700	0	Cheese_goat	Cheese, goat	14104700.0
14105010	0	Gouda_cheese	Gouda  cheese	14105010.0
14105200	0	Cheese_Gruyere	Cheese, Gruyere	14105200.0
14106010	0	Limburger_cheese	Limburger cheese	14106010.0
14106200	0	Cheese_Monterey	Cheese, Monterey	14106200.0
14106500	0	Monterey_cheese_low_fat	Monterey cheese, low fat	14106500.0
14106600	0	Pepper_jack_cheese	Pepper jack cheese	14106600.0
14107020	0	Cheese_Mozzarella_whole_milk	Cheese, Mozzarella, whole milk	14107020.0
14107030	0	Mozzarella_cheese_part_skim	Mozzarella cheese, part skim	14107030.0
14107040	0	Cheese_Mozzarella_low_sodium	Cheese, Mozzarella, low sodium	14107040.0
14107060	0	Mozzarella_cheese_nonfat_or_fat_free	Mozzarella cheese, nonfat or fat free	14107060.0
14107200	0	Cheese_Muenster	Cheese, Muenster	14107200.0
14107250	0	Muenster_cheese_low_fat	Muenster cheese, low fat	14107250.0
14108010	0	Cheese_Parmesan_dry_grated	Cheese, Parmesan, dry grated	14108010.0
14108015	0	Parmesan_cheese_dry_grated_reduced_fat	Parmesan cheese, dry grated, reduced fat	14108015.0
14108020	0	Cheese_Parmesan_hard	Cheese, Parmesan, hard	14108020.0
14108050	0	Parmesan_cheese_low_sodium	Parmesan cheese, low sodium	14108050.0
14108060	0	Parmesan_cheese_topping_fat_free	Parmesan cheese topping, fat free	14108060.0
14108200	0	Port_du_Salut_cheese	Port du Salut cheese	14108200.0
14108400	0	Cheese_Provolone	Cheese, Provolone	14108400.0
14108420	0	Provolone_cheese_reduced_fat	Provolone cheese, reduced fat	14108420.0
14109010	0	Cheese_Swiss	Cheese, Swiss	14109010.0
14109020	0	Swiss_cheese_low_sodium	Swiss cheese, low sodium	14109020.0
14109030	0	Cheese_Swiss_low_fat	Cheese, Swiss, low fat	14109030.0
14110010	0	Cheese_Cheddar_or_Colby_low_sodium	Cheese, Cheddar or Colby, low sodium	14110010.0
14110030	0	Colby_cheese_low_fat	Colby cheese, low fat	14110030.0
14120010	0	Cheese_Mexican_blend	Cheese, Mexican blend	14120010.0
14120020	0	Mexican_blend_cheese_reduced_fat	Mexican blend cheese, reduced fat	14120020.0
14131000	0	Queso_Anejo_aged_Mexican_cheese_	Queso Anejo (aged Mexican cheese)	14131000.0
14131500	0	Queso_Asadero	Queso Asadero	14131500.0
14132000	0	Queso_Chihuahua	Queso Chihuahua	14132000.0
14133000	0	Queso_Fresco	Queso Fresco	14133000.0
14134000	0	Cheese_cotija	Cheese, cotija	14134000.0
14201010	0	Cheese_cottage_creamed_large_or_small_curd	Cheese, cottage, creamed, large or small curd	14201010.0
14201200	0	Cheese_cottage_farmer_s	Cheese, cottage, farmer's	14201200.0
14201501	0	Cheese_Ricotta_whole_milk	Cheese, Ricotta, whole milk	14201501.0
14201502	0	Cheese_Ricotta_part_skim	Cheese, Ricotta, part skim	14201502.0
14202010	0	Cottage_cheese_with_fruit	Cottage cheese with fruit	14202010.0
14202020	0	Cheese_cottage_with_vegetables	Cheese, cottage, with vegetables	14202020.0
14203010	0	Cottage_cheese_fat_free_dry_curd	Cottage cheese, fat free, dry curd	14203010.0
14203020	0	Cottage_cheese_salted_dry_curd	Cottage cheese, salted, dry curd	14203020.0
14203510	0	Cheese_white_Puerto_Rican	Cheese, white, Puerto Rican	14203510.0
14204010	0	Cheese_cottage_low_fat_1_2_fat_	Cheese, cottage, low fat (1-2% fat)	14204010.0
14204020	0	Cottage_cheese_with_fruit_low_fat	Cottage cheese with fruit, low fat	14204020.0
14204030	0	Cheese_cottage_with_vegetables_low_fat	Cheese, cottage, with vegetables, low fat	14204030.0
14206010	0	Cottage_cheese_low_fat_low_sodium	Cottage cheese, low fat, low sodium	14206010.0
14207010	0	Cheese_cottage_low_fat_lactose_reduced	Cheese, cottage, low fat, lactose reduced	14207010.0
14301010	0	Cheese_cream	Cheese, cream	14301010.0
14303010	0	Light_cream_cheese	Light cream cheese	14303010.0
14410100	0	Processed_cheese_American_and_Swiss_blend	Processed cheese, American and Swiss blend	14410100.0
14410120	0	Cheese_American_reduced_fat	Cheese, American, reduced fat	14410120.0
14410200	0	American_cheese_pasteurized_processed	American cheese, pasteurized processed	14410200.0
14410210	0	Processed_cheese_American_low_sodium	Processed cheese, American, low sodium	14410210.0
14410300	0	American_cheese_pasteurized_processed_low_fat	American cheese, pasteurized processed, low fat	14410300.0
14410330	0	Velveeta_Light	Velveeta Light	14410330.0
14410350	0	Cheese_processed_American_fat_free	Cheese, processed, American, fat free	14410350.0
14410380	0	Processed_cream_cheese_product_fat_free	Processed cream cheese product, fat free	14410380.0
14410400	0	Cheese_processed_Swiss	Cheese, processed, Swiss	14410400.0
14410420	0	Processed_Swiss_cheese_low_fat	Processed Swiss cheese, low fat	14410420.0
14410500	0	Cheese_processed_cheese_food	Cheese, processed cheese food	14410500.0
14410600	0	Processed_cheese_with_vegetables	Processed cheese, with vegetables	14410600.0
14410620	0	Cheese_processed_with_wine	Cheese, processed, with wine	14410620.0
14420100	0	Velveeta	Velveeta	14420100.0
14420160	0	Cheese_spread_Swiss_cheese	Cheese spread, Swiss cheese	14420160.0
14420200	0	Rondele_Cheese_Spread	Rondele Cheese Spread	14420200.0
14420210	0	Cheese_spread_cream_cheese_light	Cheese spread, cream cheese, light	14420210.0
14420300	0	Cheese_spread_pressurized_can	Cheese spread, pressurized can	14420300.0
14502010	0	Imitation_cheese_American_or_cheddar	Imitation cheese, American or cheddar	14502010.0
14502040	0	American_or_cheddar_imitation_cheese_low_cholesterol	American or cheddar imitation cheese, low cholesterol	14502040.0
14504010	0	Imitation_mozzarella_cheese	Imitation mozzarella cheese	14504010.0
14610200	0	Cheese_cottage_cheese_with_gelatin	Cheese, cottage cheese with gelatin	14610200.0
14610210	0	Cottage_cheese_with_gelatin_Jello_and_fruit	Cottage cheese with gelatin (Jello) and fruit	14610210.0
14610250	0	Cheese_cottage_cheese_with_gelatin_and_vegetables	Cheese, cottage cheese with gelatin and vegetables	14610250.0
14610520	0	Cheese_with_nuts	Cheese with nuts	14610520.0
14620100	0	Dip_cream_cheese_base	Dip, cream cheese base	14620100.0
14620100	100755	Dip_low_fat_cream_cheese_base	Dip, low fat cream cheese base	14620100.100755
14620100	206957	Dip_cream_cheese_base_with_low_calorie_mayonnaise	Dip, cream cheese base with low-calorie mayonnaise	14620100.206957
14620120	0	Shrimp_dip_cream_cheese_base	Shrimp dip, cream cheese base	14620120.0
14620150	0	Dip_cheese_with_chili_pepper	Dip, cheese with chili pepper	14620150.0
14620300	0	Cheese_pizza_topping_only	Cheese pizza, topping only	14620300.0
14620310	0	Topping_from_vegetable_pizza	Topping from vegetable pizza	14620310.0
14620320	0	Topping_from_meat_pizza	Topping from meat pizza	14620320.0
14620330	0	Meat_and_vegetable_pizza_topping_only	Meat and vegetable pizza, topping only	14620330.0
14630100	0	Cheese_fondue	Cheese fondue	14630100.0
14630200	0	Cheese_souffle	Cheese souffle	14630200.0
14630300	0	Welsh_rarebit	Welsh rarebit	14630300.0
14640000	0	Cheese_sandwich_American_cheese	Cheese sandwich, American cheese	14640000.0
14640100	0	Cheese_sandwich_grilled	Cheese sandwich, grilled	14640100.0
14640200	0	Cheese_sandwich_swiss_and_american_cheese_and_lettuce	Cheese sandwich, swiss and american cheese and lettuce	14640200.0
14640300	0	Cheese_sandwich_cheese_spread	Cheese sandwich, cheese spread	14640300.0
14650100	0	Cheese_sauce	Cheese sauce	14650100.0
14650150	0	Cheese_sauce_with_low_fat_cheese	Cheese sauce, with low fat cheese	14650150.0
14650160	0	Alfredo_sauce	Alfredo sauce	14650160.0
14660200	0	Cheese_sticks_breaded_baked_or_fried	Cheese sticks, breaded, baked or fried	14660200.0
14670000	0	Caprese_salad_Mozzarella_tomato_and_basil_with_oil_and_vinegar_	Caprese salad (Mozzarella, tomato, and basil with oil and vinegar)	14670000.0
14710100	0	Soup_cheddar_cheese	Soup, cheddar cheese	14710100.0
14710110	0	Cheddar_cheese_soup_canned_undiluted	Cheddar cheese soup, canned, undiluted	14710110.0
14710200	0	Soup_beer_made_with_milk	Soup, beer, made with milk	14710200.0
21101120	0	Steak_beef_grilled_or_broiled_lean_and_fat_eaten	Steak, beef, grilled or broiled, lean and fat eaten	21101120.0
21101126	0	Beef_raw_tenderloin_boneless	Beef, raw, tenderloin, boneless	21101126.0
21101127	0	Steak_beef_raw_top_sirloin_boneless_fat_not_trimmed	Steak, beef, raw, top sirloin, boneless, fat not trimmed	21101127.0
21101128	0	Steak_beef_raw_top_round_boneless_fat_not_trimmed	Steak, beef, raw, top round, boneless, fat not trimmed	21101128.0
21101129	0	Steak_beef_raw_filet_boneless	Steak, beef, raw, filet, boneless	21101129.0
21101130	0	Steak_beef_grilled_or_broiled_lean_only_eaten	Steak, beef, grilled or broiled, lean only eaten	21101130.0
21101138	0	Steak_beef_raw_top_sirloin_boneless_fat_trimmed	Steak, beef, raw, top sirloin, boneless, fat trimmed	21101138.0
21101139	0	Steak_beef_raw_top_round_boneless_fat_trimmed	Steak, beef, raw, top round, boneless, fat trimmed	21101139.0
21102120	0	Steak_beef_fried_lean_and_fat_eaten	Steak, beef, fried, lean and fat eaten	21102120.0
21102130	0	Steak_beef_fried_lean_only_eaten	Steak, beef, fried, lean only eaten	21102130.0
21103120	0	Steak_beef_fried_or_baked_breaded_lean_and_fat_eaten	Steak, beef, fried or baked, breaded, lean and fat eaten	21103120.0
21103130	0	Steak_beef_fried_or_baked_breaded_lean_only_eaten	Steak, beef, fried or baked, breaded, lean only eaten	21103130.0
21104120	0	Steak_beef_fried_battered_lean_and_fat_eaten_country_fried_chicken_fried_	Steak, beef, fried, battered lean and fat eaten (country fried, chicken fried)	21104120.0
21104130	0	Steak_beef_fried_battered_lean_only_eaten_country_fried_chicken_fried_	Steak, beef, fried, battered, lean only eaten (country fried, chicken fried)	21104130.0
21105120	0	Steak_beef_braised_lean_and_fat_eaten	Steak, beef, braised, lean and fat eaten	21105120.0
21105130	0	Steak_beef_braised_lean_only_eaten	Steak, beef, braised, lean only eaten	21105130.0
21301000	0	Beef_oxtails_cooked	Beef, oxtails, cooked	21301000.0
21302000	0	Beef_neck_bones_cooked	Beef, neck bones, cooked	21302000.0
21304110	0	Beef_shortribs_cooked_lean_and_fat_eaten	Beef, shortribs, cooked, lean and fat eaten	21304110.0
21304119	0	Beef_raw_shortribs_bone_in_fat_not_trimmed	Beef, raw, shortribs, bone in, fat not trimmed	21304119.0
21304120	0	Beef_shortribs_cooked_lean_only_eaten	Beef, shortribs, cooked, lean only eaten	21304120.0
21304129	0	Beef_raw_shortribs_bone_in_fat_trimmed	Beef, raw, shortribs, bone in, fat trimmed	21304129.0
21304210	0	Beef_shortribs_barbecued_with_sauce_lean_and_fat_eaten	Beef, shortribs, barbecued, with sauce, lean and fat eaten	21304210.0
21304220	0	Beef_shortribs_barbecued_with_sauce_lean_only_eaten	Beef, shortribs, barbecued, with sauce, lean only eaten	21304220.0
21305000	0	Beef_cow_head_cooked	Beef, cow head, cooked	21305000.0
21401110	0	Beef_roast_lean_and_fat_eaten_prime_rib_rib_roast_	Beef, roast, lean and fat eaten (prime rib, rib roast)	21401110.0
21401119	0	Beef_raw_rib_roast_fat_not_trimmed	Beef, raw, rib roast, fat not trimmed	21401119.0
21401120	0	Beef_roast_lean_only_eaten_prime_rib_rib_roast_	Beef, roast, lean only eaten (prime rib, rib roast)	21401120.0
21401126	0	Beef_raw_roast_bottom_round_boneless_fat_not_trimmed	Beef, raw, roast, bottom round, boneless, fat not trimmed	21401126.0
21401127	0	Beef_raw_roast_tip_round_boneless_fat_not_trimmed	Beef, raw, roast, tip round, boneless, fat not trimmed	21401127.0
21401128	0	Beef_raw_roast_tip_round_boneless_fat_trimmed	Beef, raw, roast, tip round, boneless, fat trimmed	21401128.0
21401129	0	Beef_raw_roast_eye_of_round_fat_trimmed	Beef, raw, roast, eye of round, fat trimmed	21401129.0
21407110	0	Beef_pot_roast_braised_or_boiled_lean_and_fat_eaten	Beef, pot roast, braised or boiled, lean and fat eaten	21407110.0
21407118	0	Beef_raw_pot_roast_chuck_arm_boneless_fat_not_trimmed	Beef, raw, pot roast, chuck arm, boneless, fat not trimmed	21407118.0
21407119	0	Beef_raw_roast_chuck_boneless_fat_not_trimmed	Beef, raw, roast, chuck, boneless, fat not trimmed	21407119.0
21407120	0	Beef_pot_roast_braised_or_boiled_lean_only_eaten	Beef, pot roast, braised or boiled, lean only eaten	21407120.0
21407129	0	Beef_raw_pot_roast_chuck_arm_boneless_fat_trimmed	Beef, raw, pot roast, chuck arm, boneless, fat trimmed	21407129.0
21410110	0	Beef_stew_meat_cooked_lean_and_fat_eaten	Beef, stew meat, cooked, lean and fat eaten	21410110.0
21410120	0	Beef_stew_meat_cooked_lean_only_eaten	Beef, stew meat, cooked, lean only eaten	21410120.0
21416110	0	Corned_beef_cooked_lean_and_fat_eaten	Corned beef, cooked, lean and fat eaten	21416110.0
21416119	0	Corned_beef_raw_brisket_boneless_fat_not_trimmed	Corned beef, raw, brisket, boneless, fat not trimmed	21416119.0
21416120	0	Corned_beef_cooked_lean_only_eaten	Corned beef, cooked, lean only eaten	21416120.0
21416150	0	Corned_beef_canned_ready_to_eat	Corned beef, canned, ready-to-eat	21416150.0
21417110	0	Beef_brisket_cooked_lean_and_fat_eaten	Beef, brisket, cooked, lean and fat eaten	21417110.0
21417119	0	Beef_raw_brisket_boneless_fat_not_trimmed	Beef, raw, brisket, boneless, fat not trimmed	21417119.0
21417120	0	Beef_brisket_cooked_lean_only_eaten	Beef, brisket, cooked, lean only eaten	21417120.0
21417129	0	Beef_raw_brisket_boneless_fat_trimmed	Beef, raw, brisket, boneless, fat trimmed	21417129.0
21420100	0	Beef_sandwich_steak_Steak_umms_	Beef, sandwich steak (Steak-umms)	21420100.0
21500200	0	Ground_beef_patty_breaded_cooked	Ground beef, patty, breaded, cooked	21500200.0
21500300	0	Hamburger_patty_fast_food_cooked_no_bun	Hamburger, patty, fast food, cooked, no bun	21500300.0
21501000	0	Ground_beef_less_than_80_lean_cooked	Ground beef, less than 80% lean, cooked	21501000.0
21501200	0	Hamburger_patty_80_84_lean_cooked_no_bun	Hamburger, patty, 80% - 84% lean, cooked, no bun	21501200.0
21501300	0	Ground_beef_85_89_lean_cooked_ground_sirloin_ground_round_	Ground beef, 85% - 89% lean, cooked (ground sirloin, ground round)	21501300.0
21501309	0	Ground_beef_raw_85_lean	Ground beef, raw, 85% lean	21501309.0
21501350	0	Hamburger_patty_90_94_lean_cooked_no_bun	Hamburger, patty, 90% - 94% lean, cooked, no bun	21501350.0
21501359	0	Ground_beef_raw_90_lean	Ground beef, raw, 90% lean	21501359.0
21501360	0	Ground_beef_95_or_more_lean_cooked	Ground beef, 95% or more lean, cooked	21501360.0
21501369	0	Ground_beef_raw_95_lean	Ground beef, raw, 95% lean	21501369.0
21540100	0	Hamburger_patty_with_textured_vegetable_protein_TVP_cooked_no_bun	Hamburger, patty, with textured vegetable protein (TVP), cooked, no bun	21540100.0
21601000	0	Bacon_beef_cooked	Bacon, beef, cooked	21601000.0
21601999	0	Bacon_raw_beef	Bacon, raw, beef	21601999.0
21602000	0	Beef_dried_chipped_uncooked	Beef, dried, chipped, uncooked	21602000.0
21602010	0	Beef_dried_chipped_cooked_in_fat	Beef, dried, chipped, cooked in fat	21602010.0
21602100	0	Beef_jerky_Slim_Jim_Big_Jerk_	Beef jerky (Slim Jim, Big Jerk)	21602100.0
21603000	0	Beef_pastrami_smoked_spiced	Beef, pastrami, smoked, spiced	21603000.0
22002000	0	Pork_ground_or_patty_cooked	Pork, ground or patty, cooked	22002000.0
22002100	0	Pork_ground_or_patty_breaded_cooked	Pork, ground or patty, breaded, cooked	22002100.0
22101110	0	Pork_chop_broiled_baked_or_grilled_lean_and_fat_eaten	Pork, chop, broiled, baked, or grilled, lean and fat eaten	22101110.0
22101120	0	Pork_chop_broiled_baked_or_grilled_lean_only_eaten	Pork, chop, broiled, baked, or grilled, lean only eaten	22101120.0
22101140	0	Pork_chop_broiled_or_baked_breaded_or_floured_lean_and_fat_eaten	Pork, chop, broiled or baked, breaded or floured, lean and fat eaten	22101140.0
22101150	0	Pork_chop_broiled_or_baked_breaded_or_floured_lean_only_eaten	Pork, chop, broiled or baked, breaded or floured, lean only eaten	22101150.0
22101210	0	Pork_chop_fried_lean_and_fat_eaten	Pork, chop, fried, lean and fat eaten	22101210.0
22101220	0	Pork_chop_fried_lean_only_eaten	Pork, chop, fried, lean only eaten	22101220.0
22101310	0	Pork_chop_fried_breaded_or_floured_lean_and_fat_eaten	Pork, chop, fried, breaded or floured, lean and fat eaten	22101310.0
22101320	0	Pork_chop_fried_breaded_or_floured_lean_only_eaten	Pork, chop, fried, breaded or floured, lean only eaten	22101320.0
22101410	0	Pork_chop_fried_battered_lean_and_fat_eaten	Pork, chop, fried, battered, lean and fat eaten	22101410.0
22101420	0	Pork_chop_fried_battered_lean_only_eaten	Pork, chop, fried, battered, lean only eaten	22101420.0
22101510	0	Pork_chop_stewed_lean_and_fat_eaten	Pork, chop, stewed, lean and fat eaten	22101510.0
22101520	0	Pork_chop_stewed_lean_only_eaten	Pork, chop, stewed, lean only eaten	22101520.0
22107010	0	Pork_chop_smoked_or_cured_cooked_lean_and_fat_eaten	Pork, chop, smoked or cured, cooked, lean and fat eaten	22107010.0
22107020	0	Pork_chop_smoked_or_cured_cooked_lean_only_eaten	Pork, chop, smoked or cured, cooked, lean only eaten	22107020.0
22199997	0	Pork_raw_chops_center_loin_bone_in_fat_not_trimmed	Pork, raw, chops, center loin, bone in, fat not trimmed	22199997.0
22199998	0	Pork_raw_chops_top_loin_boneless_fat_not_trimmed	Pork, raw, chops, top loin, boneless, fat not trimmed	22199998.0
22199999	0	Pork_raw_chops_top_loin_boneless_fat_trimmed	Pork, raw, chops, top loin, boneless, fat trimmed	22199999.0
22201110	0	Pork_cutlet_or_steak_broiled_baked_or_grilled_lean_and_fat_eaten	Pork, cutlet or steak, broiled, baked, or grilled, lean and fat eaten	22201110.0
22201119	0	Pork_raw_cutlet_boneless_fat_not_trimmed	Pork, raw, cutlet, boneless, fat not trimmed	22201119.0
22201120	0	Pork_cutlet_or_steak_broiled_baked_or_grilled_lean_only_eaten	Pork, cutlet or steak, broiled, baked, or grilled, lean only eaten	22201120.0
22201129	0	Pork_raw_cutlet_boneless_fat_trimmed	Pork, raw, cutlet, boneless, fat trimmed	22201129.0
22201210	0	Pork_cutlet_or_steak_fried_lean_and_fat_eaten	Pork, cutlet or steak, fried, lean and fat eaten	22201210.0
22201220	0	Pork_cutlet_or_steak_fried_lean_only_eaten	Pork, cutlet or steak, fried, lean only eaten	22201220.0
22201410	0	Pork_cutlet_or_steak_fried_breaded_or_floured_lean_and_fat_eaten	Pork, cutlet or steak, fried, breaded or floured, lean and fat eaten	22201410.0
22201420	0	Pork_cutlet_or_steak_fried_breaded_or_floured_lean_only_eaten	Pork, cutlet or steak, fried, breaded or floured, lean only eaten	22201420.0
22210310	0	Pork_tenderloin_breaded_fried	Pork, tenderloin, breaded, fried	22210310.0
22210350	0	Pork_tenderloin_braised	Pork, tenderloin, braised	22210350.0
22210399	0	Pork_raw_tenderloin_fat_not_trimmed	Pork, raw, tenderloin, fat not trimmed	22210399.0
22210400	0	Pork_tenderloin_baked	Pork, tenderloin, baked	22210400.0
22300130	0	Ham_smoked_or_cured_fried_lean_and_fat_eaten	Ham, smoked or cured, fried, lean and fat eaten	22300130.0
22300140	0	Ham_smoked_or_cured_fried_lean_only_eaten	Ham, smoked or cured, fried, lean only eaten	22300140.0
22301110	0	Ham_fresh_cooked_lean_and_fat_eaten	Ham, fresh, cooked, lean and fat eaten	22301110.0
22301120	0	Ham_fresh_cooked_lean_only_eaten	Ham, fresh, cooked, lean only eaten	22301120.0
22311010	0	Ham_smoked_or_cured_cooked_lean_and_fat_eaten	Ham, smoked or cured, cooked, lean and fat eaten	22311010.0
22311020	0	Ham_smoked_or_cured_cooked_lean_only_eaten	Ham, smoked or cured, cooked, lean only eaten	22311020.0
22311210	0	Ham_smoked_or_cured_low_sodium_cooked_lean_and_fat_eaten	Ham, smoked or cured, low sodium, cooked, lean and fat eaten	22311210.0
22311220	0	Ham_smoked_or_cured_low_sodium_cooked_lean_only_eaten	Ham, smoked or cured, low sodium, cooked, lean only eaten	22311220.0
22311450	0	Prosciutto	Prosciutto	22311450.0
22311510	0	Ham_smoked_or_cured_canned_lean_and_fat_eaten	Ham, smoked or cured, canned, lean and fat eaten	22311510.0
22311520	0	Ham_smoked_or_cured_canned_lean_only_eaten	Ham, smoked or cured, canned, lean only eaten	22311520.0
22401010	0	Pork_roast_loin_cooked_lean_and_fat_eaten	Pork roast, loin, cooked, lean and fat eaten	22401010.0
22401020	0	Pork_roast_loin_cooked_lean_only_eaten	Pork roast, loin, cooked, lean only eaten	22401020.0
22401028	0	Pork_raw_roast_loin_boneless_fat_not_trimmed	Pork, raw, roast, loin, boneless, fat not trimmed	22401028.0
22401029	0	Pork_raw_roast_loin_boneless_fat_trimmed	Pork, raw, roast, loin, boneless, fat trimmed	22401029.0
22402510	0	Fried_pork_chunks_Puerto_Rican_style_Carne_de_cerdo_frita_masitas_fritas_	Fried pork chunks, Puerto Rican style (Carne de cerdo frita, masitas fritas)	22402510.0
22411010	0	Pork_roast_shoulder_cooked_lean_and_fat_eaten	Pork roast, shoulder, cooked, lean and fat eaten	22411010.0
22411019	0	Pork_raw_roast_shoulder_boneless_fat_not_trimmed	Pork, raw, roast, shoulder, boneless, fat not trimmed	22411019.0
22411020	0	Pork_roast_shoulder_cooked_lean_only_eaten	Pork roast, shoulder, cooked, lean only eaten	22411020.0
22421010	0	Pork_roast_smoked_or_cured_cooked_lean_and_fat_eaten	Pork roast, smoked or cured, cooked, lean and fat eaten	22421010.0
22421020	0	Pork_roast_smoked_or_cured_cooked_lean_only_eaten	Pork roast, smoked or cured, cooked, lean only eaten	22421020.0
22431000	0	Pork_roll_cured_fried	Pork roll, cured, fried	22431000.0
22501010	0	Canadian_bacon_cooked	Canadian bacon, cooked	22501010.0
22601000	0	Bacon_pork_cooked	Bacon, pork, cooked	22601000.0
22601040	0	Side_pork_uncured_bacon_cooked	Side pork (uncured bacon), cooked	22601040.0
22601999	0	Bacon_raw_pork_smoked_or_cured	Bacon, raw, pork, smoked or cured	22601999.0
22602010	0	Bacon_pork_lower_sodium_cooked	Bacon, pork, lower sodium, cooked	22602010.0
22602019	0	Bacon_raw_pork_smoked_or_cured_lower_sodium	Bacon, raw, pork, smoked or cured, lower sodium	22602019.0
22605010	0	Bacon_pork_formed_breakfast_strips_cooked	Bacon, pork, formed breakfast strips, cooked	22605010.0
22621000	0	Salt_pork_cooked	Salt pork, cooked	22621000.0
22621100	0	Fat_back_cooked	Fat back, cooked	22621100.0
22701010	0	Pork_spareribs_cooked_lean_and_fat_eaten	Pork, spareribs, cooked, lean and fat eaten	22701010.0
22701019	0	Pork_raw_spareribs_fat_not_trimmed	Pork, raw, spareribs, fat not trimmed	22701019.0
22701020	0	Pork_spareribs_cooked_lean_only_eaten	Pork, spareribs, cooked, lean only eaten	22701020.0
22701040	0	Pork_spareribs_barbecued_with_sauce_lean_and_fat_eaten	Pork, spareribs, barbecued, with sauce, lean and fat eaten	22701040.0
22701050	0	Pork_spareribs_barbecued_with_sauce_lean_only_eaten	Pork, spareribs, barbecued, with sauce, lean only eaten	22701050.0
22704010	0	Pork_cracklings_cooked	Pork, cracklings, cooked	22704010.0
22705010	0	Pork_pig_s_ears_tail_head_snout_miscellaneous_parts_cooked	Pork, pig's ears, tail, head, snout, miscellaneous parts, cooked	22705010.0
22706010	0	Pork_neck_bones_cooked	Pork, neck bones, cooked	22706010.0
22707010	0	Pork_pig_s_feet_cooked	Pork, pig's feet, cooked	22707010.0
22707020	0	Pork_pig_s_feet_pickled	Pork, pig's feet, pickled	22707020.0
22708010	0	Pork_pig_s_hocks_cooked	Pork, pig's hocks, cooked	22708010.0
22709010	0	Pork_skin_deep_fried_pork_rinds_	Pork, skin, deep-fried (pork rinds)	22709010.0
23104010	0	Lamb_loin_chop_cooked_lean_and_fat_eaten	Lamb, loin chop, cooked, lean and fat eaten	23104010.0
23104019	0	Lamb_raw_chop_loin_bone_in_fat_not_trimmed	Lamb, raw, chop, loin, bone in, fat not trimmed	23104019.0
23104020	0	Lamb_loin_chop_cooked_lean_only_eaten	Lamb, loin chop, cooked, lean only eaten	23104020.0
23107010	0	Lamb_shoulder_chop_cooked_lean_and_fat_eaten	Lamb, shoulder chop, cooked, lean and fat eaten	23107010.0
23107020	0	Lamb_shoulder_chop_cooked_lean_only_eaten	Lamb, shoulder chop, cooked, lean only eaten	23107020.0
23108010	0	Lamb_shoulder_cooked_lean_and_fat_eaten	Lamb, shoulder, cooked, lean and fat eaten	23108010.0
23108020	0	Lamb_shoulder_cooked_lean_only_eaten	Lamb, shoulder, cooked, lean only eaten	23108020.0
23110000	0	Lamb_ribs_cooked_lean_only_eaten_rack_of_lamb_	Lamb, ribs, cooked, lean only eaten (rack of lamb)	23110000.0
23110050	0	Lamb_ribs_cooked_lean_and_fat_eaten_rack_of_lamb_	Lamb, ribs, cooked, lean and fat eaten (rack of lamb)	23110050.0
23110059	0	Lamb_raw_ribs_fat_not_trimmed_rack_of_lamb_	Lamb, raw, ribs, fat not trimmed (rack of lamb)	23110059.0
23111010	0	Lamb_hocks_shanks_cooked	Lamb hocks (shanks), cooked	23111010.0
23120110	0	Lamb_roast_cooked_lean_and_fat_eaten_leg_of_lamb_	Lamb, roast, cooked, lean and fat eaten (leg of lamb)	23120110.0
23120119	0	Lamb_raw_roast_leg_fat_not_trimmed_leg_of_lamb_	Lamb, raw, roast, leg, fat not trimmed (leg of lamb)	23120119.0
23120120	0	Lamb_roast_cooked_lean_only_eaten_leg_of_lamb_	Lamb, roast, cooked, lean only eaten (leg of lamb)	23120120.0
23132000	0	Lamb_ground_or_patty_cooked	Lamb, ground or patty, cooked	23132000.0
23132999	0	Lamb_raw_ground	Lamb, raw, ground	23132999.0
23150100	0	Goat_boiled	Goat, boiled	23150100.0
23150200	0	Goat_fried	Goat, fried	23150200.0
23150250	0	Goat_baked	Goat, baked	23150250.0
23150259	0	Goat_raw_skin_removed	Goat, raw, skin removed	23150259.0
23150270	0	Goat_head_cooked	Goat, head, cooked	23150270.0
23150300	0	Goat_ribs_cooked	Goat, ribs, cooked	23150300.0
23200119	0	Veal_raw_boneless_fat_not_trimmed	Veal, raw, boneless, fat not trimmed	23200119.0
23201029	0	Veal_raw_chop_boneless_fat_not_trimmed	Veal, raw, chop, boneless, fat not trimmed	23201029.0
23203020	0	Veal_chop_fried_lean_and_fat_eaten	Veal, chop, fried, lean and fat eaten	23203020.0
23203030	0	Veal_chop_fried_lean_only_eaten	Veal, chop, fried, lean only eaten	23203030.0
23203110	0	Veal_chop_broiled_lean_and_fat_eaten	Veal, chop, broiled, lean and fat eaten	23203110.0
23203120	0	Veal_chop_broiled_lean_only_eaten	Veal, chop, broiled, lean only eaten	23203120.0
23204210	0	Veal_cutlet_veal_steak_broiled_lean_and_fat_eaten	Veal, cutlet, (veal steak), broiled, lean and fat eaten	23204210.0
23204220	0	Veal_cutlet_veal_steak_broiled_lean_only_eaten	Veal, cutlet, (veal steak), broiled, lean only eaten	23204220.0
23205020	0	Veal_cutlet_veal_steak_fried_lean_and_fat_eaten	Veal, cutlet, (veal steak), fried, lean and fat eaten	23205020.0
23205030	0	Veal_cutlet_veal_steak_fried_lean_only_eaten	Veal cutlet, (veal steak), fried, lean only eaten	23205030.0
23210020	0	Veal_roasted_lean_and_fat_eaten	Veal, roasted, lean and fat eaten	23210020.0
23210030	0	Veal_roasted_lean_only_eaten	Veal, roasted, lean only eaten	23210030.0
23220010	0	Veal_ground_or_patty_cooked	Veal, ground or patty, cooked	23220010.0
23220019	0	Veal_raw_ground	Veal, raw, ground	23220019.0
23220020	0	Mock_chicken_legs_cooked	Mock chicken legs, cooked	23220020.0
23220030	0	Veal_patty_breaded_cooked	Veal patty, breaded, cooked	23220030.0
23311100	0	Rabbit_domestic_cooked	Rabbit, domestic, cooked	23311100.0
23311120	0	Rabbit_breaded_fried	Rabbit, breaded, fried	23311120.0
23311200	0	Rabbit_wild_cooked	Rabbit, wild, cooked	23311200.0
23321050	0	Venison_deer_cured	Venison, (deer), cured	23321050.0
23321100	0	Venison_deer_roasted	Venison, (deer), roasted	23321100.0
23321109	0	Venison_deer_raw_ground	Venison, (deer), raw, ground	23321109.0
23321250	0	Venison_deer_steak_breaded_or_floured_cooked	Venison, (deer), steak, breaded or floured, cooked	23321250.0
23321900	0	Venison_deer_jerky	Venison, (deer), jerky	23321900.0
23322100	0	Deer_bologna	Deer bologna	23322100.0
23322300	0	Venison_deer_chop_cooked	Venison, (deer), chop, cooked	23322300.0
23322350	0	Venison_deer_ribs_cooked	Venison, (deer), ribs, cooked	23322350.0
23322400	0	Venison_deer_stewed	Venison, (deer), stewed	23322400.0
23323100	0	Moose_cooked	Moose, cooked	23323100.0
23323500	0	Bear_cooked	Bear, cooked	23323500.0
23324100	0	Caribou_cooked	Caribou, cooked	23324100.0
23326100	0	Bison_buffalo_cooked	Bison, (buffalo), cooked	23326100.0
23326109	0	Buffalo_bison_raw_ground	Buffalo, (bison), raw, ground	23326109.0
23331100	0	Ground_hog_cooked	Ground hog, cooked	23331100.0
23332100	0	Opossum_cooked	Opossum, cooked	23332100.0
23333100	0	Squirrel_cooked	Squirrel, cooked	23333100.0
23334100	0	Beaver_cooked	Beaver, cooked	23334100.0
23335100	0	Raccoon_cooked	Raccoon, cooked	23335100.0
23340100	0	Armadillo_cooked	Armadillo, cooked	23340100.0
23345100	0	Wild_pig_smoked	Wild pig, smoked	23345100.0
23350100	0	Ostrich_cooked	Ostrich, cooked	23350100.0
24122110	0	Chicken_breast_baked_skin_eaten	Chicken, breast, baked, skin eaten	24122110.0
24122118	0	Chicken_raw_breast_bone_in_with_skin_skin_removed	Chicken, raw, breast, bone in, with skin, skin removed	24122118.0
24122119	0	Chicken_raw_breast_bone_in_with_skin	Chicken, raw, breast, bone in, with skin	24122119.0
24122120	0	Chicken_breast_roasted_skin_not_eaten	Chicken, breast, roasted, skin not eaten	24122120.0
24122128	0	Chicken_raw_tenderloins_boneless_skinless	Chicken, raw, tenderloins, boneless, skinless	24122128.0
24122129	0	Chicken_raw_breast_boneless_skinless	Chicken, raw, breast, boneless, skinless	24122129.0
24123110	0	Chicken_breast_stewed_skin_eaten	Chicken, breast, stewed, skin eaten	24123110.0
24123120	0	Chicken_breast_stewed_skin_not_eaten	Chicken, breast, stewed, skin not eaten	24123120.0
24124110	0	Fried_chicken_breast_fried_in_shortening_no_breading_skin_eaten	Fried chicken, breast, fried in shortening, no breading, skin eaten	24124110.0
24124110	205388	Fried_chicken_breast_fried_in_oil_no_breading_skin_eaten	Fried chicken, breast, fried in oil, no breading, skin eaten	24124110.205388
24124120	0	Fried_chicken_breast_fried_in_shortening_no_breading_skin_not_eaten	Fried chicken, breast, fried in shortening, no breading, skin not eaten	24124120.0
24124120	205398	Fried_chicken_breast_fried_in_margarine_no_breading_skin_not_eaten	Fried chicken, breast, fried in margarine, no breading, skin not eaten	24124120.205398
24124120	205407	Fried_chicken_breast_fried_in_oil_no_breading_skin_not_eaten	Fried chicken, breast, fried in oil, no breading, skin not eaten	24124120.205407
24124120	205472	Fried_chicken_breast_fried_in_butter_no_breading_skin_not_eaten	Fried chicken, breast, fried in butter, no breading, skin not eaten	24124120.205472
24127110	0	Fried_chicken_breast_fried_in_shortening_skin_breading_eaten	Fried chicken, breast, fried in shortening, skin/breading eaten	24127110.0
24127110	205433	Fried_chicken_breast_fried_in_oil_skin_breading_eaten	Fried chicken, breast, fried in oil, skin/breading eaten	24127110.205433
24127110	205695	Chicken_breast_baked_breaded_skin_breading_eaten	Chicken, breast, baked, breaded, skin/breading eaten	24127110.205695
24127120	0	Fried_chicken_breast_fried_in_shortening_skin_breading_not_eaten	Fried chicken, breast, fried in shortening, skin/breading not eaten	24127120.0
24127120	205996	Fried_chicken_breast_fried_in_oil_skin_breading_not_eaten	Fried chicken, breast, fried in oil, skin/breading not eaten	24127120.205996
24127120	207006	Chicken_breast_baked_breaded_skin_breading_not_eaten	Chicken, breast, baked, breaded, skin/breading not eaten	24127120.207006
24127130	0	Fried_chicken_fried_fast_food_skin_breading_eaten	Fried chicken, fried, fast food, skin/breading eaten	24127130.0
24127135	0	Fried_chicken_fast_food_skin_breading_not_eaten	Fried chicken, fast food, skin/breading not eaten	24127135.0
24127150	0	Fried_chicken_breast_fried_in_shortening_skinless_breading_eaten	Fried chicken, breast, fried in shortening, skinless, breading eaten	24127150.0
24127150	205340	Chicken_breast_boneless_skinless_baked_breaded_breading_eaten	Chicken, breast, boneless, skinless, baked, breaded, breading eaten	24127150.205340
24127150	205374	Fried_chicken_breast_fried_in_oil_skinless_breading_eaten	Fried chicken, breast, fried in oil, skinless, breading eaten	24127150.205374
24127150	205762	Fried_chicken_breast_fried_in_margarine_skinless_breading_eaten	Fried chicken, breast, fried in margarine, skinless, breading eaten	24127150.205762
24127150	206199	Fried_chicken_breast_fried_in_butter_skinless_breading_eaten	Fried chicken, breast, fried in butter, skinless, breading eaten	24127150.206199
24127160	0	Fried_chicken_breast_fried_in_shortening_skinless_breading_not_eaten	Fried chicken, breast, fried in shortening, skinless, breading not eaten	24127160.0
24127160	205446	Fried_chicken_breast_fried_in_oil_skinless_breading_not_eaten	Fried chicken, breast, fried in oil, skinless, breading not eaten	24127160.205446
24127160	205835	Chicken_breast_boneless_skinless_baked_breaded_breading_not_eaten	Chicken, breast, boneless, skinless, baked, breaded, breading not eaten	24127160.205835
24132210	0	Chicken_leg_quarter_drumstick_and_thigh_baked_skin_eaten	Chicken, leg quarter (drumstick and thigh), baked, skin eaten	24132210.0
24132219	0	Chicken_raw_leg_quarter_drumstick_and_thigh_with_skin	Chicken, raw, leg quarter (drumstick and thigh), with skin	24132219.0
24132220	0	Chicken_leg_quarter_drumstick_and_thigh_roasted_skin_not_eaten	Chicken, leg quarter (drumstick and thigh), roasted, skin not eaten	24132220.0
24132229	0	Chicken_raw_leg_quarter_drumstick_and_thigh_with_skin_skin_removed	Chicken, raw, leg quarter (drumstick and thigh), with skin, skin removed	24132229.0
24133210	0	Chicken_leg_quarter_drumstick_and_thigh_stewed_skin_eaten	Chicken, leg quarter (drumstick and thigh), stewed, skin eaten	24133210.0
24133220	0	Chicken_leg_quarter_drumstick_and_thigh_stewed_skin_not_eaten	Chicken, leg quarter (drumstick and thigh), stewed, skin not eaten	24133220.0
24134210	0	Fried_chicken_leg_drumstick_and_thigh_fried_in_shortening_no_breading_skin_eaten	Fried chicken, leg (drumstick and thigh), fried in shortening, no breading, skin eaten	24134210.0
24134210	205372	Fried_chicken_leg_drumstick_and_thigh_fried_in_oil_no_breading_skin_eaten	Fried chicken, leg (drumstick and thigh), fried in oil, no breading, skin eaten	24134210.205372
24134220	0	Fried_chicken_leg_drumstick_and_thigh_fried_in_shortening_no_breading_skin_not_eaten	Fried chicken, leg (drumstick and thigh), fried in shortening, no breading, skin not eaten	24134220.0
24134220	205432	Fried_chicken_leg_drumstick_and_thigh_fried_in_oil_no_breading_skin_not_eaten	Fried chicken, leg (drumstick and thigh), fried in oil, no breading, skin not eaten	24134220.205432
24137210	0	Fried_chicken_leg_drumstick_and_thigh_fried_in_shortening_skin_breading_eaten	Fried chicken, leg (drumstick and thigh), fried in shortening, skin/breading eaten	24137210.0
24137210	205348	Fried_chicken_leg_drumstick_and_thigh_fried_in_oil_skin_breading_eaten	Fried chicken, leg (drumstick and thigh), fried in oil, skin/breading eaten	24137210.205348
24137210	205685	Chicken_leg_quarter_drumstick_and_thigh_baked_breaded_skin_breading_eaten	Chicken, leg quarter (drumstick and thigh), baked, breaded, skin/breading eaten	24137210.205685
24137220	0	Fried_chicken_leg_drumstick_and_thigh_fried_in_shortening_skin_breading_not_eaten	Fried chicken, leg (drumstick and thigh), fried in shortening, skin/breading not eaten	24137220.0
24137220	205406	Fried_chicken_leg_drumstick_and_thigh_fried_in_oil_skin_breading_not_eaten	Fried chicken, leg (drumstick and thigh), fried in oil, skin/breading not eaten	24137220.205406
24137220	207129	Chicken_leg_quarter_drumstick_and_thigh_baked_breaded_skin_breading_not_eaten	Chicken, leg quarter (drumstick and thigh), baked, breaded, skin/breading not eaten	24137220.207129
24137250	0	Fried_chicken_leg_drumstick_and_thigh_fried_in_shortening_skinless_breading_eaten	Fried chicken, leg (drumstick and thigh), fried in shortening, skinless, breading eaten	24137250.0
24137250	205544	Fried_chicken_leg_drumstick_and_thigh_fried_in_oil_skinless_breading_eaten	Fried chicken, leg (drumstick and thigh), fried in oil, skinless, breading eaten	24137250.205544
24137260	0	Fried_chicken_leg_drumstick_and_thigh_fried_in_shortening_skinless_breading_not_eaten	Fried chicken, leg (drumstick and thigh), fried in shortening, skinless, breading not eaten	24137260.0
24142210	0	Chicken_drumstick_grilled_skin_eaten	Chicken, drumstick, grilled, skin eaten	24142210.0
24142219	0	Chicken_raw_drumstick_with_skin	Chicken, raw, drumstick, with skin	24142219.0
24142220	0	Chicken_drumstick_baked_skin_not_eaten	Chicken, drumstick, baked, skin not eaten	24142220.0
24142229	0	Chicken_raw_drumstick_with_skin_skin_removed	Chicken, raw, drumstick, with skin, skin removed	24142229.0
24143210	0	Chicken_drumstick_stewed_skin_eaten	Chicken, drumstick, stewed, skin eaten	24143210.0
24143220	0	Chicken_drumstick_stewed_skin_not_eaten	Chicken, drumstick, stewed, skin not eaten	24143220.0
24144210	0	Fried_chicken_drumstick_fried_in_shortening_no_breading_skin_eaten	Fried chicken, drumstick, fried in shortening, no breading, skin eaten	24144210.0
24144210	205539	Fried_chicken_drumstick_fried_in_oil_no_breading_skin_eaten	Fried chicken, drumstick, fried in oil, no breading, skin eaten	24144210.205539
24144220	0	Fried_chicken_drumstick_fried_in_shortening_no_breading_skin_not_eaten	Fried chicken, drumstick, fried in shortening, no breading, skin not eaten	24144220.0
24144220	205371	Fried_chicken_drumstick_fried_in_oil_no_breading_skin_not_eaten	Fried chicken, drumstick, fried in oil, no breading, skin not eaten	24144220.205371
24147210	0	Fried_chicken_drumstick_fried_in_shortening_skin_breading_eaten	Fried chicken, drumstick, fried in shortening, skin/breading eaten	24147210.0
24147210	205362	Fried_chicken_drumstick_fried_in_oil_skin_breading_eaten	Fried chicken, drumstick, fried in oil, skin/breading eaten	24147210.205362
24147210	205533	Chicken_drumstick_baked_breaded_skin_breading_eaten	Chicken, drumstick, baked, breaded, skin/breading eaten	24147210.205533
24147220	0	Fried_chicken_drumstick_fried_in_shortening_skin_breading_not_eaten	Fried chicken, drumstick, fried in shortening, skin/breading not eaten	24147220.0
24147220	205464	Fried_chicken_drumstick_fried_in_oil_skin_breading_not_eaten	Fried chicken, drumstick, fried in oil, skin/breading not eaten	24147220.205464
24147220	206578	Chicken_drumstick_baked_breaded_skin_breading_not_eaten	Chicken, drumstick, baked, breaded, skin/breading not eaten	24147220.206578
24147230	0	Fried_chicken_drumstick_fast_food_skin_breading_eaten	Fried chicken, drumstick, fast food, skin/breading eaten	24147230.0
24147235	0	Fried_chicken_drumstick_fast_food_skin_breading_not_eaten	Fried chicken, drumstick, fast food, skin/breading not eaten	24147235.0
24147250	0	Fried_chicken_drumstick_fried_in_shortening_skinless_breading_eaten	Fried chicken, drumstick, fried in shortening, skinless, breading eaten	24147250.0
24147250	205538	Fried_chicken_drumstick_fried_in_oil_skinless_breading_eaten	Fried chicken, drumstick, fried in oil, skinless, breading eaten	24147250.205538
24147260	0	Fried_chicken_drumstick_fried_in_shortening_skinless_breading_not_eaten	Fried chicken, drumstick, fried in shortening, skinless, breading not eaten	24147260.0
24147260	205972	Fried_chicken_drumstick_fried_in_oil_skinless_breading_not_eaten	Fried chicken, drumstick, fried in oil, skinless, breading not eaten	24147260.205972
24152210	0	Chicken_thigh_baked_skin_eaten	Chicken, thigh, baked, skin eaten	24152210.0
24152219	0	Chicken_raw_thigh_with_skin	Chicken, raw, thigh, with skin	24152219.0
24152220	0	Chicken_thigh_roasted_skin_not_eaten	Chicken, thigh, roasted, skin not eaten	24152220.0
24152228	0	Chicken_raw_thigh_with_skin_skin_removed	Chicken, raw, thigh, with skin, skin removed	24152228.0
24152229	0	Chicken_raw_thigh_boneless_skinless	Chicken, raw, thigh, boneless, skinless	24152229.0
24153210	0	Chicken_thigh_stewed_skin_eaten	Chicken, thigh, stewed, skin eaten	24153210.0
24153220	0	Chicken_thigh_stewed_skin_not_eaten	Chicken, thigh, stewed, skin not eaten	24153220.0
24154210	0	Fried_chicken_thigh_fried_in_shortening_no_breading_skin_eaten	Fried chicken, thigh, fried in shortening, no breading, skin eaten	24154210.0
24154210	205389	Fried_chicken_thigh_fried_in_oil_no_breading_skin_eaten	Fried chicken, thigh, fried in oil, no breading, skin eaten	24154210.205389
24154220	0	Fried_chicken_thigh_fried_in_shortening_no_breading_skin_not_eaten	Fried chicken, thigh, fried in shortening, no breading, skin not eaten	24154220.0
24154220	205419	Fried_chicken_thigh_fried_in_oil_no_breading_skin_not_eaten	Fried chicken, thigh, fried in oil, no breading, skin not eaten	24154220.205419
24157210	0	Fried_chicken_thigh_fried_in_shortening_skin_breading_eaten	Fried chicken, thigh, fried in shortening, skin/breading eaten	24157210.0
24157210	205368	Fried_chicken_thigh_fried_in_oil_skin_breading_eaten	Fried chicken, thigh, fried in oil, skin/breading eaten	24157210.205368
24157210	205845	Chicken_thigh_baked_breaded_skin_breading_eaten	Chicken, thigh, baked, breaded, skin/breading eaten	24157210.205845
24157220	0	Fried_chicken_thigh_fried_in_shortening_skin_breading_not_eaten	Fried chicken, thigh, fried in shortening, skin/breading not eaten	24157220.0
24157220	205683	Fried_chicken_thigh_fried_in_oil_skin_breading_not_eaten	Fried chicken, thigh, fried in oil, skin/breading not eaten	24157220.205683
24157220	205909	Chicken_thigh_baked_breaded_skin_breading_not_eaten	Chicken, thigh, baked, breaded, skin/breading not eaten	24157220.205909
24157230	0	Fried_chicken_thigh_fast_food_skin_breading_eaten	Fried chicken, thigh, fast food, skin/breading eaten	24157230.0
24157235	0	Fried_chicken_thigh_fast_food_skin_breading_not_eaten	Fried chicken, thigh, fast food, skin/breading not eaten	24157235.0
24157250	0	Fried_chicken_thigh_fried_in_shortening_skinless_breading_eaten	Fried chicken, thigh, fried in shortening, skinless, breading eaten	24157250.0
24157250	205490	Fried_chicken_thigh_fried_in_oil_skinless_breading_eaten	Fried chicken, thigh, fried in oil, skinless, breading eaten	24157250.205490
24157250	206347	Chicken_thigh_baked_skinless_breaded_breading_not_eaten	Chicken, thigh, baked, skinless, breaded, breading not eaten	24157250.206347
24157260	0	Fried_chicken_thigh_fried_in_shortening_skinless_breading_not_eaten	Fried chicken, thigh, fried in shortening, skinless, breading not eaten	24157260.0
24157260	205400	Fried_chicken_thigh_fried_in_oil_skinless_breading_not_eaten	Fried chicken, thigh, fried in oil, skinless, breading not eaten	24157260.205400
24162110	0	Chicken_wing_baked_skin_eaten	Chicken, wing, baked, skin eaten	24162110.0
24162119	0	Chicken_raw_wing_with_skin	Chicken, raw, wing, with skin	24162119.0
24162120	0	Chicken_wing_grilled_skin_not_eaten	Chicken, wing, grilled, skin not eaten	24162120.0
24162129	0	Chicken_raw_wing_with_skin_skin_removed	Chicken, raw, wing, with skin, skin removed	24162129.0
24163110	0	Chicken_wing_stewed_skin_eaten	Chicken, wing, stewed, skin eaten	24163110.0
24163120	0	Chicken_wing_stewed_skin_not_eaten	Chicken, wing, stewed, skin not eaten	24163120.0
24164110	0	Fried_chicken_wing_fried_in_shortening_no_breading_skin_eaten	Fried chicken, wing, fried in shortening, no breading, skin eaten	24164110.0
24164110	205387	Fried_chicken_wing_fried_in_oil_no_breading_skin_eaten	Fried chicken, wing, fried in oil, no breading, skin eaten	24164110.205387
24164120	0	Fried_chicken_wing_fried_in_shortening_no_breading_skin_not_eaten	Fried chicken, wing, fried in shortening, no breading, skin not eaten	24164120.0
24164120	205504	Fried_chicken_wing_fried_in_oil_no_breading_skin_not_eaten	Fried chicken, wing, fried in oil, no breading, skin not eaten	24164120.205504
24167110	0	Fried_chicken_wing_fried_in_shortening_skin_breading_eaten	Fried chicken, wing, fried in shortening, skin/breading eaten	24167110.0
24167110	205393	Fried_chicken_wing_fried_in_oil_skin_breading_eaten	Fried chicken, wing, fried in oil, skin/breading eaten	24167110.205393
24167110	205831	Chicken_wing_baked_breaded_skin_breading_eaten	Chicken, wing, baked, breaded, skin/breading eaten	24167110.205831
24167120	0	Fried_chicken_wing_fried_in_shortening_skin_breading_not_eaten	Fried chicken, wing, fried in shortening, skin/breading not eaten	24167120.0
24167120	205665	Fried_chicken_wing_fried_in_oil_skin_breading_not_eaten	Fried chicken, wing, fried in oil, skin/breading not eaten	24167120.205665
24167120	206282	Chicken_wing_baked_breaded_skin_breading_not_eaten	Chicken, wing, baked, breaded, skin/breading not eaten	24167120.206282
24167130	0	Fried_chicken_wing_fast_food_skin_breading_eaten	Fried chicken, wing, fast food, skin/breading eaten	24167130.0
24167135	0	Fried_chicken_wing_fast_food_skin_breading_not_eaten	Fried chicken, wing, fast food, skin/breading not eaten	24167135.0
24170200	0	Chicken_back_cooked	Chicken, back, cooked	24170200.0
24180200	0	Chicken_neck_or_ribs_cooked	Chicken, neck or ribs, cooked	24180200.0
24198340	0	Chicken_tail	Chicken, tail	24198340.0
24198440	0	Chicken_skin_roasted	Chicken skin, roasted	24198440.0
24198500	0	Chicken_feet	Chicken feet	24198500.0
24198570	0	Chicken_canned	Chicken, canned	24198570.0
24198700	0	Chicken_patty_chicken_fillet_or_chicken_tenders_breaded_cooked_Banquet_Burger_King_Weaver_KFC_Tyson_McDonald_s_	Chicken patty, chicken fillet, or chicken tenders, breaded, cooked (Banquet, Burger King, Weaver, KFC, Tyson, McDonald's)	24198700.0
24198720	0	Chicken_ground_cooked	Chicken, ground, cooked	24198720.0
24198729	0	Ground_chicken_raw	Ground chicken, raw	24198729.0
24198740	0	Chicken_nuggets_McDonald_s_Weaver_Mini_Drums_Tyson_Chicken_Sticks_Carl_s_Jr_Chicken_Stars_	Chicken nuggets (McDonald's, Weaver Mini Drums, Tyson Chicken Sticks, Carl's Jr. Chicken Stars)	24198740.0
24198840	0	Fried_chicken_chunks_Puerto_Rican_style	Fried chicken chunks, Puerto Rican style	24198840.0
24201020	0	Turkey_cutlet_white_meat_cooked_skin_not_eaten	Turkey, cutlet, white meat, cooked, skin not eaten	24201020.0
24201029	0	Turkey_raw_breast_boneless_skinless	Turkey, raw, breast, boneless, skinless	24201029.0
24201039	0	Turkey_raw_breast_bone_in_with_skin	Turkey, raw, breast, bone in, with skin	24201039.0
24201049	0	Turkey_breast_whole_roasted	Turkey, breast, whole, roasted	24201049.0
24201120	0	Turkey_white_meat_roasted_skin_not_eaten	Turkey, white meat, roasted, skin not eaten	24201120.0
24201130	0	Turkey_white_meat_roasted_skin_eaten	Turkey, white meat, roasted, skin eaten	24201130.0
24201220	0	Turkey_dark_meat_roasted_skin_not_eaten	Turkey, dark meat, roasted, skin not eaten	24201220.0
24201230	0	Turkey_dark_meat_roasted_skin_eaten	Turkey, dark meat, roasted, skin eaten	24201230.0
24201239	0	Turkey_raw_leg_bone_in_with_skin	Turkey, raw, leg, bone in, with skin	24201239.0
24201320	0	Turkey_white_and_dark_meat_roasted_skin_not_eaten	Turkey, white and dark meat, roasted, skin not eaten	24201320.0
24201330	0	Turkey_white_and_dark_meat_roasted_skin_eaten	Turkey, white and dark meat, roasted, skin eaten	24201330.0
24201410	0	Turkey_white_and_dark_meat_stewed_skin_not_eaten	Turkey, white and dark meat, stewed, skin not eaten	24201410.0
24201420	0	Turkey_white_and_dark_meat_stewed_skin_eaten	Turkey white and dark meat, stewed, skin eaten	24201420.0
24201510	0	Turkey_white_and_dark_meat_smoked_skin_eaten	Turkey, white and dark meat, smoked, skin eaten	24201510.0
24201520	0	Turkey_white_and_dark_meat_smoked_skin_not_eaten	Turkey, white and dark meat, smoked, skin not eaten	24201520.0
24201998	0	Turkey_raw_whole_skin_removed	Turkey, raw, whole, skin removed	24201998.0
24201999	0	Turkey_raw_whole_with_skin	Turkey, raw, whole, with skin	24201999.0
24202060	0	Turkey_drumstick_roasted_skin_not_eaten	Turkey, drumstick, roasted, skin not eaten	24202060.0
24202070	0	Turkey_drumstick_roasted_skin_eaten	Turkey, drumstick, roasted, skin eaten	24202070.0
24202120	0	Turkey_drumstick_smoked_skin_eaten	Turkey, drumstick, smoked, skin eaten	24202120.0
24202460	0	Turkey_thigh_cooked_skin_eaten	Turkey, thigh, cooked, skin eaten	24202460.0
24202500	0	Turkey_thigh_cooked_skin_not_eaten	Turkey, thigh, cooked, skin not eaten	24202500.0
24202600	0	Turkey_neck_cooked	Turkey, neck, cooked	24202600.0
24202699	0	Turkey_raw_neck_skinless	Turkey, raw, neck, skinless	24202699.0
24203010	0	Turkey_wing_cooked_skin_not_eaten	Turkey, wing, cooked, skin not eaten	24203010.0
24203020	0	Turkey_wing_cooked_skin_eaten	Turkey, wing, cooked, skin eaten	24203020.0
24203120	0	Turkey_wing_smoked_skin_eaten	Turkey, wing, smoked, skin eaten	24203120.0
24204000	0	Turkey_rolled_roast_white_and_dark_meat_cooked	Turkey, rolled roast, white and dark meat, cooked	24204000.0
24205000	0	Turkey_tail_cooked	Turkey, tail, cooked	24205000.0
24205100	0	Turkey_back_cooked	Turkey, back, cooked	24205100.0
24207000	0	Turkey_ground_cooked	Turkey, ground, cooked	24207000.0
24207098	0	Ground_turkey_raw_85_lean	Ground turkey, raw, 85% lean	24207098.0
24207099	0	Ground_turkey_raw_breast	Ground turkey, raw, breast	24207099.0
24207100	0	Ground_turkey_93_or_more_lean_cooked_no_bun	Ground turkey, 93% or more lean, cooked, no bun	24207100.0
24208000	0	Turkey_nuggets	Turkey nuggets	24208000.0
24208500	0	Bacon_turkey_cooked	Bacon, turkey, cooked	24208500.0
24300110	0	Duck_cooked_skin_eaten	Duck, cooked, skin eaten	24300110.0
24300119	0	Duck_raw_with_skin	Duck, raw, with skin	24300119.0
24300120	0	Duck_cooked_skin_not_eaten	Duck, cooked, skin not eaten	24300120.0
24302010	0	Duck_pressed_Chinese	Duck, pressed, Chinese	24302010.0
24311010	0	Goose_wild_roasted	Goose, wild, roasted	24311010.0
24401010	0	Cornish_game_hen_roasted_skin_eaten	Cornish game hen, roasted, skin eaten	24401010.0
24401020	0	Cornish_game_hen_roasted_skin_not_eaten	Cornish game hen, roasted, skin not eaten	24401020.0
24402100	0	Dove_squab_pigeon_cooked	Dove, (squab, pigeon), cooked	24402100.0
24402110	0	Dove_squab_pigeon_fried	Dove, (squab, pigeon), fried	24402110.0
24403100	0	Quail_cooked	Quail, cooked	24403100.0
24404100	0	Pheasant_cooked	Pheasant, cooked	24404100.0
25110120	0	Liver_beef_braised	Liver, beef, braised	25110120.0
25110129	0	Liver_beef_raw	Liver, beef, raw	25110129.0
25110140	0	Liver_beef_fried	Liver, beef, fried	25110140.0
25110420	0	Liver_chicken_braised	Liver, chicken, braised	25110420.0
25110429	0	Liver_chicken_raw	Liver, chicken, raw	25110429.0
25110450	207088	Liver_chicken_fried_in_meat_drippings	Liver, chicken, fried in meat drippings	25110450.207088
25112200	0	Liver_chicken_pate	Liver, chicken, pate	25112200.0
25120000	0	Heart_cooked	Heart, cooked	25120000.0
25120099	0	Chicken_raw_heart	Chicken, raw, heart	25120099.0
25130000	0	Kidney_cooked	Kidney, cooked	25130000.0
25140110	0	Sweetbreads_cooked	Sweetbreads, cooked	25140110.0
25150000	0	Brains_cooked	Brains, cooked	25150000.0
25160000	0	Tongue_cooked	Tongue, cooked	25160000.0
25170110	0	Tripe_cooked	Tripe, cooked	25170110.0
25170210	0	Chitterlings_cooked	Chitterlings, cooked	25170210.0
25170310	0	Hog_maws_pig_stomach_cooked	Hog maws, (pig stomach), cooked	25170310.0
25170420	0	Gizzard_cooked	Gizzard, cooked	25170420.0
25170429	0	Chicken_raw_gizzards	Chicken, raw, gizzards	25170429.0
25210150	0	Hot_dogs_frankfurters_cheese_filled	Hot dogs, frankfurters, cheese-filled	25210150.0
25210210	0	Hot_dog_frankfurter_beef	Hot dog, frankfurter, beef	25210210.0
25210220	0	Hot_dogs_frankfurters_beef_and_pork	Hot dogs, frankfurters, beef and pork	25210220.0
25210230	0	Hot_dog_frankfurter_beef_and_pork_lowfat	Hot dog, frankfurter, beef and pork, lowfat	25210230.0
25210250	0	Hot_dogs_frankfurters_meat_and_poultry_fat_free	Hot dogs, frankfurters, meat and poultry, fat free	25210250.0
25210280	0	Hot_dog_frankfurter_meat_and_poultry	Hot dog, frankfurter, meat and poultry	25210280.0
25210310	0	Hot_dogs_frankfurters_chicken	Hot dogs, frankfurters, chicken	25210310.0
25210410	0	Hot_dog_frankfurter_turkey	Hot dog, frankfurter, turkey	25210410.0
25210610	0	Hot_dogs_frankfurters_beef_lowfat	Hot dogs, frankfurters, beef, lowfat	25210610.0
25210700	0	Hot_dog_frankfurter_meat_and_poultry_lowfat	Hot dog, frankfurter, meat and poultry, lowfat	25210700.0
25220106	0	Sausage_beef_reduced_fat	Sausage, beef, reduced fat	25220106.0
25220110	0	Sausage_beef_brown_and_serve_cooked	Sausage, beef, brown and serve, cooked	25220110.0
25220130	0	Sausage_half_smoke	Sausage, half smoke	25220130.0
25220140	0	Sausage_beef_cooked	Sausage, beef, cooked	25220140.0
25220150	0	Sausage_smoked_beef_with_cheese	Sausage, smoked, beef with cheese	25220150.0
25220210	0	Sausage_blood_Blutwurst_	Sausage, blood (Blutwurst)	25220210.0
25220310	0	Sausage_bockwurst	Sausage, bockwurst	25220310.0
25220350	0	Sausage_bratwurst_pork_cooked	Sausage, bratwurst, pork, cooked	25220350.0
25220360	0	Sausage_bratwurst_with_cheese	Sausage, bratwurst, with cheese	25220360.0
25220370	0	Bratwurst_beef_cooked	Bratwurst, beef, cooked	25220370.0
25220390	0	Bologna_beef_lowfat	Bologna, beef, lowfat	25220390.0
25220400	0	Bologna_pork_and_beef	Bologna, pork and beef	25220400.0
25220420	0	Bologna_Lebanon	Bologna, Lebanon	25220420.0
25220430	0	Bologna_beef	Bologna, beef	25220430.0
25220440	0	Bologna_turkey_chicken_	Bologna, turkey (chicken)	25220440.0
25220450	0	Bologna_ring_smoked	Bologna, ring, smoked	25220450.0
25220460	0	Bologna_pork	Bologna, pork	25220460.0
25220470	0	Bologna_beef_low_sodium_low_salt_	Bologna, beef, low sodium (low salt)	25220470.0
25220480	0	Bologna_chicken_beef_and_pork	Bologna, chicken, beef, and pork	25220480.0
25220500	0	Bologna_beef_and_pork_lowfat	Bologna, beef and pork, lowfat	25220500.0
25220510	0	Capicola	Capicola	25220510.0
25220610	0	Cervelat_soft	Cervelat, soft	25220610.0
25220650	0	Sausage_smoked_chicken_and_beef	Sausage, smoked, chicken and beef	25220650.0
25220710	0	Sausage_chorizo	Sausage, chorizo	25220710.0
25220910	0	Head_cheese	Head cheese	25220910.0
25221110	0	Knockwurst	Knockwurst	25221110.0
25221210	0	Mortadella	Mortadella	25221210.0
25221250	0	Pepperoni	Pepperoni	25221250.0
25221310	0	Sausage_Polish_Kielbasa_	Sausage, Polish (Kielbasa)	25221310.0
25221350	0	Sausage_pork_Italian_cooked	Sausage, pork, Italian, cooked	25221350.0
25221359	0	Sausage_raw_pork_Italian	Sausage, raw, pork, Italian	25221359.0
25221406	0	Sausage_pork_reduced_fat	Sausage, pork, reduced fat	25221406.0
25221410	0	Sausage_pork_cooked	Sausage, pork, cooked	25221410.0
25221420	0	Sausage_pork_brown_and_serve_cooked	Sausage, pork, brown and serve, cooked	25221420.0
25221450	0	Sausage_pork_and_rice_brown_and_serve_cooked	Sausage, pork and rice, brown and serve, cooked	25221450.0
25221470	0	Sausage_pork_and_beef_brown_and_serve_cooked	Sausage, pork and beef, brown and serve, cooked	25221470.0
25221480	0	Sausage_mettwurst	Sausage, mettwurst	25221480.0
25221510	0	Salami_soft_cooked	Salami, soft, cooked	25221510.0
25221520	0	Salami_dry_or_hard	Salami, dry or hard	25221520.0
25221530	0	Salami_beef	Salami, beef	25221530.0
25221610	0	Scrapple_cooked	Scrapple, cooked	25221610.0
25221650	0	Sausage_smoked_pork	Sausage, smoked, pork	25221650.0
25221660	0	Sausage_smoked_pork_and_beef	Sausage, smoked, pork and beef	25221660.0
25221710	0	Sausage_souse	Sausage, souse	25221710.0
25221810	0	Sausage_Thuringer	Sausage, Thuringer	25221810.0
25221830	0	Sausage_chicken_cooked	Sausage, chicken, cooked	25221830.0
25221840	0	Sausage_turkey_cooked	Sausage, turkey, cooked	25221840.0
25221849	0	Sausage_raw_turkey	Sausage, raw, turkey	25221849.0
25221850	0	Sausage_smoked_turkey	Sausage, smoked, turkey	25221850.0
25221860	0	Sausage_turkey_reduced_fat_brown_and_serve_cooked	Sausage, turkey, reduced fat, brown and serve, cooked	25221860.0
25221870	0	Sausage_turkey_and_pork_cooked	Sausage, turkey and pork, cooked	25221870.0
25221880	0	Sausage_smoked_turkey_pork_and_beef_reduced_fat	Sausage, smoked, turkey, pork, and beef, reduced fat	25221880.0
25221890	0	Sausage_smoked_turkey_pork_and_beef_lowfat	Sausage, smoked, turkey, pork, and beef, lowfat	25221890.0
25221910	0	Vienna_sausage_chicken_beef_and_pork_canned	Vienna sausage, chicken, beef, and pork, canned	25221910.0
25221920	0	Vienna_sausage_chicken_canned	Vienna sausage, chicken, canned	25221920.0
25221950	0	Sausage_pickled	Sausage, pickled	25221950.0
25230210	0	Ham_luncheon_meat_prepackaged_or_deli	Ham, luncheon meat, prepackaged or deli	25230210.0
25230220	0	Ham_luncheon_meat_prepackaged_or_deli_low_salt	Ham, luncheon meat, prepackaged or deli, low salt	25230220.0
25230230	0	Ham_luncheon_meat_prepackaged_or_deli_extra_lean	Ham, luncheon meat, prepackaged or deli, extra lean	25230230.0
25230235	0	Ham_luncheon_meat_prepackaged_or_deli_extra_lean_low_sodium	Ham, luncheon meat, prepackaged or deli, extra lean, low sodium	25230235.0
25230310	0	Chicken_loaf_turkey_loaf_luncheon_meat_prepackaged_or_deli	Chicken loaf (turkey loaf), luncheon meat, prepackaged or deli	25230310.0
25230430	0	Ham_and_cheese_loaf	Ham and cheese loaf	25230430.0
25230530	0	Ham_and_pork_luncheon_meat_chopped_minced_pressed_spiced_canned_Spam_Treet_	Ham and pork, luncheon meat, chopped, minced, pressed, spiced, canned (Spam, Treet)	25230530.0
25230540	0	Ham_pork_and_chicken_luncheon_meat_chopped_minced_pressed_spiced_canned_Spam_Lite_	Ham, pork and chicken, luncheon meat, chopped, minced, pressed, spiced, canned (Spam Lite)	25230540.0
25230550	0	Ham_pork_and_chicken_luncheon_meat_chopped_minced_pressed_spiced_canned_reduced_sodium_Spam_25_Less_Salt_	Ham, pork, and chicken, luncheon meat, chopped, minced, pressed, spiced, canned, reduced sodium (Spam 25% Less Salt)	25230550.0
25230560	0	Liverwurst_Braunschweiger_	Liverwurst (Braunschweiger)	25230560.0
25230610	0	Luncheon_loaf_olive_pickle_or_pimiento_	Luncheon loaf (olive, pickle, or pimiento)	25230610.0
25230790	0	Turkey_ham_luncheon_meat_prepackaged_or_deli_extra_lean	Turkey ham, luncheon meat, prepackaged or deli, extra lean	25230790.0
25230800	0	Turkey_ham_luncheon_meat_prepackaged_or_deli	Turkey ham, luncheon meat, prepackaged or deli	25230800.0
25230810	0	Veal_loaf	Veal loaf	25230810.0
25230820	0	Pastrami_turkey	Pastrami, turkey	25230820.0
25230840	0	Salami_turkey	Salami, turkey	25230840.0
25230900	0	Turkey_or_chicken_breast_luncheon_meat_prepackaged_or_deli	Turkey or chicken breast, luncheon meat, prepackaged or deli	25230900.0
25230905	0	Turkey_or_chicken_breast_luncheon_meat_prepackaged_or_deli_low_salt_low_sodium_	Turkey or chicken breast, luncheon meat, prepackaged or deli, low salt (low sodium)	25230905.0
25231110	0	Beef_luncheon_meat_prepackaged_or_deli	Beef, luncheon meat, prepackaged or deli	25231110.0
25231150	0	Corned_beef_pressed	Corned beef, pressed	25231150.0
25240110	0	Chicken_salad_spread	Chicken salad spread	25240110.0
25240210	0	Deviled_ham_potted_ham_	Deviled ham (potted ham)	25240210.0
25240220	0	Ham_salad_spread	Ham salad spread	25240220.0
26100150	0	Fish_battered_and_fried	Fish, battered and fried	26100150.0
26100260	0	Fish_patty_breaded_fast_food	Fish patty, breaded, fast food	26100260.0
26100270	0	Fish_patty_breaded	Fish patty, breaded	26100270.0
26101180	0	Anchovies_canned	Anchovies, canned	26101180.0
26103120	0	Barracuda_baked_or_broiled_with_margarine	Barracuda, baked or broiled with margarine	26103120.0
26103140	0	Barracuda_floured_or_breaded_fried_in_shortening	Barracuda, floured or breaded, fried in shortening	26103140.0
26103160	0	Barracuda_steamed_or_poached	Barracuda, steamed or poached	26103160.0
26105120	0	Carp_baked_or_broiled_with_margarine	Carp, baked or broiled with margarine	26105120.0
26105120	203146	Carp_baked_or_broiled_without_fat	Carp, baked or broiled without fat	26105120.203146
26105120	205995	Carp_baked_or_broiled_with_oil	Carp, baked or broiled with oil	26105120.205995
26105120	206967	Carp_baked_or_broiled_with_butter	Carp, baked or broiled with butter	26105120.206967
26105130	0	Carp_floured_or_breaded_baked_or_broiled_with_oil	Carp, floured or breaded, baked or broiled with oil	26105130.0
26105131	0	Carp_floured_or_breaded_baked_or_broiled_without_fat	Carp, floured or breaded, baked or broiled without fat	26105131.0
26105140	0	Carp_floured_or_breaded_fried_in_shortening	Carp, floured or breaded, fried in shortening	26105140.0
26105140	100867	Carp_floured_or_breaded_fried_in_oil	Carp, floured or breaded, fried in oil	26105140.100867
26105160	0	Carp_steamed_or_poached	Carp, steamed or poached	26105160.0
26105190	0	Carp_smoked	Carp, smoked	26105190.0
26107120	0	Catfish_baked_or_broiled_with_margarine	Catfish, baked or broiled, with margarine	26107120.0
26107120	202363	Catfish_baked_or_broiled_with_butter	Catfish, baked or broiled, with butter	26107120.202363
26107120	202879	Catfish_baked_or_broiled_with_oil	Catfish, baked or broiled, with oil	26107120.202879
26107120	203089	Catfish_baked_or_broiled_without_fat	Catfish, baked or broiled, without fat	26107120.203089
26107124	0	Catfish_baked_or_broiled_with_nonstick_spray	Catfish, baked or broiled, with nonstick spray	26107124.0
26107129	0	Fish_catfish_raw_fillet	Fish, catfish, raw, fillet	26107129.0
26107130	0	Catfish_floured_or_breaded_baked_or_broiled_with_oil	Catfish, floured or breaded, baked or broiled, with oil	26107130.0
26107131	0	Catfish_floured_or_breaded_baked_or_broiled_with_butter	Catfish, floured or breaded, baked or broiled, with butter	26107131.0
26107132	0	Catfish_floured_or_breaded_baked_or_broiled_with_margarine	Catfish, floured or breaded, baked or broiled, with margarine	26107132.0
26107133	0	Catfish_floured_or_breaded_baked_or_broiled_without_fat	Catfish, floured or breaded, baked or broiled, without fat	26107133.0
26107134	0	Catfish_floured_or_breaded_baked_or_broiled_with_nonstick_spray	Catfish, floured or breaded, baked or broiled, with nonstick spray	26107134.0
26107140	0	Catfish_floured_or_breaded_fried_in_shortening	Catfish, floured or breaded, fried in shortening	26107140.0
26107140	100387	Catfish_floured_or_breaded_fried_in_oil	Catfish, floured or breaded, fried in oil	26107140.100387
26107141	0	Catfish_floured_or_breaded_fried_in_butter	Catfish, floured or breaded, fried in butter	26107141.0
26107142	0	Catfish_floured_or_breaded_fried_in_margarine	Catfish, floured or breaded, fried in margarine	26107142.0
26107144	0	Catfish_floured_or_breaded_fried_with_nonstick_spray	Catfish, floured or breaded, fried with nonstick spray	26107144.0
26107150	201662	Catfish_battered_fried_in_oil	Catfish, battered, fried in oil	26107150.201662
26107160	0	Catfish_steamed_or_poached	Catfish, steamed or poached	26107160.0
26109120	0	Cod_baked_or_broiled_with_margarine	Cod, baked or broiled, with margarine	26109120.0
26109120	201039	Cod_baked_or_broiled_without_fat	Cod, baked or broiled, without fat	26109120.201039
26109120	201359	Cod_baked_or_broiled_with_oil	Cod, baked or broiled, with oil	26109120.201359
26109120	202670	Cod_baked_or_broiled_with_butter	Cod, baked or broiled, with butter	26109120.202670
26109124	0	Cod_baked_or_broiled_with_nonstick_spray	Cod, baked or broiled, with nonstick spray	26109124.0
26109128	0	Fish_cod_raw_Pacific_fillet	Fish, cod, raw, Pacific, fillet	26109128.0
26109129	0	Fish_cod_raw_Atlantic_fillet	Fish, cod, raw, Atlantic, fillet	26109129.0
26109130	0	Cod_floured_or_breaded_baked_or_broiled_with_margarine	Cod, floured or breaded, baked or broiled, with margarine	26109130.0
26109130	201574	Cod_floured_or_breaded_baked_or_broiled_without_fat	Cod, floured or breaded, baked or broiled, without fat	26109130.201574
26109131	0	Cod_floured_or_breaded_baked_or_broiled_with_butter	Cod, floured or breaded, baked or broiled, with butter	26109131.0
26109134	0	Cod_floured_or_breaded_baked_or_broiled_with_nonstick_spray	Cod, floured or breaded, baked or broiled, with nonstick spray	26109134.0
26109140	0	Cod_floured_or_breaded_fried_in_shortening	Cod, floured or breaded, fried in shortening	26109140.0
26109140	204165	Cod_floured_or_breaded_fried_in_oil	Cod, floured or breaded, fried in oil	26109140.204165
26109141	0	Cod_floured_or_breaded_fried_in_butter	Cod, floured or breaded, fried in butter	26109141.0
26109142	0	Cod_floured_or_breaded_fried_in_margarine	Cod, floured or breaded, fried in margarine	26109142.0
26109144	0	Cod_floured_or_breaded_fried_with_nonstick_spray	Cod, floured or breaded, fried with nonstick spray	26109144.0
26109150	101070	Cod_battered_fried_in_oil	Cod, battered, fried in oil	26109150.101070
26109160	0	Cod_steamed_or_poached	Cod, steamed or poached	26109160.0
26109170	0	Cod_dried_salted	Cod, dried, salted	26109170.0
26109180	0	Cod_dried_salted_salt_removed_in_water	Cod, dried, salted, salt removed in water	26109180.0
26109190	0	Cod_smoked	Cod, smoked	26109190.0
26111120	0	Croaker_sea_trout_spot_baked_or_broiled_with_margarine	Croaker, (sea trout, spot), baked or broiled with margarine	26111120.0
26111120	201441	Croaker_sea_trout_spot_baked_or_broiled_with_oil	Croaker, (sea trout, spot), baked or broiled with oil	26111120.201441
26111120	206032	Croaker_sea_trout_spot_baked_or_broiled_without_fat	Croaker, (sea trout, spot), baked or broiled without fat	26111120.206032
26111130	0	Croaker_sea_trout_spot_breaded_baked_with_margarine	Croaker, (sea trout, spot), breaded, baked with margarine	26111130.0
26111131	0	Croaker_sea_trout_spot_floured_or_breaded_baked_or_broiled_without_fat	Croaker, (sea trout, spot), floured or breaded, baked or broiled, without fat	26111131.0
26111140	0	Croaker_sea_trout_spot_floured_or_breaded_fried_in_shortening	Croaker, (sea trout, spot), floured or breaded, fried in shortening	26111140.0
26111140	100455	Croaker_sea_trout_spot_floured_or_breaded_fried_in_oil	Croaker, (sea trout, spot), floured or breaded, fried in oil	26111140.100455
26111160	0	Croaker_sea_trout_spot_steamed_or_poached	Croaker, (sea trout, spot), steamed or poached	26111160.0
26113110	206933	Eel_cooked_with_oil	Eel, cooked with oil	26113110.206933
26113160	0	Eel_steamed_or_poached	Eel, steamed or poached	26113160.0
26113190	0	Eel_smoked	Eel, smoked	26113190.0
26115009	0	Fish_flatfish_flounder_or_sole_raw_fillet	Fish, flatfish, (flounder or sole), raw, fillet	26115009.0
26115120	0	Flounder_baked_or_broiled_with_margarine	Flounder, baked or broiled with margarine	26115120.0
26115120	100464	Flounder_baked_or_broiled_without_fat	Flounder, baked or broiled without fat	26115120.100464
26115120	200995	Flounder_baked_or_broiled_with_oil	Flounder, baked or broiled with oil	26115120.200995
26115120	201381	Flounder_baked_or_broiled_with_butter	Flounder, baked or broiled with butter	26115120.201381
26115124	0	Flounder_baked_or_broiled_with_nonstick_spray	Flounder, baked or broiled, with nonstick spray	26115124.0
26115130	0	Flounder_floured_or_breaded_baked_or_broiled_with_margarine	Flounder, floured or breaded, baked or broiled, with margarine	26115130.0
26115130	202708	Flounder_floured_or_breaded_baked_or_broiled_without_fat	Flounder, floured or breaded, baked or broiled, without fat	26115130.202708
26115131	0	Flounder_floured_or_breaded_baked_or_broiled_with_butter	Flounder, floured or breaded, baked or broiled, with butter	26115131.0
26115134	0	Flounder_floured_or_breaded_baked_or_broiled_with_nonstick_spray	Flounder, floured or breaded, baked or broiled, with nonstick spray	26115134.0
26115140	0	Flounder_floured_or_breaded_fried_in_shortening	Flounder, floured or breaded, fried in shortening	26115140.0
26115140	100824	Flounder_floured_or_breaded_fried_in_oil	Flounder, floured or breaded, fried in oil	26115140.100824
26115141	0	Flounder_floured_or_breaded_fried_in_butter	Flounder, floured or breaded, fried in butter	26115141.0
26115142	0	Flounder_floured_or_breaded_fried_in_margarine	Flounder, floured or breaded, fried in margarine	26115142.0
26115144	0	Flounder_floured_or_breaded_fried_with_nonstick_spray	Flounder, floured or breaded, fried with nonstick spray	26115144.0
26115150	201594	Flounder_battered_fried_in_oil	Flounder, battered, fried in oil	26115150.201594
26115160	0	Flounder_steamed_or_poached	Flounder, steamed or poached	26115160.0
26115190	0	Flounder_smoked	Flounder, smoked	26115190.0
26117120	0	Haddock_pollock_scrod_monkfish_baked_or_broiled_with_margarine	Haddock, (pollock, scrod, monkfish), baked or broiled with margarine	26117120.0
26117120	100596	Haddock_pollock_scrod_monkfish_baked_or_broiled_without_fat	Haddock, (pollock, scrod, monkfish), baked or broiled without fat	26117120.100596
26117120	201554	Haddock_pollock_scrod_monkfish_baked_or_broiled_with_oil	Haddock, (pollock, scrod, monkfish), baked or broiled with oil	26117120.201554
26117120	201747	Haddock_pollock_scrod_monkfish_baked_or_broiled_with_butter	Haddock, (pollock, scrod, monkfish), baked or broiled with butter	26117120.201747
26117130	0	Haddock_pollock_scrod_monkfish_breaded_baked_with_margarine	Haddock, (pollock, scrod, monkfish), breaded, baked with margarine	26117130.0
26117130	202751	Haddock_pollock_scrod_monkfish_breaded_baked_without_fat	Haddock, (pollock, scrod, monkfish), breaded, baked without fat	26117130.202751
26117130	207117	Haddock_pollock_scrod_monkfish_breaded_baked_with_oil	Haddock, (pollock, scrod, monkfish), breaded, baked with oil	26117130.207117
26117140	0	Haddock_pollock_scrod_monkfish_floured_or_breaded_fried_in_shortening	Haddock, (pollock, scrod, monkfish), floured or breaded, fried in shortening	26117140.0
26117140	100866	Haddock_pollock_scrod_monkfish_floured_or_breaded_fried_in_oil	Haddock, (pollock, scrod, monkfish), floured or breaded, fried in oil	26117140.100866
26117160	0	Haddock_pollock_scrod_monkfish_steamed_or_poached	Haddock, (pollock, scrod, monkfish), steamed or poached	26117160.0
26117190	0	Haddock_pollock_scrod_monkfish_smoked	Haddock, (pollock, scrod, monkfish), smoked	26117190.0
26118020	0	Halibut_baked_or_broiled_with_oil	Halibut, baked or broiled, with oil	26118020.0
26118021	0	Halibut_baked_or_broiled_with_butter	Halibut, baked or broiled, with butter	26118021.0
26118022	0	Halibut_baked_or_broiled_with_margarine	Halibut, baked or broiled, with margarine	26118022.0
26118023	0	Halibut_baked_or_broiled_without_fat	Halibut, baked or broiled, without fat	26118023.0
26118024	0	Halibut_baked_or_broiled_with_nonstick_spray	Halibut, baked or broiled, with nonstick spray	26118024.0
26118030	0	Halibut_floured_or_breaded_baked_or_broiled_with_oil	Halibut, floured or breaded, baked or broiled, with oil	26118030.0
26118031	0	Halibut_floured_or_breaded_baked_or_broiled_with_butter	Halibut, floured or breaded, baked or broiled, with butter	26118031.0
26118032	0	Halibut_floured_or_breaded_baked_or_broiled_with_margarine	Halibut, floured or breaded, baked or broiled, with margarine	26118032.0
26118033	0	Halibut_floured_or_breaded_baked_or_broiled_without_fat	Halibut, floured or breaded, baked or broiled, without fat	26118033.0
26118034	0	Halibut_floured_or_breaded_baked_or_broiled_with_nonstick_spray	Halibut, floured or breaded, baked or broiled, with nonstick spray	26118034.0
26118040	0	Halibut_floured_or_breaded_fried_in_oil	Halibut, floured or breaded, fried in oil	26118040.0
26118041	0	Halibut_floured_or_breaded_fried_in_butter	Halibut, floured or breaded, fried in butter	26118041.0
26118042	0	Halibut_floured_or_breaded_fried_in_margarine	Halibut, floured or breaded, fried in margarine	26118042.0
26118044	0	Halibut_floured_or_breaded_fried_with_cooking_spray	Halibut, floured or breaded, fried with cooking spray	26118044.0
26118050	0	Halibut_steamed_or_poached	Halibut, steamed or poached	26118050.0
26118060	0	Halibut_smoked	Halibut, smoked	26118060.0
26119100	0	Herring_raw	Herring, raw	26119100.0
26119120	0	Herring_baked_or_broiled_with_margarine	Herring, baked or broiled with margarine	26119120.0
26119120	201099	Herring_baked_or_broiled_with_oil	Herring, baked or broiled with oil	26119120.201099
26119120	202972	Herring_baked_or_broiled_without_fat	Herring, baked or broiled without fat	26119120.202972
26119130	0	Herring_floured_or_breaded_baked_or_broiled_with_oil	Herring, floured or breaded, baked or broiled, with oil	26119130.0
26119131	0	Herring_floured_or_breaded_baked_or_broiled_without_fat	Herring, floured or breaded, baked or broiled, without fat	26119131.0
26119140	205525	Herring_floured_or_breaded_fried_in_oil	Herring, floured or breaded, fried in oil	26119140.205525
26119160	0	Herring_pickled_in_cream_sauce	Herring, pickled, in cream sauce	26119160.0
26119170	0	Herring_dried_salted	Herring, dried, salted	26119170.0
26119180	0	Herring_pickled	Herring, pickled	26119180.0
26119190	0	Herring_smoked_kippered	Herring, smoked, kippered	26119190.0
26121100	0	Mackerel_raw	Mackerel, raw	26121100.0
26121109	0	Fish_mackerel_raw_Atlantic_fillet	Fish, mackerel, raw, Atlantic, fillet	26121109.0
26121120	0	Mackerel_baked_or_broiled_with_oil	Mackerel, baked or broiled, with oil	26121120.0
26121120	206794	Mackerel_baked_or_broiled_without_fat	Mackerel, baked or broiled, without fat	26121120.206794
26121131	0	Mackerel_floured_or_breaded_baked_or_broiled_with_oil	Mackerel, floured or breaded, baked or broiled, with oil	26121131.0
26121132	0	Mackerel_floured_or_breaded_baked_or_broiled_without_fat	Mackerel, floured or breaded, baked or broiled, without fat	26121132.0
26121140	204690	Mackerel_floured_or_breaded_fried_in_oil	Mackerel, floured or breaded, fried in oil	26121140.204690
26121180	0	Mackerel_canned	Mackerel, canned	26121180.0
26121190	0	Mackerel_smoked	Mackerel, smoked	26121190.0
26123120	0	Mullet_baked_or_broiled_with_margarine	Mullet, baked or broiled with margarine	26123120.0
26123121	0	Mullet_baked_or_broiled_without_fat	Mullet, baked or broiled, without fat	26123121.0
26123130	0	Mullet_floured_or_breaded_baked_or_broiled_with_oil	Mullet, floured or breaded, baked or broiled, with oil	26123130.0
26123131	0	Mullet_floured_or_breaded_baked_or_broiled_without_fat	Mullet, floured or breaded, baked or broiled, without fat	26123131.0
26123140	100501	Mullet_floured_or_breaded_fried_in_oil	Mullet, floured or breaded, fried in oil	26123140.100501
26123160	0	Mullet_steamed_or_poached	Mullet, steamed or poached	26123160.0
26125120	0	Ocean_perch_rockfish_orange_roughy_baked_or_broiled_with_margarine	Ocean perch, (rockfish, orange roughy), baked or broiled with margarine	26125120.0
26125120	101284	Ocean_perch_rockfish_orange_roughy_baked_or_broiled_with_oil	Ocean perch, (rockfish, orange roughy), baked or broiled with oil	26125120.101284
26125120	202334	Ocean_perch_rockfish_orange_roughy_baked_or_broiled_without_fat	Ocean perch, (rockfish, orange roughy), baked or broiled without fat	26125120.202334
26125130	0	Ocean_perch_rockfish_orange_roughy_floured_or_breaded_baked_with_margarine	Ocean perch, (rockfish, orange roughy), floured or breaded, baked with margarine	26125130.0
26125131	0	Ocean_perch_rockfish_orange_roughy_floured_or_breaded_baked_or_broiled_without_fat	Ocean perch, (rockfish, orange roughy), floured or breaded, baked or broiled, without fat	26125131.0
26125140	0	Ocean_perch_rockfish_orange_roughy_floured_or_breaded_fried_in_shortening	Ocean perch, (rockfish, orange roughy), floured or breaded, fried in shortening	26125140.0
26125140	100975	Ocean_perch_rockfish_orange_roughy_floured_or_breaded_fried_in_oil	Ocean perch, (rockfish, orange roughy), floured or breaded, fried in oil	26125140.100975
26125160	0	Ocean_perch_rockfish_orange_roughy_steamed_or_poached	Ocean perch, (rockfish, orange roughy), steamed or poached	26125160.0
26127120	0	Perch_baked_or_broiled_with_margarine	Perch, baked or broiled with margarine	26127120.0
26127120	200860	Perch_baked_or_broiled_with_oil	Perch, baked or broiled with oil	26127120.200860
26127120	203332	Perch_baked_or_broiled_without_fat	Perch, baked or broiled without fat	26127120.203332
26127120	203610	Perch_baked_or_broiled_with_butter	Perch, baked or broiled with butter	26127120.203610
26127124	0	Perch_baked_or_broiled_with_nonstick_spray	Perch, baked or broiled, with nonstick spray	26127124.0
26127130	0	Perch_floured_or_breaded_baked_with_margarine	Perch, floured or breaded, baked with margarine	26127130.0
26127130	100568	Perch_floured_or_breaded_baked_with_oil	Perch, floured or breaded, baked with oil	26127130.100568
26127130	203003	Perch_floured_or_breaded_baked_without_fat	Perch, floured or breaded, baked without fat	26127130.203003
26127131	0	Perch_floured_or_breaded_baked_or_broiled_with_butter	Perch, floured or breaded, baked or broiled, with butter	26127131.0
26127134	0	Perch_floured_or_breaded_baked_or_broiled_with_nonstick_spray	Perch, floured or breaded, baked or broiled, with nonstick spray	26127134.0
26127140	100350	Perch_floured_or_breaded_fried_in_oil	Perch, floured or breaded, fried in oil	26127140.100350
26127141	0	Perch_floured_or_breaded_fried_in_butter	Perch, floured or breaded, fried in butter	26127141.0
26127142	0	Perch_floured_or_breaded_fried_in_margarine	Perch, floured or breaded, fried in margarine	26127142.0
26127144	0	Perch_floured_or_breaded_fried_with_nonstick_spray	Perch, floured or breaded, fried with nonstick spray	26127144.0
26127150	204693	Perch_battered_fried_in_oil	Perch, battered, fried in oil	26127150.204693
26127160	0	Perch_steamed_or_poached	Perch, steamed or poached	26127160.0
26129120	0	Pike_baked_or_broiled_with_margarine	Pike, baked or broiled with margarine	26129120.0
26129120	201172	Pike_baked_or_broiled_with_oil	Pike, baked or broiled with oil	26129120.201172
26129121	0	Pike_baked_or_broiled_without_fat	Pike, baked or broiled, without fat	26129121.0
26129130	0	Pike_floured_or_breaded_baked_or_broiled_with_oil	Pike, floured or breaded, baked or broiled, with oil	26129130.0
26129131	0	Pike_floured_or_breaded_baked_or_broiled_without_fat	Pike, floured or breaded, baked or broiled, without fat	26129131.0
26129150	0	Pike_battered_fried_in_oil	Pike, battered, fried in oil	26129150.0
26129160	0	Pike_steamed_or_poached	Pike, steamed or poached	26129160.0
26131100	0	Pompano_raw	Pompano, raw	26131100.0
26131120	0	Pompano_bluefish_mahi_mahi_yellowtail_baked_or_broiled_with_margarine	Pompano, (bluefish, mahi mahi, yellowtail), baked or broiled with margarine	26131120.0
26131120	202069	Pompano_bluefish_mahi_mahi_yellowtail_baked_or_broiled_with_butter	Pompano, (bluefish, mahi mahi, yellowtail), baked or broiled with butter	26131120.202069
26131120	203073	Pompano_bluefish_mahi_mahi_yellowtail_baked_or_broiled_with_oil	Pompano, (bluefish, mahi mahi, yellowtail), baked or broiled with oil	26131120.203073
26131120	205284	Pompano_bluefish_mahi_mahi_yellowtail_baked_or_broiled_without_fat	Pompano, (bluefish, mahi mahi, yellowtail), baked or broiled without fat	26131120.205284
26131130	0	Pompano_bluefish_mahi_mahi_yellowtail_floured_or_breaded_baked_or_broiled_with_oil	Pompano, (bluefish, mahi mahi, yellowtail), floured or breaded, baked or broiled, with oil	26131130.0
26131131	0	Pompano_bluefish_mahi_mahi_yellowtail_floured_or_breaded_baked_or_broiled_without_fat	Pompano, (bluefish, mahi mahi, yellowtail), floured or breaded, baked or broiled, without fat	26131131.0
26131140	204139	Pompano_bluefish_mahi_mahi_yellowtail_floured_or_breaded_fried_in_oil	Pompano, (bluefish, mahi mahi, yellowtail), floured or breaded, fried in oil	26131140.204139
26131160	0	Pompano_bluefish_mahi_mahi_yellowtail_steamed_or_poached	Pompano, (bluefish, mahi mahi, yellowtail), steamed or poached	26131160.0
26131190	0	Pompano_bluefish_mahi_mahi_yellowtail_smoked	Pompano, (bluefish, mahi mahi, yellowtail), smoked	26131190.0
26133120	0	Porgy_snapper_baked_or_broiled_with_margarine	Porgy, (snapper), baked or broiled with margarine	26133120.0
26133120	100976	Porgy_snapper_baked_or_broiled_with_oil	Porgy, (snapper), baked or broiled with oil	26133120.100976
26133120	202974	Porgy_snapper_baked_or_broiled_without_fat	Porgy, (snapper), baked or broiled without fat	26133120.202974
26133130	0	Porgy_snapper_floured_or_breaded_baked_or_broiled_with_margarine	Porgy, (snapper), floured or breaded, baked or broiled, with margarine	26133130.0
26133131	0	Porgy_snapper_floured_or_breaded_baked_or_broiled_without_fat	Porgy, (snapper), floured or breaded, baked or broiled, without fat	26133131.0
26133140	100567	Porgy_snapper_floured_or_breaded_fried_in_oil	Porgy, (snapper), floured or breaded, fried in oil	26133140.100567
26133150	0	Porgy_snapper_battered_fried_in_oil	Porgy, (snapper), battered, fried in oil	26133150.0
26133160	0	Porgy_snapper_steamed_or_poached	Porgy, (snapper), steamed or poached	26133160.0
26135120	0	Ray_baked_or_broiled_with_margarine	Ray, baked or broiled with margarine	26135120.0
26135160	0	Ray_steamed_or_poached	Ray, steamed or poached	26135160.0
26137100	0	Salmon_raw_sashimi_	Salmon, raw (sashimi)	26137100.0
26137108	0	Fish_salmon_raw_Pacific_wild	Fish, salmon, raw, Pacific, wild	26137108.0
26137109	0	Fish_salmon_raw_Atlantic_farmed	Fish, salmon, raw, Atlantic, farmed	26137109.0
26137120	0	Salmon_baked_or_broiled_with_margarine	Salmon, baked or broiled, with margarine	26137120.0
26137120	200202	Salmon_baked_or_broiled_with_oil	Salmon, baked or broiled, with oil	26137120.200202
26137120	200265	Salmon_baked_or_broiled_with_butter	Salmon, baked or broiled, with butter	26137120.200265
26137120	201437	Salmon_baked_or_broiled_without_fat	Salmon, baked or broiled, without fat	26137120.201437
26137124	0	Salmon_baked_or_broiled_with_nonstick_spray	Salmon, baked or broiled, with nonstick spray	26137124.0
26137130	0	Salmon_floured_or_breaded_baked_or_broiled_with_oil	Salmon, floured or breaded, baked or broiled, with oil	26137130.0
26137131	0	Salmon_floured_or_breaded_baked_or_broiled_with_butter	Salmon, floured or breaded, baked or broiled, with butter	26137131.0
26137132	0	Salmon_floured_or_breaded_baked_or_broiled_with_margarine	Salmon, floured or breaded, baked or broiled, with margarine	26137132.0
26137133	0	Salmon_floured_or_breaded_baked_or_broiled_without_fat	Salmon, floured or breaded, baked or broiled, without fat	26137133.0
26137134	0	Salmon_floured_or_breaded_baked_or_broiled_with_nonstick_spray	Salmon, floured or breaded, baked or broiled, with nonstick spray	26137134.0
26137140	0	Salmon_floured_or_breaded_fried_in_shortening	Salmon, floured or breaded, fried in shortening	26137140.0
26137140	100833	Salmon_floured_or_breaded_fried_in_oil	Salmon, floured or breaded, fried in oil	26137140.100833
26137141	0	Salmon_floured_or_breaded_fried_in_butter	Salmon, floured or breaded, fried in butter	26137141.0
26137142	0	Salmon_floured_or_breaded_fried_in_margarine	Salmon, floured or breaded, fried in margarine	26137142.0
26137144	0	Salmon_floured_or_breaded_fried_with_nonstick_spray	Salmon, floured or breaded, fried with nonstick spray	26137144.0
26137160	0	Salmon_steamed_or_poached	Salmon, steamed or poached	26137160.0
26137170	0	Salmon_dried	Salmon, dried	26137170.0
26137180	0	Salmon_canned	Salmon, canned	26137180.0
26137190	0	Salmon_smoked	Salmon, smoked	26137190.0
26139110	0	Sardines_cooked	Sardines, cooked	26139110.0
26139170	0	Sardines_dried	Sardines, dried	26139170.0
26139180	0	Sardines_canned_in_oil	Sardines, canned in oil	26139180.0
26139190	0	Sardines_skinless_boneless_packed_in_water	Sardines, skinless, boneless, packed in water	26139190.0
26141120	0	Sea_bass_baked_or_broiled_with_margarine	Sea bass, baked or broiled with margarine	26141120.0
26141120	200874	Sea_bass_baked_or_broiled_with_butter	Sea bass, baked or broiled with butter	26141120.200874
26141120	201674	Sea_bass_baked_or_broiled_with_oil	Sea bass, baked or broiled with oil	26141120.201674
26141120	203326	Sea_bass_baked_or_broiled_without_fat	Sea bass, baked or broiled without fat	26141120.203326
26141130	0	Sea_bass_floured_or_breaded_baked_or_broiled_with_oil	Sea bass, floured or breaded, baked or broiled, with oil	26141130.0
26141131	0	Sea_bass_floured_or_breaded_baked_or_broiled_without_fat	Sea bass, floured or breaded, baked or broiled, without fat	26141131.0
26141160	0	Sea_bass_steamed_or_poached	Sea bass, steamed or poached	26141160.0
26141180	0	Sea_bass_pickled	Sea bass, pickled	26141180.0
26143120	0	Shark_baked_or_broiled_with_margarine	Shark, baked or broiled with margarine	26143120.0
26143120	207032	Shark_baked_or_broiled_with_oil	Shark, baked or broiled with oil	26143120.207032
26143130	0	Shark_floured_or_breaded_baked_or_broiled_with_oil	Shark, floured or breaded, baked or broiled, with oil	26143130.0
26143131	0	Shark_floured_or_breaded_baked_or_broiled_without_fat	Shark, floured or breaded, baked or broiled, without fat	26143131.0
26143160	0	Shark_steamed_or_poached	Shark, steamed or poached	26143160.0
26147120	0	Sturgeon_baked_or_broiled_with_oil	Sturgeon, baked or broiled, with oil	26147120.0
26147130	0	Sturgeon_steamed	Sturgeon, steamed	26147130.0
26147190	0	Sturgeon_smoked	Sturgeon, smoked	26147190.0
26149120	0	Swordfish_baked_or_broiled_with_margarine	Swordfish, baked or broiled, with margarine	26149120.0
26149120	201748	Swordfish_baked_or_broiled_with_butter	Swordfish, baked or broiled, with butter	26149120.201748
26149120	203287	Swordfish_baked_or_broiled_with_oil	Swordfish, baked or broiled, with oil	26149120.203287
26149120	205305	Swordfish_baked_or_broiled_without_fat	Swordfish, baked or broiled, without fat	26149120.205305
26149129	0	Fish_swordfish_raw_steak	Fish, swordfish, raw, steak	26149129.0
26149130	0	Swordfish_floured_or_breaded_baked_or_broiled_with_oil	Swordfish, floured or breaded, baked or broiled, with oil	26149130.0
26149131	0	Swordfish_floured_or_breaded_baked_or_broiled_without_fat	Swordfish, floured or breaded, baked or broiled, without fat	26149131.0
26149160	0	Swordfish_steamed_or_poached	Swordfish, steamed or poached	26149160.0
26151120	0	Trout_baked_or_broiled_with_margarine	Trout, baked or broiled, with margarine	26151120.0
26151120	100792	Trout_baked_or_broiled_with_butter	Trout, baked or broiled, with butter	26151120.100792
26151120	202836	Trout_baked_or_broiled_without_fat	Trout, baked or broiled, without fat	26151120.202836
26151120	205645	Trout_baked_or_broiled_with_oil	Trout, baked or broiled, with oil	26151120.205645
26151124	0	Trout_baked_or_broiled_with_nonstick_spray	Trout, baked or broiled, with nonstick spray	26151124.0
26151130	0	Trout_floured_or_breaded_baked_or_broiled_with_oil	Trout, floured or breaded, baked or broiled, with oil	26151130.0
26151131	0	Trout_floured_or_breaded_baked_or_broiled_with_butter	Trout, floured or breaded, baked or broiled, with butter	26151131.0
26151132	0	Trout_floured_or_breaded_baked_or_broiled_with_margarine	Trout, floured or breaded, baked or broiled, with margarine	26151132.0
26151133	0	Trout_floured_or_breaded_baked_or_broiled_without_fat	Trout, floured or breaded, baked or broiled, without fat	26151133.0
26151134	0	Trout_floured_or_breaded_baked_or_broiled_with_nonstick_spray	Trout, floured or breaded, baked or broiled, with nonstick spray	26151134.0
26151140	0	Trout_floured_or_breaded_fried_in_shortening	Trout, floured or breaded, fried in shortening	26151140.0
26151140	101083	Trout_floured_or_breaded_fried_in_oil	Trout, floured or breaded, fried in oil	26151140.101083
26151141	0	Trout_floured_or_breaded_fried_in_butter	Trout, floured or breaded, fried in butter	26151141.0
26151142	0	Trout_floured_or_breaded_fried_in_margarine	Trout, floured or breaded, fried in margarine	26151142.0
26151144	0	Trout_floured_or_breaded_fried_with_cooking_spray	Trout, floured or breaded, fried with cooking spray	26151144.0
26151150	202740	Trout_battered_fried_in_oil	Trout, battered, fried in oil	26151150.202740
26151160	0	Trout_steamed_or_poached	Trout, steamed or poached	26151160.0
26151190	0	Trout_smoked	Trout, smoked	26151190.0
26153100	0	Tuna_fresh_raw	Tuna, fresh, raw	26153100.0
26153120	0	Tuna_fresh_baked_or_broiled_with_margarine	Tuna, fresh, baked or broiled with margarine	26153120.0
26153120	202429	Tuna_fresh_baked_or_broiled_without_fat	Tuna, fresh, baked or broiled without fat	26153120.202429
26153120	203213	Tuna_fresh_baked_or_broiled_with_oil	Tuna, fresh, baked or broiled with oil	26153120.203213
26153120	206971	Tuna_fresh_baked_or_broiled_with_butter	Tuna, fresh, baked or broiled with butter	26153120.206971
26153131	0	Tuna_fresh_floured_or_breaded_baked_or_broiled_without_fat	Tuna, fresh, floured or breaded, baked or broiled, without fat	26153131.0
26153140	0	Tuna_fresh_floured_or_breaded_fried_in_shortening	Tuna, fresh, floured or breaded, fried in shortening	26153140.0
26153140	206404	Tuna_fresh_floured_or_breaded_fried_in_oil	Tuna, fresh, floured or breaded, fried in oil	26153140.206404
26153160	0	Tuna_fresh_steamed_or_poached	Tuna, fresh, steamed or poached	26153160.0
26153170	0	Tuna_fresh_dried	Tuna, fresh, dried	26153170.0
26153190	0	Tuna_fresh_smoked	Tuna, fresh, smoked	26153190.0
26155180	0	Tuna_canned_oil_packed	Tuna, canned, oil packed	26155180.0
26155190	0	Tuna_canned_water_packed	Tuna, canned, water packed	26155190.0
26157120	0	Whiting_baked_or_broiled_with_margarine	Whiting, baked or broiled, with margarine	26157120.0
26157120	201895	Whiting_baked_or_broiled_without_fat	Whiting, baked or broiled, without fat	26157120.201895
26157120	202454	Whiting_baked_or_broiled_with_butter	Whiting, baked or broiled, with butter	26157120.202454
26157120	203222	Whiting_baked_or_broiled_with_oil	Whiting, baked or broiled, with oil	26157120.203222
26157124	0	Whiting_baked_or_broiled_with_nonstick_spray	Whiting, baked or broiled, with nonstick spray	26157124.0
26157130	0	Whiting_floured_or_breaded_baked_with_margarine	Whiting, floured or breaded, baked with margarine	26157130.0
26157130	206298	Whiting_floured_or_breaded_baked_with_oil	Whiting, floured or breaded, baked with oil	26157130.206298
26157130	206340	Whiting_floured_or_breaded_baked_without_fat	Whiting, floured or breaded, baked without fat	26157130.206340
26157131	0	Whiting_floured_or_breaded_baked_or_broiled_with_butter	Whiting, floured or breaded, baked or broiled, with butter	26157131.0
26157134	0	Whiting_floured_or_breaded_baked_or_broiled_with_nonstick_spray	Whiting, floured or breaded, baked or broiled, with nonstick spray	26157134.0
26157140	0	Whiting_floured_or_breaded_fried_in_shortening	Whiting, floured or breaded, fried in shortening	26157140.0
26157140	100494	Whiting_floured_or_breaded_fried_in_oil	Whiting, floured or breaded, fried in oil	26157140.100494
26157144	0	Whiting_floured_or_breaded_fried_with_nonstick_spray	Whiting, floured or breaded, fried with nonstick spray	26157144.0
26157150	101295	Whiting_battered_fried_in_oil	Whiting, battered, fried in oil	26157150.101295
26157160	0	Whiting_steamed_or_poached	Whiting, steamed or poached	26157160.0
26158010	0	Tilapia_baked_or_broiled_with_margarine	Tilapia, baked or broiled, with margarine	26158010.0
26158010	206952	Tilapia_baked_or_broiled_without_fat	Tilapia, baked or broiled, without fat	26158010.206952
26158010	206959	Tilapia_baked_or_broiled_with_oil	Tilapia, baked or broiled, with oil	26158010.206959
26158010	206986	Tilapia_baked_or_broiled_with_butter	Tilapia, baked or broiled, with butter	26158010.206986
26158014	0	Tilapia_baked_or_broiled_with_nonstick_spray	Tilapia, baked or broiled, with nonstick spray	26158014.0
26158019	0	Fish_tilapia_raw_fillet	Fish, tilapia, raw, fillet	26158019.0
26158020	207002	Tilapia_floured_or_breaded_baked_or_broiled_with_oil	Tilapia, floured or breaded, baked or broiled, with oil	26158020.207002
26158020	207013	Tilapia_floured_or_breaded_baked_or_broiled_without_fat	Tilapia, floured or breaded, baked or broiled, without fat	26158020.207013
26158021	0	Tilapia_floured_or_breaded_baked_or_broiled_with_butter	Tilapia, floured or breaded, baked or broiled, with butter	26158021.0
26158022	0	Tilapia_floured_or_breaded_baked_or_broiled_with_margarine	Tilapia, floured or breaded, baked or broiled, with margarine	26158022.0
26158024	0	Tilapia_floured_or_breaded_baked_or_broiled_with_nonstick_spray	Tilapia, floured or breaded, baked or broiled, with nonstick spray	26158024.0
26158030	0	Tilapia_floured_or_breaded_fried_in_shortening	Tilapia, floured or breaded, fried in shortening	26158030.0
26158030	101355	Tilapia_floured_or_breaded_fried_in_oil	Tilapia, floured or breaded, fried in oil	26158030.101355
26158031	0	Tilapia_floured_or_breaded_fried_in_butter	Tilapia, floured or breaded, fried in butter	26158031.0
26158034	0	Tilapia_floured_or_breaded_fried_with_nonstick_cooking_spray	Tilapia, floured or breaded, fried with nonstick cooking spray	26158034.0
26158050	0	Tilapia_steamed_or_poached	Tilapia, steamed or poached	26158050.0
26203160	0	Frog_legs_steamed	Frog legs, steamed	26203160.0
26205160	0	Octopus_steamed	Octopus, steamed	26205160.0
26205170	0	Octopus_dried	Octopus, dried	26205170.0
26205180	0	Octopus_dried_boiled	Octopus, dried, boiled	26205180.0
26205190	0	Octopus_smoked	Octopus, smoked	26205190.0
26207110	0	Roe_shad_cooked_with_margarine	Roe, shad, cooked with margarine	26207110.0
26209100	0	Roe_herring	Roe, herring	26209100.0
26211100	0	Roe_sturgeon	Roe, sturgeon	26211100.0
26213100	0	Squid_calimari_raw	Squid, (calimari), raw	26213100.0
26213120	0	Squid_calimari_baked_or_broiled_with_margarine	Squid, (calimari), baked or broiled, with margarine	26213120.0
26213120	202157	Squid_calimari_baked_or_broiled_with_oil	Squid, (calimari), baked or broiled, with oil	26213120.202157
26213121	0	Squid_calimari_baked_or_broiled_without_fat	Squid, (calimari), baked or broiled, without fat	26213121.0
26213130	0	Squid_calimari_breaded_baked_or_broiled_with_oil	Squid, (calimari), breaded, baked or broiled, with oil	26213130.0
26213131	0	Squid_calimari_breaded_baked_or_broiled_without_fat	Squid, (calimari), breaded, baked or broiled, without fat	26213131.0
26213140	0	Squid_calimari_breaded_fried_in_shortening	Squid, (calimari), breaded, fried in shortening	26213140.0
26213140	205480	Squid_calimari_breaded_fried_in_oil	Squid, (calimari), breaded, fried in oil	26213140.205480
26213160	0	Squid_calimari_steamed_or_boiled	Squid, (calimari), steamed or boiled	26213160.0
26213180	0	Squid_calimari_pickled	Squid, (calimari), pickled	26213180.0
26301160	0	Abalone_steamed_or_poached	Abalone, steamed or poached	26301160.0
26303100	0	Clams_raw	Clams, raw	26303100.0
26303109	0	Clams_raw_to_be_cooked	Clams, raw, to be cooked	26303109.0
26303120	0	Clams_baked_or_broiled_with_margarine	Clams, baked or broiled with margarine	26303120.0
26303121	0	Clams_baked_or_broiled_without_fat	Clams, baked or broiled, without fat	26303121.0
26303130	0	Clams_floured_or_breaded_baked_or_broiled_with_oil	Clams, floured or breaded, baked or broiled, with oil	26303130.0
26303131	0	Clams_floured_or_breaded_baked_or_broiled_without_fat	Clams, floured or breaded, baked or broiled, without fat	26303131.0
26303140	0	Clams_floured_or_breaded_fried_in_shortening	Clams, floured or breaded, fried in shortening	26303140.0
26303140	100977	Clams_floured_or_breaded_fried_in_oil	Clams, floured or breaded, fried in oil	26303140.100977
26303150	0	Clams_battered_fried_in_shortening	Clams, battered, fried in shortening	26303150.0
26303160	0	Clams_steamed_or_boiled	Clams, steamed or boiled	26303160.0
26303180	0	Clams_canned	Clams, canned	26303180.0
26303190	0	Clams_smoked_in_oil	Clams, smoked, in oil	26303190.0
26305120	0	Crab_baked_or_broiled_with_margarine	Crab, baked or broiled, with margarine	26305120.0
26305121	0	Crab_baked_or_broiled_without_fat	Crab, baked or broiled, without fat	26305121.0
26305128	0	Crab_raw_blue	Crab, raw, blue	26305128.0
26305129	0	Crab_raw_Alaska_king	Crab, raw, Alaska king	26305129.0
26305131	0	Crab_floured_or_breaded_baked_or_broiled_without_fat	Crab, floured or breaded, baked or broiled, without fat	26305131.0
26305160	0	Crab_hard_shell_steamed	Crab, hard shell, steamed	26305160.0
26305180	0	Crab_canned	Crab, canned	26305180.0
26307140	0	Crab_soft_shell_floured_or_breaded_fried_in_shortening	Crab, soft shell, floured or breaded, fried in shortening	26307140.0
26309140	0	Crayfish_floured_or_breaded_fried_in_shortening	Crayfish, floured or breaded, fried in shortening	26309140.0
26309160	0	Crayfish_boiled_or_steamed	Crayfish, boiled or steamed	26309160.0
26311120	0	Lobster_baked_broiled_or_grilled_with_butter	Lobster, baked, broiled, or grilled, with butter	26311120.0
26311120	205553	Lobster_baked_broiled_or_grilled_without_fat	Lobster, baked, broiled, or grilled, without fat	26311120.205553
26311120	206139	Lobster_baked_broiled_or_grilled_with_margarine	Lobster, baked, broiled, or grilled, with margarine	26311120.206139
26311129	0	Lobster_raw	Lobster, raw	26311129.0
26311140	0	Lobster_floured_or_breaded_fried	Lobster, floured or breaded, fried	26311140.0
26311160	0	Lobster_steamed_or_boiled	Lobster, steamed or boiled	26311160.0
26311170	0	Lobster_floured_or_breaded_baked_or_broiled_with_oil	Lobster, floured or breaded, baked or broiled, with oil	26311170.0
26311171	0	Lobster_floured_or_breaded_baked_or_broiled_without_fat	Lobster, floured or breaded, baked or broiled, without fat	26311171.0
26311180	0	Lobster_canned	Lobster, canned	26311180.0
26313100	0	Mussels_raw	Mussels, raw	26313100.0
26313160	0	Mussels_steamed_or_poached	Mussels, steamed or poached	26313160.0
26315100	0	Oysters_raw	Oysters, raw	26315100.0
26315109	0	Oysters_raw_to_be_cooked	Oysters, raw, to be cooked	26315109.0
26315120	0	Oysters_baked_or_broiled_with_margarine	Oysters, baked or broiled, with margarine	26315120.0
26315120	206555	Oysters_baked_or_broiled_with_butter	Oysters, baked or broiled, with butter	26315120.206555
26315120	206569	Oysters_baked_or_broiled_without_fat	Oysters, baked or broiled, without fat	26315120.206569
26315120	206849	Oysters_baked_or_broiled_with_vegetable_oil	Oysters, baked or broiled, with vegetable oil	26315120.206849
26315130	0	Oysters_steamed	Oysters, steamed	26315130.0
26315140	0	Oysters_floured_or_breaded_fried_in_shortening	Oysters, floured or breaded, fried in shortening	26315140.0
26315140	205934	Oysters_floured_or_breaded_fried_in_oil	Oysters, floured or breaded, fried in oil	26315140.205934
26315150	0	Oysters_battered_fried_in_shortening	Oysters, battered, fried in shortening	26315150.0
26315150	206103	Oysters_battered_fried_in_oil	Oysters, battered, fried in oil	26315150.206103
26315161	0	Oysters_floured_or_breaded_baked_or_broiled_without_fat	Oysters, floured or breaded, baked or broiled, without fat	26315161.0
26315180	0	Oysters_canned	Oysters, canned	26315180.0
26315190	0	Oysters_smoked	Oysters, smoked	26315190.0
26317120	0	Scallops_baked_broiled_or_grilled_with_margarine	Scallops, baked, broiled, or grilled, with margarine	26317120.0
26317120	200497	Scallops_baked_broiled_or_grilled_with_oil	Scallops, baked, broiled, or grilled, with oil	26317120.200497
26317120	200876	Scallops_baked_broiled_or_grilled_with_butter	Scallops, baked, broiled, or grilled, with butter	26317120.200876
26317120	202359	Scallops_baked_broiled_or_grilled_without_fat	Scallops, baked, broiled, or grilled, without fat	26317120.202359
26317129	0	Scallops_raw	Scallops, raw	26317129.0
26317140	0	Scallops_floured_or_breaded_fried_in_shortening	Scallops, floured or breaded, fried in shortening	26317140.0
26317140	205632	Scallops_floured_or_breaded_fried_in_oil	Scallops, floured or breaded, fried in oil	26317140.205632
26317150	0	Scallops_battered_fried_in_shortening	Scallops, battered, fried in shortening	26317150.0
26317150	205626	Scallops_battered_fried_in_oil	Scallops, battered, fried in oil	26317150.205626
26317160	0	Scallops_floured_or_breaded_baked_or_broiled_with_oil	Scallops, floured or breaded, baked or broiled, with oil	26317160.0
26317161	0	Scallops_floured_or_breaded_baked_or_broiled_without_fat	Scallops, floured or breaded, baked or broiled, without fat	26317161.0
26319120	0	Shrimp_baked_broiled_or_grilled_with_margarine	Shrimp, baked, broiled, or grilled, with margarine	26319120.0
26319120	200498	Shrimp_baked_broiled_or_grilled_with_vegetable_oil	Shrimp, baked, broiled, or grilled, with vegetable oil	26319120.200498
26319120	200875	Shrimp_baked_broiled_or_grilled_with_butter	Shrimp, baked, broiled, or grilled, with butter	26319120.200875
26319120	202863	Shrimp_baked_broiled_or_grilled_without_fat	Shrimp, baked, broiled, or grilled, without fat	26319120.202863
26319124	0	Shrimp_baked_or_broiled_with_nonstick_spray	Shrimp, baked or broiled, with nonstick spray	26319124.0
26319129	0	Shrimp_raw	Shrimp, raw	26319129.0
26319130	0	Shrimp_steamed_or_boiled	Shrimp, steamed or boiled	26319130.0
26319140	0	Shrimp_tempura	Shrimp, tempura	26319140.0
26319140	201330	Shrimp_floured_breaded_or_battered_fried_in_oil	Shrimp, floured, breaded, or battered, fried in oil	26319140.201330
26319140	205530	Shrimp_floured_breaded_or_battered_fried_in_margarine	Shrimp, floured, breaded, or battered, fried in margarine	26319140.205530
26319140	206736	Shrimp_floured_breaded_or_battered_fried_in_butter	Shrimp, floured, breaded, or battered, fried in butter	26319140.206736
26319144	0	Shrimp_floured_breaded_or_battered_fried_with_cooking_spray	Shrimp, floured, breaded, or battered, fried with cooking spray	26319144.0
26319145	0	Shrimp_floured_breaded_or_battered_fried_fast_food_restaurant	Shrimp, floured, breaded, or battered, fried, fast food/restaurant	26319145.0
26319160	0	Shrimp_floured_breaded_or_battered_baked_or_broiled_with_oil	Shrimp, floured, breaded, or battered, baked or broiled, with oil	26319160.0
26319161	0	Shrimp_floured_breaded_or_battered_baked_or_broiled_with_butter	Shrimp, floured, breaded, or battered, baked or broiled, with butter	26319161.0
26319162	0	Shrimp_floured_breaded_or_battered_baked_or_broiled_with_margarine	Shrimp, floured, breaded, or battered, baked or broiled, with margarine	26319162.0
26319163	0	Shrimp_floured_breaded_or_battered_baked_or_broiled_without_fat	Shrimp, floured, breaded, or battered, baked or broiled, without fat	26319163.0
26319164	0	Shrimp_floured_breaded_or_battered_baked_or_broiled_with_nonstick_spray	Shrimp, floured, breaded, or battered, baked or broiled, with nonstick spray	26319164.0
26319170	0	Shrimp_dried	Shrimp, dried	26319170.0
26319180	0	Shrimp_canned	Shrimp, canned	26319180.0
26321110	0	Snails_cooked_with_butter	Snails, cooked with butter	26321110.0
26321110	206534	Snails_cooked_with_vegetable_oil	Snails, cooked with vegetable oil	26321110.206534
27111000	0	Beef_with_tomato_sauce	Beef with tomato sauce	27111000.0
27111050	0	Spaghetti_sauce_with_ground_beef_homemade_style	Spaghetti sauce with ground beef, homemade-style	27111050.0
27111100	0	Beef_goulash	Beef goulash	27111100.0
27111200	0	Beef_burgundy_beef_bourguignon_	Beef burgundy (beef bourguignon)	27111200.0
27111300	0	Mexican_style_beef_stew_with_tomato_sauce_no_potatoes	Mexican style beef stew with tomato sauce, no potatoes	27111300.0
27111310	0	Mexican_style_beef_stew_with_tomato_sauce_and_chili_peppers_no_potatoes	Mexican style beef stew with tomato sauce and chili peppers, no potatoes	27111310.0
27111410	0	Chili_con_carne_with_beans	Chili con carne with beans	27111410.0
27111420	0	Chili_with_beef	Chili, with beef	27111420.0
27111440	0	Chili_con_carne_with_beans_and_cheese	Chili con carne with beans and cheese	27111440.0
27111500	0	Beef_sloppy_joe_no_bun_	Beef sloppy joe (no bun)	27111500.0
27112000	0	Beef_with_gravy	Beef with gravy	27112000.0
27112010	0	Salisbury_steak_with_gravy	Salisbury steak with gravy	27112010.0
27113000	0	Beef_with_cream_or_white_sauce	Beef with cream or white sauce	27113000.0
27113100	0	Beef_stroganoff	Beef stroganoff	27113100.0
27113200	0	Creamed_chipped_beef	Creamed chipped beef	27113200.0
27113300	0	Swedish_meatballs_with_cream_sauce	Swedish meatballs with cream sauce	27113300.0
27115000	0	Beef_with_soy_based_sauce	Beef with soy-based sauce	27115000.0
27115100	0	Steak_teriyaki	Steak teriyaki	27115100.0
27116100	0	Beef_curry	Beef curry	27116100.0
27116200	0	Beef_with_barbecue_sauce	Beef with barbecue sauce	27116200.0
27116350	0	Stewed_seasoned_ground_beef_Mexican_style	Stewed seasoned, ground beef, Mexican style	27116350.0
27118110	0	Meatballs_Puerto_Rican_style	Meatballs, Puerto Rican style	27118110.0
27118120	0	Stewed_seasoned_ground_beef_Puerto_Rican_style	Stewed seasoned ground beef, Puerto Rican style	27118120.0
27118180	0	Puerto_Rican_style_beef_stew_without_potatoes	Puerto Rican style beef stew without potatoes	27118180.0
27120020	0	Ham_or_pork_with_gravy	Ham or pork with gravy	27120020.0
27120030	0	Ham_or_pork_with_barbecue_sauce	Ham or pork with barbecue sauce	27120030.0
27120060	0	Sweet_and_sour_pork	Sweet and sour pork	27120060.0
27120080	0	Ham_stroganoff	Ham stroganoff	27120080.0
27120110	0	Pork_sausage_with_tomato_sauce	Pork sausage with tomato sauce	27120110.0
27120120	0	Sausage_gravy	Sausage gravy	27120120.0
27120120	207133	Sausage_gravy_made_with_meat_drippings	Sausage gravy, made with meat drippings	27120120.207133
27120130	0	Mexican_style_pork_stew_with_tomato_sauce_no_potatoes	Mexican style pork stew with tomato sauce, no potatoes	27120130.0
27120160	0	Pork_curry	Pork curry	27120160.0
27120210	0	Hot_dog_with_chili_no_bun	Hot dog, with chili, no bun	27120210.0
27121410	0	Chili_with_pork_and_beans	Chili, with pork and beans	27121410.0
27130100	0	Lamb_curry	Lamb curry	27130100.0
27135010	0	Veal_with_gravy	Veal with gravy	27135010.0
27135020	0	Veal_scallopini_veal_in_wine_sauce_with_cheese_	Veal scallopini (veal in wine sauce with cheese)	27135020.0
27135030	0	Veal_paprikash_veal_with_cream_sauce_	Veal paprikash (veal with cream sauce)	27135030.0
27135040	0	Veal_picatta_veal_with_butter_sauce_	Veal picatta (veal with butter sauce)	27135040.0
27135050	0	Veal_Marsala_veal_with_wine_sauce_	Veal Marsala (veal with wine sauce)	27135050.0
27135110	0	Veal_parmigiana_breaded_veal_in_tomato_sauce_and_cheese_	Veal parmigiana (breaded veal in tomato sauce and cheese)	27135110.0
27135150	0	Veal_cordon_bleu	Veal cordon bleu	27135150.0
27136050	0	Venison_deer_with_tomato_based_sauce	Venison, (deer), with tomato-based sauce	27136050.0
27136080	0	Venison_deer_with_gravy	Venison, (deer), with gravy	27136080.0
27136100	0	Chili_with_venison_and_beans	Chili, with venison and beans	27136100.0
27141000	0	Chicken_or_turkey_cacciatore	Chicken or turkey cacciatore	27141000.0
27141030	0	Spaghetti_sauce_with_poultry_home_made_style	Spaghetti sauce with poultry, home-made style	27141030.0
27141050	0	Mexican_style_stewed_chicken_with_tomato_sauce	Mexican style stewed chicken with tomato sauce	27141050.0
27141500	0	Chili_con_carne_with_chicken_or_turkey_and_beans	Chili con carne with chicken or turkey and beans	27141500.0
27142100	0	Chicken_fricassee	Chicken fricassee	27142100.0
27143000	0	Chicken_or_turkey_with_cream_sauce_made_with_margarine	Chicken or turkey with cream sauce, made with margarine	27143000.0
27143000	204791	Chicken_or_turkey_with_cream_sauce_made_with_butter	Chicken or turkey with cream sauce, made with butter	27143000.204791
27143000	206938	Chicken_or_turkey_with_cream_sauce_made_with_oil	Chicken or turkey with cream sauce, made with oil	27143000.206938
27143000	207147	Chicken_or_turkey_with_cream_sauce_made_without_fat	Chicken or turkey with cream sauce, made without fat	27143000.207147
27144000	0	Chicken_or_turkey_with_mushroom_soup_sauce	Chicken or turkey with mushroom soup sauce	27144000.0
27145000	0	Chicken_or_turkey_teriyaki	Chicken or turkey teriyaki	27145000.0
27146000	0	Chicken_or_turkey_with_barbecue_sauce_skin_eaten	Chicken or turkey with barbecue sauce, skin eaten	27146000.0
27146010	0	Chicken_or_turkey_with_barbecue_sauce_skin_not_eaten	Chicken or turkey with barbecue sauce, skin not eaten	27146010.0
27146050	0	Chicken_wings_with_hot_pepper_sauce_Buffalo_chicken_wings_	Chicken wings with hot pepper sauce (Buffalo chicken wings)	27146050.0
27146100	0	Sweet_and_sour_chicken_with_vegetables	Sweet and sour chicken, with vegetables	27146100.0
27146110	0	Sweet_and_sour_chicken_without_vegetables	Sweet and sour chicken, without vegetables	27146110.0
27146150	0	Chicken_curry	Chicken curry	27146150.0
27146160	0	Chicken_with_mole_sauce	Chicken with mole sauce	27146160.0
27146200	0	Chicken_or_turkey_with_cheese_sauce	Chicken or turkey with cheese sauce	27146200.0
27146250	0	Chicken_or_turkey_cordon_bleu	Chicken or turkey cordon bleu	27146250.0
27146300	0	Chicken_or_turkey_parmigiana	Chicken or turkey parmigiana	27146300.0
27146350	0	Lemon_chicken_Chinese_style	Lemon chicken, Chinese style	27146350.0
27146360	0	Sesame_chicken	Sesame chicken	27146360.0
27146400	0	Chicken_kiev	Chicken kiev	27146400.0
27150020	0	Deviled_crab	Deviled crab	27150020.0
27150030	0	Crab_imperial	Crab imperial	27150030.0
27150050	0	Fish_timbale_or_mousse	Fish timbale or mousse	27150050.0
27150060	0	Lobster_newburg	Lobster newburg	27150060.0
27150100	0	Shrimp_curry	Shrimp curry	27150100.0
27150110	0	Shrimp_cocktail	Shrimp cocktail	27150110.0
27150130	0	Seafood_newburg_mixed_seafood_in_cream_sauce_	Seafood newburg (mixed seafood in cream sauce)	27150130.0
27150140	0	White_clam_sauce_made_with_olive_oil	White clam sauce, made with olive oil	27150140.0
27150140	100425	White_clam_sauce_made_with_butter	White clam sauce, made with butter	27150140.100425
27150160	0	Shrimp_with_lobster_sauce	Shrimp with lobster sauce	27150160.0
27150170	0	Sweet_and_sour_shrimp	Sweet and sour shrimp	27150170.0
27150200	0	Oyster_cream_sauce	Oyster cream sauce	27150200.0
27150210	0	Fish_sauce	Fish sauce	27150210.0
27150230	0	Shrimp_scampi_made_with_butter	Shrimp scampi, made with butter	27150230.0
27150230	205680	Shrimp_scampi_made_with_margarine	Shrimp scampi, made with margarine	27150230.205680
27150230	206227	Shrimp_scampi_made_with_vegetable_oil	Shrimp scampi, made with vegetable oil	27150230.206227
27150310	0	Sauteed_fish_with_tomatoes	Sauteed fish with tomatoes	27150310.0
27150320	0	Fish_curry	Fish curry	27150320.0
27150330	0	Mussels_in_tomato_sauce	Mussels in tomato sauce	27150330.0
27150410	0	Shrimp_teriyaki	Shrimp teriyaki	27150410.0
27151030	0	Marinated_fish_Ceviche_	Marinated fish (Ceviche)	27151030.0
27162060	0	Spaghetti_sauce_with_meat_and_vegetables_homemade_style	Spaghetti sauce, with meat and vegetables, homemade-style	27162060.0
27211100	0	Beef_stew_with_tomato_based_sauce_and_potatoes	Beef stew with tomato-based sauce and potatoes	27211100.0
27211110	0	Mexican_style_beef_stew_with_tomato_based_sauce_and_potatoes	Mexican style beef stew with tomato-based sauce and potatoes	27211110.0
27211150	0	Beef_goulash_with_potatoes	Beef goulash, with potatoes	27211150.0
27211200	0	Beef_stew_with_potatoes_and_gravy	Beef stew with potatoes and gravy	27211200.0
27211300	0	Roast_beef_hash	Roast beef hash	27211300.0
27211400	0	Corned_beef_hash	Corned beef hash	27211400.0
27212050	0	Beef_and_macaroni_with_cheese_sauce_Hamburger_Helper_	Beef and macaroni with cheese sauce (Hamburger Helper)	27212050.0
27212100	0	Beef_and_noodles_with_tomato_based_sauce_Hamburger_Helper_	Beef and noodles with tomato-based sauce (Hamburger Helper)	27212100.0
27212120	0	Chili_with_beef_beans_and_macaroni	Chili, with beef, beans and macaroni	27212120.0
27212150	0	Beef_goulash_with_noodles	Beef goulash, with noodles	27212150.0
27212350	0	Beef_stroganoff_with_noodles_Hamburger_Helper_	Beef stroganoff, with noodles (Hamburger Helper)	27212350.0
27213010	0	Lamb_biryani	Lamb biryani	27213010.0
27213150	0	Chili_con_carne_with_beans_and_rice	Chili con carne, with beans and rice	27213150.0
27213500	0	Beef_and_rice_with_soy_based_sauce_Hamburger_Helper_	Beef and rice with soy-based sauce (Hamburger Helper)	27213500.0
27213600	0	Beef_and_rice_with_cheese_sauce_Hamburger_Helper_Cheesy_Enchilada_	Beef and rice with cheese sauce (Hamburger Helper Cheesy Enchilada)	27213600.0
27214100	0	Meatballs_beef	Meatballs, beef	27214100.0
27214110	0	Meat_balls_beef_with_tomato_based_sauce	Meat balls, beef, with tomato-based sauce	27214110.0
27214300	0	Beef_wellington	Beef wellington	27214300.0
27214500	0	Corned_beef_patty	Corned beef patty	27214500.0
27214600	0	Creamed_chipped_beef_on_toast	Creamed chipped beef on toast	27214600.0
27220010	0	Meat_loaf_made_with_ham_ham_loaf_	Meat loaf made with ham (ham loaf)	27220010.0
27220050	0	Stuffed_pork	Stuffed pork	27220050.0
27220080	0	Ham_croquette	Ham croquette	27220080.0
27235000	0	Meat_loaf_made_with_venison	Meat loaf, made with venison	27235000.0
27241000	0	Chicken_or_turkey_hash	Chicken or turkey hash	27241000.0
27242300	0	Chicken_or_turkey_casserole_with_noodles_and_white_sauce	Chicken or turkey casserole, with noodles and white sauce	27242300.0
27242310	0	Chicken_or_turkey_casserole_with_noodles_and_cheese_sauce	Chicken or turkey casserole, with noodles and cheese sauce	27242310.0
27242350	0	Chicken_or_turkey_tetrazzini	Chicken or turkey tetrazzini	27242350.0
27242400	0	Chicken_or_turkey_casserole_with_noodles_and_tomato_based_sauce	Chicken or turkey casserole, with noodles and tomato-based sauce	27242400.0
27243100	0	Chicken_biryani	Chicken biryani	27243100.0
27243300	0	Chicken_or_turkey_casserole_with_rice_and_white_sauce_Chicken_Helper_	Chicken or turkey casserole, with rice and white sauce (Chicken Helper)	27243300.0
27243500	0	Chicken_or_turkey_casserole_with_rice_and_tomato_based_sauce	Chicken or turkey casserole, with rice and tomato-based sauce	27243500.0
27243600	0	Chicken_or_turkey_casserole_with_rice_and_soy_based_sauce_Chicken_Helper_Chicken_Teriyaki_	Chicken or turkey casserole, with rice and soy-based sauce (Chicken Helper Chicken Teriyaki)	27243600.0
27246100	0	Chicken_or_turkey_with_dumplings	Chicken or turkey with dumplings	27246100.0
27246200	0	Chicken_or_turkey_with_stuffing	Chicken or turkey with stuffing	27246200.0
27246300	0	Chicken_or_turkey_croquette	Chicken or turkey croquette	27246300.0
27246500	0	Meat_loaf_made_with_chicken_or_turkey	Meat loaf, made with chicken or turkey	27246500.0
27246505	0	Meat_loaf_made_with_chicken_or_turkey_with_tomato_based_sauce	Meat loaf, made with chicken or turkey, with tomato-based sauce	27246505.0
27250020	0	Stuffed_clams	Stuffed clams	27250020.0
27250030	0	Codfish_ball_or_cake	Codfish ball or cake	27250030.0
27250040	0	Crab_cake_sauteed_in_butter	Crab cake, sauteed in butter	27250040.0
27250040	204665	Crab_cake_cooked_without_added_fat	Crab cake, cooked without added fat	27250040.204665
27250040	205237	Crab_cake_sauteed_in_oil	Crab cake, sauteed in oil	27250040.205237
27250060	0	Gefilte_fish	Gefilte fish	27250060.0
27250070	0	Salmon_cake_patty_or_croquette_fried_in_shortening	Salmon cake, patty or croquette, fried in shortening	27250070.0
27250070	100813	Salmon_cake_patty_or_croquette_fried_in_oil	Salmon cake, patty or croquette, fried in oil	27250070.100813
27250130	0	Shrimp_noodle_casserole_with_cheese_sauce	Shrimp noodle casserole, with cheese sauce	27250130.0
27250160	0	Tuna_cakes	Tuna cakes	27250160.0
27250220	0	Oyster_fritter	Oyster fritter	27250220.0
27250250	0	Flounder_with_crab_stuffing	Flounder with crab stuffing	27250250.0
27250260	0	Lobster_with_bread_stuffing_baked	Lobster with bread stuffing, baked	27250260.0
27250270	0	Clams_Casino	Clams Casino	27250270.0
27250400	0	Shrimp_cakes	Shrimp cakes	27250400.0
27250410	0	Shrimp_with_crab_stuffing	Shrimp with crab stuffing	27250410.0
27250450	0	Shrimp_toast_fried	Shrimp toast, fried	27250450.0
27250520	0	Seafood_restructured_imitation_crab_meat_	Seafood restructured (imitation crab meat)	27250520.0
27250610	0	Tuna_noodle_casserole_with_cream_or_white_sauce_no_vegetables	Tuna noodle casserole, with cream or white sauce, no vegetables	27250610.0
27250630	0	Tuna_noodle_casserole_made_with_mushroom_soup_no_vegetables	Tuna noodle casserole, made with mushroom soup, no vegetables	27250630.0
27250710	0	Tuna_rice_casserole_made_with_mushroom_soup_no_vegetables	Tuna rice casserole, made with mushroom soup, no vegetables	27250710.0
27260080	0	Meat_loaf_made_with_beef_and_pork	Meat loaf, made with beef and pork	27260080.0
27260090	0	Meat_loaf_made_with_beef_veal_and_pork	Meat loaf, made with beef, veal and pork	27260090.0
27260100	0	Meat_loaf_made_with_beef_and_pork_with_tomato_based_sauce	Meat loaf, made with beef and pork, with tomato-based sauce	27260100.0
27311310	0	Beef_stew_in_tomato_based_sauce_with_potatoes_and_carrots_Dinty_Moore_	Beef stew, in tomato-based sauce, with potatoes and carrots (Dinty Moore)	27311310.0
27311320	0	Beef_stew_in_tomato_based_sauce_with_potatoes_no_carrots	Beef stew, in tomato-based sauce, with potatoes, no carrots	27311320.0
27311410	0	Beef_stew_in_gravy_with_potatoes_and_carrots	Beef stew, in gravy, with potatoes and carrots	27311410.0
27311420	0	Beef_stew_in_gravy_with_potatoes_no_carrots	Beef stew, in gravy, with potatoes, no carrots	27311420.0
27311510	0	Shepherd_s_pie_made_with_beef	Shepherd's pie, made with beef	27311510.0
27313110	0	Beef_chow_mein_chop_suey_with_chow_mein_noodles	Beef chow mein (chop suey), with chow mein noodles	27313110.0
27315250	0	Stuffed_cabbage_rolls_with_beef_and_rice	Stuffed cabbage rolls, with beef and rice	27315250.0
27315270	0	Stuffed_grape_leaves_with_beef_and_rice	Stuffed grape leaves, with beef and rice	27315270.0
27317010	0	Beef_pot_pie	Beef pot pie	27317010.0
27320310	0	Pork_chow_mein_chop_suey_with_chow_mein_noodles	Pork chow mein (chop suey), with chow mein noodles	27320310.0
27320500	0	Sweet_and_sour_pork_with_rice	Sweet and sour pork, with rice	27320500.0
27330010	0	Shepherd_s_pie_made_with_lamb	Shepherd's pie, made with lamb	27330010.0
27330030	0	Lamb_stew_in_gravy_with_potatoes_and_carrots	Lamb stew, in gravy, with potatoes and carrots	27330030.0
27330110	0	Lamb_stew_in_gravy_with_potatoes_no_carrots	Lamb stew, in gravy, with potatoes, no carrots	27330110.0
27330170	0	Stuffed_grape_leaves_with_lamb_and_rice	Stuffed grape leaves, with lamb and rice	27330170.0
27330210	0	Lamb_stew_in_tomato_based_sauce_with_potatoes_and_carrots	Lamb stew, in tomato-based sauce, with potatoes and carrots	27330210.0
27330220	0	Lamb_stew_in_tomato_based_sauce_with_potatoes_no_carrots	Lamb stew, in tomato-based sauce, with potatoes, no carrots	27330220.0
27335100	0	Rabbit_stew_with_potatoes_and_vegetables	Rabbit stew, with potatoes and vegetables	27335100.0
27336100	0	Venison_deer_stew_in_tomato_based_sauce_with_potatoes_and_carrots	Venison, (deer), stew, in tomato-based sauce, with potatoes and carrots	27336100.0
27336150	0	Venison_deer_stew_in_tomato_based_sauce_with_potatoes_no_carrots	Venison, (deer), stew, in tomato-based sauce, with potatoes, no carrots	27336150.0
27336200	0	Venison_deer_stew_in_gravy_with_potatoes_and_carrots	Venison, (deer), stew, in gravy, with potatoes and carrots	27336200.0
27336250	0	Venison_deer_stew_in_gravy_with_potatoes_no_carrots	Venison, (deer), stew, in gravy, with potatoes, no carrots	27336250.0
27341000	0	Chicken_or_turkey_potatoes_corn_and_cheese_with_gravy_KFC_Mashed_Potato_Bowl_with_Gravy_	Chicken or turkey, potatoes, corn, and cheese, with gravy (KFC Mashed Potato Bowl with Gravy)	27341000.0
27341310	0	Chicken_or_turkey_stew_in_gravy_with_potatoes_and_carrots	Chicken or turkey stew, in gravy, with potatoes and carrots	27341310.0
27341320	0	Chicken_or_turkey_stew_in_gravy_with_potatoes_no_carrots	Chicken or turkey stew, in gravy, with potatoes, no carrots	27341320.0
27341510	0	Chicken_or_turkey_stew_in_tomato_based_sauce_with_potatoes_and_carrots	Chicken or turkey stew, in tomato-based sauce, with potatoes and carrots	27341510.0
27341520	0	Chicken_or_turkey_stew_in_tomato_based_sauce_with_potato_no_carrots	Chicken or turkey stew, in tomato-based sauce, with potato, no carrots	27341520.0
27343470	0	Chicken_or_turkey_noodle_casserole_made_with_mushroom_soup_with_carrots	Chicken or turkey noodle casserole, made with mushroom soup, with carrots	27343470.0
27343480	0	Chicken_or_turkey_noodle_casserole_made_with_mushroom_soup_no_carrots	Chicken or turkey noodle casserole, made with mushroom soup, no carrots	27343480.0
27343510	0	Chicken_or_turkey_stew_in_tomato_based_sauce_with_noodles_with_carrots	Chicken or turkey stew, in tomato-based sauce, with noodles, with carrots	27343510.0
27343520	0	Chicken_or_turkey_stew_in_tomato_based_sauce_with_noodles_no_carrots	Chicken or turkey stew, in tomato-based sauce, with noodles, no carrots	27343520.0
27343910	0	Chicken_or_turkey_chow_mein_chop_suey_with_chow_mein_noodles	Chicken or turkey chow mein (chop suey), with chow mein noodles	27343910.0
27345230	0	Chicken_or_turkey_rice_corn_and_cheese_with_gravy_KFC_Rice_Bowl_with_Gravy_	Chicken or turkey, rice, corn, and cheese, with gravy (KFC Rice Bowl with Gravy)	27345230.0
27347100	0	Chicken_or_turkey_pot_pie	Chicken or turkey pot pie	27347100.0
27350020	0	Paella_with_seafood	Paella with seafood	27350020.0
27350030	0	Seafood_stew_in_tomato_based_sauce_with_potatoes_no_carrots	Seafood stew, in tomato-based sauce, with potatoes, no carrots	27350030.0
27350050	0	Shrimp_chow_mein_chop_suey_with_chow_mein_noodles	Shrimp chow mein (chop suey), with chow mein noodles	27350050.0
27350060	0	Shrimp_creole_with_rice	Shrimp creole, with rice	27350060.0
27350080	0	Tuna_noodle_casserole_with_cream_or_white_sauce_with_vegetables	Tuna noodle casserole, with cream or white sauce, with vegetables	27350080.0
27350110	0	Bouillabaisse	Bouillabaisse	27350110.0
27350200	0	Oyster_pie	Oyster pie	27350200.0
27350310	0	Seafood_stew_in_tomato_based_sauce_with_potatoes_and_carrots	Seafood stew, in tomato-based sauce, with potatoes and carrots	27350310.0
27350410	0	Tuna_noodle_casserole_made_with_mushroom_soup_with_vegetables	Tuna noodle casserole, made with mushroom soup, with vegetables	27350410.0
27360100	0	Brunswick_stew	Brunswick stew	27360100.0
27360120	0	Beef_chicken_and_pork_chow_mein_chop_suey_with_chow_mein_noodles	Beef, chicken, and pork chow mein (chop suey), with chow mein noodles	27360120.0
27363000	0	Gumbo_with_rice_and_shellfish_pork_and_or_poultry_New_Orleans_style_	Gumbo with rice and shellfish, pork, and/or poultry (New Orleans style)	27363000.0
27363100	0	Jambalaya_with_meat_and_rice	Jambalaya, with meat and rice	27363100.0
27410250	0	Beef_shish_kabob_with_vegetables_no_potatoes	Beef shish kabob with vegetables, no potatoes	27410250.0
27411100	0	Beef_stew_in_tomato_based_sauce_with_carrots_and_onions	Beef stew, in tomato-based sauce, with carrots and onions	27411100.0
27411120	0	Swiss_steak	Swiss steak	27411120.0
27411200	0	Beef_stew_in_tomato_based_sauce_with_peppers	Beef stew, in tomato-based sauce, with peppers	27411200.0
27415100	0	Beef_and_vegetable_stir_fry_in_soy_based_sauce_with_carrots_and_broccoli	Beef and vegetable stir fry, in soy-based sauce, with carrots and broccoli	27415100.0
27415150	0	Beef_chow_mein_chop_suey_no_noodles	Beef chow mein (chop suey), no noodles	27415150.0
27415170	0	Kung_Pao_beef	Kung Pao beef	27415170.0
27416150	0	Chinese_pepper_steak	Chinese pepper steak	27416150.0
27416300	0	Beef_taco_filling_beef_cheese_tomato_taco_sauce	Beef taco filling: beef, cheese, tomato, taco sauce	27416300.0
27416400	0	Sukiyaki_stir_fried_beef_and_vegetables_in_soy_sauce_	Sukiyaki (stir fried beef and vegetables in soy sauce)	27416400.0
27420010	0	Cabbage_with_ham_hocks	Cabbage with ham hocks	27420010.0
27420020	0	Ham_salad_with_mayonnaise	Ham salad, with mayonnaise	27420020.0
27420020	207087	Ham_salad_with_low_calorie_mayonnaise	Ham salad, with low-calorie mayonnaise	27420020.207087
27420080	0	Greens_with_ham_or_pork	Greens with ham or pork	27420080.0
27420150	0	Kung_Pao_pork	Kung Pao pork	27420150.0
27420160	0	Moo_Shu_Mu_Shi_Pork_without_Chinese_pancake	Moo Shu (Mu Shi) Pork, without Chinese pancake	27420160.0
27420390	0	Pork_chow_mein_chop_suey_no_noodles	Pork chow mein (chop suey), no noodles	27420390.0
27420470	0	Sausage_and_peppers	Sausage and peppers	27420470.0
27430400	0	Lamb_stew_in_gravy_with_carrots_no_potatoes	Lamb stew, in gravy, with carrots, no potatoes	27430400.0
27430410	0	Lamb_stew_in_gravy_no_carrots_or_potatoes	Lamb stew, in gravy, no carrots or potatoes	27430410.0
27430610	0	Lamb_shish_kabob_with_vegetables_no_potatoes	Lamb shish kabob, with vegetables, no potatoes	27430610.0
27440130	0	Chicken_or_turkey_shish_kabob_with_tomato_onion_and_green_pepper	Chicken or turkey shish kabob, with tomato, onion, and green pepper	27440130.0
27441120	0	Chicken_or_turkey_creole_without_rice	Chicken or turkey creole, without rice	27441120.0
27443110	0	Chicken_or_turkey_a_la_king_with_carrots	Chicken or turkey a la king with carrots	27443110.0
27443120	0	Chicken_or_turkey_a_la_king_with_mushrooms	Chicken or turkey a la king with mushrooms	27443120.0
27443150	0	Chicken_or_turkey_divan	Chicken or turkey divan	27443150.0
27445110	0	Chicken_and_vegetable_stir_fry_in_soy_based_sauce_with_green_pepper_broccoli_and_carrots	Chicken and vegetable stir fry, in soy-based sauce, with green pepper, broccoli and carrots	27445110.0
27445120	0	Chicken_and_vegetable_stir_fry_in_soy_based_sauce_with_bamboo_shoots_and_water_chestnuts	Chicken and vegetable stir fry, in soy-based sauce, with bamboo shoots and water chestnuts	27445120.0
27445150	0	General_Tso_General_Gau_chicken	General Tso (General Gau) chicken	27445150.0
27445180	0	Moo_Goo_Gai_Pan	Moo Goo Gai Pan	27445180.0
27445220	0	Kung_pao_chicken	Kung pao chicken	27445220.0
27445250	0	Almond_chicken	Almond chicken	27445250.0
27446100	0	Chicken_or_turkey_chow_mein_chop_suey_no_noodles	Chicken or turkey chow mein (chop suey), no noodles	27446100.0
27446200	0	Chicken_salad_with_mayonnaise	Chicken salad, with mayonnaise	27446200.0
27446200	100506	Turkey_salad_with_mayonnaise_type_dressing_Miracle_Whip_	Turkey salad, with mayonnaise-type dressing (Miracle Whip)	27446200.100506
27446200	204361	Chicken_salad_with_low_calorie_mayonnaise_type_dressing_Miracle_Whip_Light_	Chicken salad, with low-calorie mayonnaise-type dressing (Miracle Whip Light)	27446200.204361
27446200	205134	Turkey_salad_with_fat_free_mayonnaise_type_dressing_Miracle_Whip_Fat_Free_	Turkey salad, with fat free mayonnaise-type dressing (Miracle Whip Fat Free)	27446200.205134
27446200	205292	Chicken_salad_with_low_calorie_mayonnaise	Chicken salad, with low-calorie mayonnaise	27446200.205292
27446205	0	Turkey_salad_with_mayonnaise_and_grapes_and_almonds	Turkey salad, with mayonnaise and grapes and almonds	27446205.0
27446220	0	Turkey_salad_with_mayonnaise_and_egg	Turkey salad, with mayonnaise and egg	27446220.0
27446240	0	Chicken_salad_with_ranch_dressing	Chicken salad, with ranch dressing	27446240.0
27446245	0	Turkey_salad_with_light_ranch_dressing	Turkey salad, with light ranch dressing	27446245.0
27446250	0	Chicken_salad_with_Italian_dressing	Chicken salad, with Italian dressing	27446250.0
27446255	0	Turkey_salad_with_light_Italian_dressing	Turkey salad, with light Italian dressing	27446255.0
27446260	0	Chicken_or_turkey_salad_made_with_any_type_of_fat_free_dressing	Chicken or turkey salad, made with any type of fat free dressing	27446260.0
27446300	0	Salad_grilled_chicken_lettuce_tomato_no_dressing	Salad, grilled chicken, lettuce, tomato, no dressing	27446300.0
27446315	0	Salad_grilled_chicken_bacon_cheese_lettuce_tomato_carrots_no_dressing	Salad, grilled chicken, bacon, cheese, lettuce, tomato, carrots, no dressing	27446315.0
27446320	0	Salad_fried_chicken_bacon_cheese_lettuce_tomato_carrots_no_dressing	Salad, fried chicken, bacon, cheese, lettuce, tomato, carrots, no dressing	27446320.0
27446350	0	Salad_grilled_chicken_lettuce_fruit_nuts_no_dressing	Salad, grilled chicken, lettuce, fruit, nuts, no dressing	27446350.0
27446355	0	Salad_Asian_chicken_crispy_noodles_lettuce_tangerine_almonds_no_dressing	Salad, Asian chicken, crispy noodles, lettuce, tangerine, almonds, no dressing	27446355.0
27446360	0	Salad_grilled_chicken_cheese_lettuce_tomato_no_dressing	Salad, grilled chicken, cheese, lettuce, tomato, no dressing	27446360.0
27446362	0	Salad_fried_chicken_cheese_lettuce_tomato_no_dressing	Salad, fried chicken, cheese, lettuce, tomato, no dressing	27446362.0
27450010	0	Crab_salad_with_mayonnaise	Crab salad, with mayonnaise	27450010.0
27450020	0	Lobster_salad_with_mayonnaise	Lobster salad, with mayonnaise	27450020.0
27450040	0	Shrimp_chow_mein_chop_suey_no_noodles	Shrimp chow mein (chop suey), no noodles	27450040.0
27450060	0	Tuna_salad_with_mayonnaise	Tuna salad, with mayonnaise	27450060.0
27450060	200020	Tuna_salad_with_low_calorie_mayonnaise_type_dressing_Miracle_Whip_Light_	Tuna salad, with low-calorie mayonnaise-type dressing (Miracle Whip Light)	27450060.200020
27450060	200099	Tuna_salad_with_fat_free_mayonnaise_type_dressing_Miracle_Whip_	Tuna salad, with fat free mayonnaise-type dressing (Miracle Whip)	27450060.200099
27450060	200685	Tuna_salad_with_light_mayonnaise	Tuna salad, with light mayonnaise	27450060.200685
27450060	205378	Tuna_salad_with_mayonnaise_type_dressing_Miracle_Whip_	Tuna salad, with mayonnaise-type dressing (Miracle Whip)	27450060.205378
27450064	0	Tuna_salad_with_ranch_dressing	Tuna salad, with ranch dressing	27450064.0
27450065	0	Tuna_salad_with_light_ranch_dressing	Tuna salad, with light ranch dressing	27450065.0
27450066	0	Tuna_salad_with_Italian_dressing	Tuna salad, with Italian dressing	27450066.0
27450067	0	Tuna_salad_with_light_Italian_dressing	Tuna salad, with light Italian dressing	27450067.0
27450070	0	Shrimp_salad_with_mayonnaise	Shrimp salad, with mayonnaise	27450070.0
27450070	206281	Shrimp_salad_with_mayonnaise_type_dressing_Miracle_Whip_	Shrimp salad, with mayonnaise-type dressing (Miracle Whip)	27450070.206281
27450090	0	Tuna_salad_with_cheese_mayonnaise	Tuna salad, with cheese, mayonnaise	27450090.0
27450090	207602	Tuna_salad_with_cheese_low_calorie_mayonnaise_type_dressing_Miracle_Whip_Light_	Tuna salad, with cheese, low-calorie mayonnaise-type dressing (Miracle Whip Light)	27450090.207602
27450100	0	Tuna_salad_with_egg_mayonnaise	Tuna salad, with egg, mayonnaise	27450100.0
27450100	100026	Tuna_salad_with_egg_low_calorie_mayonnaise_type_dressing_Miracle_Whip_Light_	Tuna salad, with egg, low-calorie mayonnaise-type dressing (Miracle Whip Light)	27450100.100026
27450100	201154	Tuna_salad_with_egg_fat_free_mayonnaise_type_dressing_Miracle_Whip_Fat_Free_	Tuna salad, with egg, fat free mayonnaise-type dressing (Miracle Whip Fat Free)	27450100.201154
27450100	202694	Tuna_salad_with_egg_low_calorie_mayonnaise	Tuna salad, with egg, low-calorie mayonnaise	27450100.202694
27450100	205734	Tuna_salad_with_egg_mayonnaise_type_dressing_Miracle_Whip_	Tuna salad, with egg, mayonnaise-type dressing (Miracle Whip)	27450100.205734
27450110	0	Salad_shrimp_egg_lettuce_tomato_carrots_no_dressing	Salad, shrimp, egg, lettuce, tomato, carrots, no dressing	27450110.0
27450130	0	Crab_salad_with_imitation_crab	Crab salad, with imitation crab	27450130.0
27450190	0	Seafood_garden_salad_with_seafood_lettuce_tomato_and_or_carrots_other_vegetables_no_dressing	Seafood garden salad with seafood, lettuce, tomato and/or carrots, other vegetables, no dressing	27450190.0
27450210	0	Seafood_garden_salad_with_seafood_lettuce_eggs_tomato_and_or_carrots_other_vegetables_no_dressing	Seafood garden salad with seafood, lettuce, eggs, tomato and/or carrots, other vegetables, no dressing	27450210.0
27450250	0	Oysters_Rockefeller	Oysters Rockefeller	27450250.0
27450310	0	Lomi_salmon	Lomi salmon	27450310.0
27450410	0	Hunan_shrimp	Hunan shrimp	27450410.0
27450420	0	Shrimp_and_vegetable_stir_fry_in_soy_based_sauce_with_snow_peas_water_chestnuts_onion_and_celery	Shrimp and vegetable stir fry, in soy-based sauce, with snow peas, water chestnuts, onion, and celery	27450420.0
27450450	0	Shrimp_creole_no_rice_with_margarine	Shrimp creole, no rice, with margarine	27450450.0
27450450	206275	Shrimp_creole_no_rice_with_vegetable_oil	Shrimp creole, no rice, with vegetable oil	27450450.206275
27450470	0	Kung_Pao_shrimp	Kung Pao shrimp	27450470.0
27450510	0	Tuna_casserole_with_vegetables_and_mushroom_soup_no_noodles	Tuna casserole, with vegetables and mushroom soup, no noodles	27450510.0
27460100	0	Lau_lau_pork_and_fish_wrapped_in_taro_or_spinach_leaves_	Lau lau (pork and fish wrapped in taro or spinach leaves)	27460100.0
27460750	0	Liver_beef_or_calves_and_onions	Liver, beef or calves, and onions	27460750.0
27464000	0	Gumbo_without_rice_with_shellfish_pork_and_or_poultry_New_Orleans_style_	Gumbo, without rice, with shellfish, pork, and/or poultry (New Orleans style)	27464000.0
27510110	0	Beef_barbecue_sandwich_on_bun	Beef barbecue sandwich, on bun	27510110.0
27510210	0	Wendy_s_Kid_s_Meal_Cheeseburger	Wendy's, Kid's Meal Cheeseburger	27510210.0
27510220	0	Cheeseburger_with_mayonnaise_or_salad_dressing_on_bun	Cheeseburger, with mayonnaise or salad dressing, on bun	27510220.0
27510230	0	Cheeseburger_with_mayonnaise_and_ketchup_on_bun	Cheeseburger, with mayonnaise and ketchup, on bun	27510230.0
27510240	0	Cheeseburger_1_4_lb_meat_plain_on_bun	Cheeseburger, 1/4 lb meat, plain, on bun	27510240.0
27510250	0	Cheeseburger_1_4_lb_meat_with_mayonnaise_on_bun	Cheeseburger, 1/4 lb meat, with mayonnaise, on bun	27510250.0
27510260	0	Cheeseburger_1_4_lb_meat_with_mushrooms_on_bun	Cheeseburger, 1/4 lb meat, with mushrooms, on bun	27510260.0
27510265	0	Double_cheeseburger_slider_plain_on_miniature_bun	Double cheeseburger, slider, plain, on miniature bun	27510265.0
27510270	0	Double_cheeseburger_plain_on_bun	Double cheeseburger, plain, on bun	27510270.0
27510280	0	Double_cheeseburger_with_mayonnaise_on_bun	Double cheeseburger, with mayonnaise, on bun	27510280.0
27510290	0	Double_cheeseburger_plain_on_double_decker_bun	Double cheeseburger, plain, on double-decker bun	27510290.0
27510300	0	Double_cheeseburger_with_mayonnaise_on_double_decker_bun	Double cheeseburger, with mayonnaise, on double-decker bun	27510300.0
27510310	0	McDonald_s_Cheeseburger	McDonald's, Cheeseburger	27510310.0
27510311	0	Cheeseburger_slider_plain_on_miniature_bun	Cheeseburger, slider, plain, on miniature bun	27510311.0
27510320	0	McDonald_s_Quarter_Pounder_with_Cheese	McDonald's, Quarter Pounder with Cheese	27510320.0
27510330	0	Burger_King_Double_Cheeseburger	Burger King, Double Cheeseburger	27510330.0
27510350	0	Wendy_s_Single_with_Cheese	Wendy's, Single with Cheese	27510350.0
27510355	0	Cheeseburger_1_3_lb_meat_with_mayonnaise_and_ketchup_on_bun	Cheeseburger, 1/3 lb meat, with mayonnaise and ketchup, on bun	27510355.0
27510359	0	Cheeseburger_1_3_lb_meat_with_mushrooms_and_mayonnaise_on_bun	Cheeseburger, 1/3 lb meat, with mushrooms and mayonnaise, on bun	27510359.0
27510360	0	Bacon_cheeseburger_with_mayonnaise_and_ketchup_on_bun	Bacon cheeseburger, with mayonnaise and ketchup, on bun	27510360.0
27510370	0	Wendy_s_Double_with_Cheese	Wendy's, Double with Cheese	27510370.0
27510375	0	Double_cheeseburger_1_4_lb_meat_patties_with_ketchup_on_bun	Double cheeseburger, 1/4 lb meat patties, with ketchup, on bun	27510375.0
27510380	0	Wendy_s_Triple_with_Cheese	Wendy's, Triple with Cheese	27510380.0
27510390	0	Double_bacon_cheeseburger_1_4_lb_meat_patties_on_bun	Double bacon cheeseburger, 1/4 lb meat patties, on bun	27510390.0
27510400	0	Bacon_cheeseburger_1_4_lb_meat_with_ketchup_on_bun	Bacon cheeseburger, 1/4 lb meat, with ketchup, on bun	27510400.0
27510410	0	Hamburger_with_chili_on_bun	Hamburger, with chili, on bun	27510410.0
27510425	0	Wendy_s_Baconator	Wendy's, Baconator	27510425.0
27510430	0	Double_bacon_cheeseburger_1_4_lb_meat_patties_with_mayonnaise_and_ketchup_on_bun	Double bacon cheeseburger, 1/4 lb meat patties, with mayonnaise and ketchup, on bun	27510430.0
27510435	0	Hardee_s_Monster_Thickburger	Hardee's, Monster Thickburger	27510435.0
27510440	0	Bacon_cheeseburger_1_4_lb_meat_with_mayonnaise_and_ketchup_on_bun	Bacon cheeseburger, 1/4 lb meat, with mayonnaise and ketchup, on bun	27510440.0
27510445	0	Bacon_cheeseburger_1_3_lb_meat_with_ketchup_on_bun	Bacon cheeseburger, 1/3 lb meat, with ketchup, on bun	27510445.0
27510450	0	Cheeseburger_1_4_lb_meat_with_ham_on_bun	Cheeseburger, 1/4 lb meat, with ham, on bun	27510450.0
27510480	0	Cheeseburger_1_4_lb_meat_with_cheese_sauce_and_grilled_onions_on_rye_bun	Cheeseburger, 1/4 lb meat, with cheese sauce and grilled onions, on rye bun	27510480.0
27510500	0	Hamburger_plain_on_bun	Hamburger, plain, on bun	27510500.0
27510510	0	Wendy_s_Jr_Hamburger	Wendy's, Jr. Hamburger	27510510.0
27510520	0	Burger_King_Whopper_Jr_	Burger King, Whopper Jr.	27510520.0
27510530	0	Hamburger_1_4_lb_meat_plain_on_bun	Hamburger, 1/4 lb meat, plain, on bun	27510530.0
27510540	0	Double_hamburger_with_ketchup_on_bun	Double hamburger, with ketchup, on bun	27510540.0
27510560	0	Wendy_s_Single	Wendy's, Single	27510560.0
27510570	0	Hamburger_2_1_2_oz_meat_with_mayonnaise_on_bun	Hamburger, 2-1/2 oz meat, with mayonnaise, on bun	27510570.0
27510590	0	Hamburger_with_mayonnaise_on_bun	Hamburger, with mayonnaise, on bun	27510590.0
27510600	0	Hamburger_slider_plain_on_miniature_bun	Hamburger, slider, plain, on miniature bun	27510600.0
27510620	0	McDonald_s_Quarter_Pounder	McDonald's, Quarter Pounder	27510620.0
27510630	0	Hamburger_1_4_lb_meat_with_mayonnaise_on_bun	Hamburger, 1/4 lb meat, with mayonnaise, on bun	27510630.0
27510650	0	Double_hamburger_plain_on_bun	Double hamburger, plain, on bun	27510650.0
27510660	0	Double_hamburger_with_mayonnaise_on_bun	Double hamburger, with mayonnaise, on bun	27510660.0
27510670	0	Double_hamburger_with_mayonnaise_and_ketchup_on_bun	Double hamburger, with mayonnaise and ketchup, on bun	27510670.0
27510690	0	Double_hamburger_1_4_lb_meat_patties_with_mayonnaise_and_catsup_on_double_decker_bun	Double hamburger, 1/4 lb meat patties, with mayonnaise and catsup, on double-decker bun	27510690.0
27510700	0	Meatball_and_spaghetti_sauce_submarine_sandwich_Subway_Jerry_s_	Meatball and spaghetti sauce submarine sandwich (Subway, Jerry's)	27510700.0
27510910	0	Corned_beef_sandwich	Corned beef sandwich	27510910.0
27510950	0	Reuben_sandwich_corned_beef_sandwich_with_sauerkraut_cheese_and_thousand_island_dressing_	Reuben sandwich (corned beef sandwich with sauerkraut, cheese, and thousand island dressing)	27510950.0
27511010	0	Pastrami_sandwich	Pastrami sandwich	27511010.0
27513010	0	Roast_beef_sandwich	Roast beef sandwich	27513010.0
27513020	0	Roast_beef_sandwich_with_gravy	Roast beef sandwich, with gravy	27513020.0
27513040	0	Roast_beef_sub_with_lettuce_tomato_and_mayonnaise_Subway_Jerry_s_	Roast beef sub, with lettuce, tomato and mayonnaise (Subway, Jerry's)	27513040.0
27513041	0	Roast_beef_sub_with_cheese_lettuce_tomato_and_mayonnaise_Subway_Jerry_s_	Roast beef sub, with cheese, lettuce, tomato and mayonnaise (Subway, Jerry's)	27513041.0
27513050	0	Roast_beef_sandwich_with_cheese	Roast beef sandwich, with cheese	27513050.0
27513060	0	Roast_beef_sandwich_with_bacon_and_cheese_sauce	Roast beef sandwich, with bacon and cheese sauce	27513060.0
27513070	0	French_dip_sandwich	French dip sandwich	27513070.0
27515000	0	Steak_sub_with_lettuce_and_tomato	Steak sub, with lettuce and tomato	27515000.0
27515010	0	Steak_sandwich_plain_on_roll	Steak sandwich, plain, on roll	27515010.0
27515020	0	Steak_and_cheese_sub_with_lettuce_and_tomato_Subway_Jerry_s_	Steak and cheese sub, with lettuce and tomato (Subway, Jerry's)	27515020.0
27515040	0	Steak_and_cheese_sub_plain	Steak and cheese sub, plain	27515040.0
27515070	0	Steak_and_cheese_sub_with_peppers_and_onions	Steak and cheese sub, with peppers and onions	27515070.0
27515080	0	Steak_biscuit	Steak biscuit	27515080.0
27516010	0	Gyro_sandwich_pita_bread_beef_lamb_onion_tomato_yogurt_dressing_	Gyro sandwich (pita bread, beef, lamb, onion, tomato, yogurt dressing)	27516010.0
27520130	0	Grilled_chicken_club_sandwich_with_bacon_lettuce_tomato_and_mayonnaise_Jerry_s_Wendy_s_McDonald_s_	Grilled chicken club sandwich, with bacon, lettuce, tomato, and mayonnaise (Jerry's, Wendy's, McDonald's)	27520130.0
27520150	0	BLT_bacon_lettuce_and_tomato_sandwich_with_mayonnaise	BLT (bacon, lettuce, and tomato sandwich), with mayonnaise	27520150.0
27520150	206040	BLT_bacon_lettuce_and_tomato_sandwich_with_light_mayonnaise	BLT (bacon, lettuce, and tomato sandwich), with light mayonnaise	27520150.206040
27520160	0	Chicken_sandwich_with_bacon_lettuce_tomato_and_mayonnaise_on_multigrain_roll	Chicken sandwich, with bacon, lettuce, tomato and mayonnaise, on multigrain roll	27520160.0
27520165	0	Chicken_breaded_fried_club_sandwich_with_bacon_lettuce_tomato_and_creamy_dressing_McDonald_s_	Chicken (breaded, fried) club sandwich, with bacon, lettuce, tomato and creamy dressing (McDonald's)	27520165.0
27520166	0	Chicken_breaded_fried_club_sandwich_with_bacon_lettuce_tomato_cheese_and_mayonnaise_McDonald_s_	Chicken (breaded, fried) club sandwich, with bacon, lettuce, tomato, cheese, and mayonnaise (McDonald's)	27520166.0
27520170	0	Bacon_on_biscuit_Hardee_s_	Bacon on biscuit (Hardee's)	27520170.0
27520250	0	Ham_on_biscuit_Hardee_s_	Ham on biscuit (Hardee's)	27520250.0
27520300	0	Ham_sandwich_with_mayonnaise	Ham sandwich, with mayonnaise	27520300.0
27520310	0	Ham_sandwich_with_lettuce_and_margarine	Ham sandwich, with lettuce and margarine	27520310.0
27520320	0	Ham_and_cheese_sandwich_with_lettuce_and_margarine	Ham and cheese sandwich, with lettuce and margarine	27520320.0
27520340	0	Ham_salad_sandwich	Ham salad sandwich	27520340.0
27520350	0	Grilled_ham_and_cheese_sandwich_made_with_margarine	Grilled ham and cheese sandwich, made with margarine	27520350.0
27520370	0	Hot_ham_and_cheese_sandwich_on_bun_Arby_s_Burger_King_Hardee_s_	Hot ham and cheese sandwich, on bun (Arby's, Burger King, Hardee's)	27520370.0
27520380	0	Ham_and_cheese_on_English_muffin	Ham and cheese on English muffin	27520380.0
27520390	0	Ham_and_cheese_submarine_sandwich_with_lettuce_tomato_and_mayonnaise	Ham and cheese submarine sandwich, with lettuce, tomato and mayonnaise	27520390.0
27520410	0	Cuban_sandwich_cubano_	Cuban sandwich, (cubano)	27520410.0
27520500	0	Pork_sandwich_on_white_roll_with_onions_dill_pickles_and_barbecue_sauce_McRib_	Pork sandwich, on white roll, with onions, dill pickles and barbecue sauce (McRib)	27520500.0
27520510	0	Pork_barbecue_sandwich_on_bun	Pork barbecue sandwich, on bun	27520510.0
27520530	0	Pork_sandwich_with_gravy	Pork sandwich, with gravy	27520530.0
27520540	0	Ham_and_cheese_sandwich_with_lettuce_tomato_and_mayonnaise	Ham and cheese sandwich, with lettuce, tomato, and mayonnaise	27520540.0
27540110	0	Roasted_chicken_sandwich_with_mayonnaise	Roasted chicken sandwich, with mayonnaise	27540110.0
27540111	0	Roasted_chicken_sandwich_with_cheese_and_mayonnaise	Roasted chicken sandwich, with cheese and mayonnaise	27540111.0
27540120	0	Chicken_salad_sandwich_with_mayonnaise	Chicken salad sandwich, with mayonnaise	27540120.0
27540130	0	Chicken_barbecue_sandwich_Carl_s_Jr_	Chicken barbecue sandwich (Carl's Jr.)	27540130.0
27540140	0	Fried_chicken_sandwich_Chick_fil_A_McDonald_s_	Fried chicken sandwich (Chick-fil-A, McDonald's)	27540140.0
27540150	0	Fried_chicken_sandwich_with_lettuce_tomato_and_mayonnaise_Wendy_s_Carl_s_Jr_Jack_in_the_Box_McDonald_s_Burger_King_	Fried chicken sandwich, with lettuce, tomato and mayonnaise (Wendy's, Carl's Jr., Jack-in-the-Box, McDonald's, Burger King)	27540150.0
27540151	0	Fried_chicken_sandwich_with_cheese_lettuce_tomato_and_mayonnaise	Fried chicken sandwich, with cheese, lettuce, tomato and mayonnaise	27540151.0
27540170	0	Fried_chicken_sandwich_miniature_with_mayonnaise_Chick_fil_A_	Fried chicken sandwich, miniature, with mayonnaise (Chick-fil-A)	27540170.0
27540180	0	Chicken_patty_sandwich	Chicken patty sandwich	27540180.0
27540190	0	Fried_chicken_sandwich_with_lettuce_and_mayonnaise_McDonald_s_Burger_King_KFC_	Fried chicken sandwich, with lettuce and mayonnaise (McDonald's, Burger King, KFC)	27540190.0
27540200	0	Chicken_sandwich_fajita_style_on_pita_bread_with_cheese_lettuce_and_tomato_Jack_in_the_Box_	Chicken sandwich, fajita-style, on pita bread, with cheese, lettuce and tomato (Jack-in-the-Box)	27540200.0
27540210	0	Fried_chicken_wrap_sandwich_with_cheese_lettuce_and_creamy_dressing_McDonald_s_	Fried chicken wrap sandwich, with cheese, lettuce, and creamy dressing (McDonald's)	27540210.0
27540235	0	Grilled_chicken_sandwich_with_lettuce_tomato_and_mayonnaise_type_salad_dressing_BK_Chicken_Whopper_	Grilled chicken sandwich, with lettuce, tomato, and mayonnaise-type salad dressing (BK Chicken Whopper)	27540235.0
27540240	0	Grilled_chicken_sandwich_on_whole_wheat_roll_with_lettuce_tomato_and_mayonnaise_type_salad_dressing_Hardee_s_Jack_in_the_Box_	Grilled chicken sandwich, on whole wheat roll, with lettuce, tomato and mayonnaise-type salad dressing (Hardee's, Jack-in-the-Box)	27540240.0
27540250	0	Grilled_chicken_sandwich_on_whole_wheat_roll_with_cheese_lettuce_tomato_and_non_mayonnaise_type_spread_Wendy_s_	Grilled chicken sandwich, on whole wheat roll, with cheese, lettuce, tomato and non-mayonnaise type spread (Wendy's)	27540250.0
27540260	0	Grilled_chicken_sandwich_on_oat_bran_bun_with_lettuce_tomato_and_mayonnaise	Grilled chicken sandwich, on oat bran bun, with lettuce, tomato, and mayonnaise	27540260.0
27540270	0	Grilled_chicken_sandwich_with_lettuce_tomato_and_non_mayonnaise_type_spread_Wendy_s_	Grilled chicken sandwich, with lettuce, tomato, and non-mayonnaise type spread (Wendy's)	27540270.0
27540280	0	Grilled_chicken_sandwich_on_bun_with_cheese_lettuce_tomato_and_mayonnaise_McDonald_s_Carl_s_Jr_	Grilled chicken sandwich, on bun, with cheese, lettuce, tomato and mayonnaise (McDonald's, Carl's Jr.)	27540280.0
27540290	0	Chicken_submarine_sandwich_with_lettuce_tomato_and_teriyaki_sauce_Subway_Jerry_s_	Chicken submarine sandwich, with lettuce, tomato, and teriyaki sauce (Subway, Jerry's)	27540290.0
27540291	0	Chicken_submarine_sandwich_with_cheese_lettuce_tomato_and_mayonnaise	Chicken submarine sandwich, with cheese, lettuce, tomato, and mayonnaise	27540291.0
27540300	0	Grilled_chicken_wrap_with_cheese_lettuce_and_creamy_dressing_McDonald_s_	Grilled chicken wrap, with cheese, lettuce, and creamy dressing (McDonald's)	27540300.0
27540310	0	Turkey_sandwich_with_mayonnaise	Turkey sandwich, with mayonnaise	27540310.0
27540320	0	Turkey_salad_sandwich	Turkey salad sandwich	27540320.0
27540330	0	Turkey_sandwich_with_gravy	Turkey sandwich, with gravy	27540330.0
27540350	0	Turkey_submarine_sandwich_with_cheese_lettuce_tomato_and_mayonnaise_Arby_s_Subway_Jerry_s_	Turkey submarine sandwich, with cheese, lettuce, tomato and mayonnaise (Arby's, Subway, Jerry's)	27540350.0
27541000	0	Club_sandwich_turkey_ham_roast_beef_lettuce_tomato_spread_Subway_	Club sandwich, turkey, ham, roast beef, lettuce, tomato, spread (Subway)	27541000.0
27541001	0	Turkey_ham_and_roast_beef_club_sandwich_with_cheese_lettuce_tomato_and_mayonnaise	Turkey, ham, and roast beef club sandwich with cheese, lettuce, tomato, and mayonnaise	27541001.0
27550000	0	Fish_sandwich_on_bun_with_tartar_sauce_Long_John_Silver_Burger_King_	Fish sandwich, on bun, with tartar sauce (Long John Silver, Burger King)	27550000.0
27550100	0	Fish_sandwich_on_bun_with_cheese_and_tartar_sauce_Hardee_s_Long_John_Silver_s_Carl_s_Jr_McDonald_s_	Fish sandwich, on bun, with cheese and tartar sauce (Hardee's, Long John Silver's, Carl's Jr., McDonald's)	27550100.0
27550110	0	Crab_cake_sandwich_on_bun	Crab cake sandwich, on bun	27550110.0
27550710	0	Tuna_salad_sandwich_with_lettuce	Tuna salad sandwich, with lettuce	27550710.0
27550720	0	Tuna_salad_sandwich	Tuna salad sandwich	27550720.0
27550730	0	Tuna_melt_sandwich	Tuna melt sandwich	27550730.0
27550750	0	Tuna_salad_submarine_sandwich_with_lettuce_and_tomato_Subway_Jerry_s_	Tuna salad submarine sandwich, with lettuce and tomato (Subway, Jerry's)	27550750.0
27550751	0	Tuna_salad_submarine_sandwich_with_cheese_lettuce_and_tomato	Tuna salad submarine sandwich, with cheese, lettuce and tomato	27550751.0
27560110	0	Bologna_sandwich_with_margarine	Bologna sandwich, with margarine	27560110.0
27560120	0	Bologna_and_cheese_sandwich_with_margarine	Bologna and cheese sandwich, with margarine	27560120.0
27560300	0	Corn_dog	Corn dog	27560300.0
27560350	0	Pigs_in_a_blanket_hot_dog_wrapped_in_dough_	Pigs in a blanket (hot dog wrapped in dough)	27560350.0
27560500	0	Italian_sub_with_lettuce_tomato_and_mayonnaise_Subway_Spicy_Italian_	Italian sub, with lettuce, tomato, and mayonnaise (Subway Spicy Italian)	27560500.0
27560650	0	Sausage_on_biscuit_McDonald_s_Hardee_s_Jimmy_Dean_Sausage_Biscuit_	Sausage on biscuit (McDonald's, Hardee's, Jimmy Dean Sausage Biscuit)	27560650.0
27560660	0	Sausage_griddle_cake_sandwich_McDonald_s_Sausage_McGriddles_	Sausage griddle cake sandwich (McDonald's Sausage McGriddles))	27560660.0
27560670	0	Sausage_and_cheese_on_English_muffin_McDonald_s_Sausage_McMuffin_	Sausage and cheese on English muffin (McDonald's Sausage McMuffin)	27560670.0
27560700	0	Sausage_on_biscuit_diet_Weight_Watchers_Sausage_Biscuit_	Sausage on biscuit, diet (Weight Watchers Sausage Biscuit)	27560700.0
27560705	0	Sausage_balls_made_with_biscuit_mix_and_cheese	Sausage balls, made with biscuit mix and cheese	27560705.0
27560710	0	Sausage_sandwich	Sausage sandwich	27560710.0
27560720	0	Italian_sausage_sub_with_marinara	Italian sausage sub, with marinara	27560720.0
27560910	0	Cold_cut_submarine_sandwich_with_cheese_lettuce_tomato_and_spread_Subway_Jerry_s_	Cold cut submarine sandwich, with cheese, lettuce, tomato, and spread (Subway, Jerry's)	27560910.0
27564060	0	Hot_dog_beef_plain_on_bun	Hot dog, beef, plain, on bun	27564060.0
27564070	0	Hot_dog_beef_plain_on_white_bread	Hot dog, beef, plain, on white bread	27564070.0
27564080	0	Hot_dog_beef_plain_on_wheat_bread	Hot dog, beef, plain, on wheat bread	27564080.0
27564100	0	Hot_dog_beef_plain_on_white_wheat_bread	Hot dog, beef, plain, on white wheat bread	27564100.0
27564110	0	Hot_dog_beef_plain_on_mutigrain_bread	Hot dog, beef, plain,  on mutigrain bread	27564110.0
27564120	0	Hot_dog_beef_and_pork_plain_on_bun	Hot dog, beef and pork, plain, on bun	27564120.0
27564130	0	Hot_dog_beef_and_pork_plain_on_white_bread	Hot dog, beef and pork, plain, on white bread	27564130.0
27564140	0	Hot_dog_beef_and_pork_plain_on_wheat_bread	Hot dog, beef and pork, plain, on wheat bread	27564140.0
27564160	0	Hot_dog_beef_and_pork_plain_on_white_wheat_bread	Hot dog, beef and pork, plain, on white wheat bread	27564160.0
27564170	0	Hot_dog_beef_and_pork_plain_on_multigrain_bread	Hot dog, beef and pork, plain, on multigrain bread	27564170.0
27564240	0	Hot_dog_chicken_plain_on_bun	Hot dog, chicken, plain, on bun	27564240.0
27564250	0	Hot_dog_turkey_plain_on_white_bread	Hot dog, turkey, plain, on white bread	27564250.0
27564260	0	Hot_dog_turkey_plain_on_wheat_bread	Hot dog, turkey, plain, on wheat bread	27564260.0
27564280	0	Hot_dog_turkey_plain_on_white_wheat_bread	Hot dog, turkey, plain, on white wheat bread	27564280.0
27564290	0	Hot_dog_chicken_plain_on_multigrain_bread	Hot dog, chicken, plain, on multigrain bread	27564290.0
27564300	0	Hot_dog_reduced_fat_plain_on_bun	Hot dog, reduced fat, plain, on bun	27564300.0
27564310	0	Hot_dog_reduced_fat_plain_on_white_bread	Hot dog, reduced fat, plain, on white bread	27564310.0
27564320	0	Hot_dog_reduced_fat_plain_on_wheat_bread	Hot dog, reduced fat, plain, on wheat bread	27564320.0
27564340	0	Hot_dog_reduced_fat_plain_on_white_wheat_bread	Hot dog, reduced fat, plain, on white wheat bread	27564340.0
27564350	0	Hot_dog_reduced_fat_plain_on_multigrain_bread	Hot dog, reduced fat, plain, on multigrain bread	27564350.0
27564360	0	Hot_dog_fat_free_plain_on_bun	Hot dog, fat free, plain, on bun	27564360.0
27564370	0	Hot_dog_fat_free_plain_on_white_bread	Hot dog, fat free, plain, on white bread	27564370.0
27564380	0	Hot_dog_fat_free_plain_on_wheat_bread	Hot dog, fat free, plain, on wheat bread	27564380.0
27564400	0	Hot_dog_fat_free_plain_on_white_wheat_bread	Hot dog, fat free, plain, on white wheat bread	27564400.0
27564410	0	Hot_dog_fat_free_plain_on_multigrain_bread	Hot dog, fat free, plain, on multigrain bread	27564410.0
27564420	0	Hot_dog_vegetarian_veggie_dog_plain_on_bun	Hot dog, vegetarian (veggie dog), plain, on bun	27564420.0
27564430	0	Hot_dog_vegetarian_veggie_dog_plain_on_bread	Hot dog, vegetarian (veggie dog), plain, on bread	27564430.0
27564450	0	Hot_dog_with_chili_on_white_bread	Hot dog, with chili, on white bread	27564450.0
27564460	0	Hot_dog_with_chili_on_wheat_bread	Hot dog, with chili, on wheat bread	27564460.0
27564480	0	Hot_dog_with_chili_on_white_wheat_bread	Hot dog, with chili, on white wheat bread	27564480.0
27564490	0	Hot_dog_with_chili_on_multigrain_bread	Hot dog, with chili, on multigrain bread	27564490.0
27564500	0	Hot_dog_with_meatless_chili_on_bun	Hot dog, with meatless chili, on bun	27564500.0
27564510	0	Hot_dog_with_meatless_chili_on_white_bread	Hot dog, with meatless chili, on white bread	27564510.0
27564520	0	Hot_dog_with_meatless_chili_on_wheat_bread	Hot dog, with meatless chili, on wheat bread	27564520.0
27564540	0	Hot_dog_with_meatless_chili_on_white_wheat_bread	Hot dog, with meatless chili, on white wheat bread	27564540.0
27564550	0	Hot_dog_with_meatless_chili_on_multigrain_bread	Hot dog, with meatless chili, on multigrain bread	27564550.0
27564560	0	Hot_dog_vegetarian_veggie_dog_with_meatless_chili_on_bun	Hot dog, vegetarian (veggie dog), with meatless chili, on bun	27564560.0
27564570	0	Hot_dog_vegetarian_veggie_dog_with_meatless_chili_on_bread	Hot dog, vegetarian (veggie dog), with meatless chili, on bread	27564570.0
28110120	0	Beef_frozen_meal_with_large_meat_portion_and_potatoes	Beef frozen meal, with large meat portion, and potatoes	28110120.0
28110150	0	Beef_diet_frozen_meal_with_vegetable	Beef diet frozen meal, with vegetable	28110150.0
28110220	0	Chopped_sirloin_beef_frozen_meal_with_gravy_mashed_potatoes_and_vegetable_Swanson_	Chopped sirloin beef frozen meal, with gravy, mashed potatoes, and vegetable (Swanson)	28110220.0
28110250	0	Sirloin_tips_frozen_meal_with_gravy_potatoes_and_vegetable_Budget_Gourmet_	Sirloin tips frozen meal, with gravy, potatoes, and vegetable (Budget Gourmet)	28110250.0
28110310	0	Salisbury_steak_frozen_meal_with_gravy_potatoes_and_vegetable_Armour_Kraft_	Salisbury steak frozen meal, with gravy, potatoes, and vegetable (Armour, Kraft)	28110310.0
28110330	0	Salisbury_steak_frozen_meal_with_gravy_whipped_potatoes_vegetable_and_dessert_Swanson_Morton_	Salisbury steak frozen meal, with gravy, whipped potatoes, vegetable, and dessert (Swanson, Morton)	28110330.0
28110340	0	Salisbury_steak_frozen_meal_with_gravy_potatoes_vegetable_soup_or_macaroni_and_cheese_and_dessert	Salisbury steak frozen meal, with gravy, potatoes, vegetable, soup or macaroni and cheese, and dessert	28110340.0
28110350	0	Salisbury_steak_frozen_meal_with_large_meat_portion_gravy_potatoes_vegetable_and_dessert_Swanson_Hungry_Man_	Salisbury steak frozen meal, with large meat portion, gravy, potatoes, vegetable, and dessert (Swanson Hungry Man)	28110350.0
28110370	0	Salisbury_steak_frozen_meal_with_gravy_macaroni_and_cheese_and_vegetable_Budget_Gourmet_	Salisbury steak frozen meal, with gravy, macaroni and cheese, and vegetable (Budget Gourmet)	28110370.0
28110380	0	Salisbury_steak_frozen_meal_with_gravy_and_macaroni_and_cheese_Swanson_	Salisbury steak frozen meal, with gravy, and macaroni and cheese (Swanson)	28110380.0
28110390	0	Salisbury_steak_diet_frozen_meal_with_potatoes_vegetable_and_dessert_Healthy_Choice_	Salisbury steak diet frozen meal, with potatoes, vegetable, and dessert (Healthy Choice)	28110390.0
28110510	0	Beef_pot_roast_frozen_meal_with_gravy_potatoes_and_vegetable_Banquet_Marie_Callender_s_Michelina_s_Swanson_Stouffer_s_	Beef pot roast frozen meal, with gravy, potatoes, and vegetable (Banquet, Marie Callender's, Michelina's, Swanson, Stouffer's)	28110510.0
28110620	0	Beef_short_ribs_frozen_meal_with_barbecue_sauce_potatoes_and_vegetable_Armour_	Beef short ribs frozen meal, with barbecue sauce, potatoes, and vegetable (Armour)	28110620.0
28110640	0	Swedish_meatballs_frozen_meal_with_sauce_and_noodles_Budget_Gourmet_	Swedish meatballs frozen meal, with sauce, and noodles (Budget Gourmet)	28110640.0
28110660	0	Swedish_meatballs_diet_frozen_meal_with_gravy_and_noodles_Lean_Cuisine_Weight_Watchers_Smart_Ones_Michelina_s_Lean_Gourmet_	Swedish meatballs diet frozen meal, with gravy, and noodles (Lean Cuisine, Weight Watchers Smart Ones, Michelina's Lean Gourmet)	28110660.0
28113110	0	Salisbury_steak_diet_frozen_meal_baked_with_tomato_sauce_and_vegetable_Lean_Cuisine_Weight_Watchers_Smart_Ones_	Salisbury steak diet frozen meal, baked, with tomato sauce, and vegetable (Lean Cuisine, Weight Watchers Smart Ones)	28113110.0
28113140	0	Beef_frozen_meal_with_rice_or_spaetzle_and_vegetable_Stouffer_Budget_Gourmet_	Beef frozen meal, with rice or spaetzle, and vegetable (Stouffer, Budget Gourmet)	28113140.0
28133110	0	Veal_parmigiana_frozen_meal_with_spaghetti_in_tomato_sauce_Stouffer_s_	Veal parmigiana frozen meal, with spaghetti, in tomato sauce (Stouffer's)	28133110.0
28133210	0	Veal_parmigiana_diet_frozen_meal_with_vegetable_Weight_Watchers_	Veal parmigiana diet frozen meal, with vegetable (Weight Watchers)	28133210.0
28133340	0	Veal_parmigiana_frozen_meal_with_vegetable_fettuccine_alfredo_and_dessert_Swanson_	Veal parmigiana frozen meal, with vegetable, fettuccine alfredo, and dessert (Swanson)	28133340.0
28140150	0	Chicken_divan_frozen_meal_Stouffer_	Chicken divan frozen meal (Stouffer)	28140150.0
28140250	0	Boneless_chicken_frozen_meal_with_large_meat_portion_gravy_dressing_rice_vegetable_and_dessert_Swanson_Hungry_Man_	Boneless chicken frozen meal,with large meat portion, gravy, dressing, rice, vegetable, and dessert (Swanson Hungry Man)	28140250.0
28140320	0	Chicken_and_noodles_frozen_meal_with_vegetable_and_dessert	Chicken and noodles frozen meal, with vegetable, and dessert	28140320.0
28140710	0	Fried_chicken_frozen_meal_with_potatoes_and_vegetable_Banquet_	Fried chicken frozen meal, with potatoes, and vegetable (Banquet)	28140710.0
28140720	0	Chicken_nuggets_chicken_patty_frozen_meal_with_potatoes_and_vegetable_Banquet_Select_	Chicken nuggets (chicken patty) frozen meal, with potatoes and vegetable (Banquet Select)	28140720.0
28140730	0	Chicken_parmigiana_frozen_meal_with_fettuccine_alfredo_and_vegetable_Marie_Callender_s_	Chicken parmigiana frozen meal, with fettuccine alfredo, and vegetable (Marie Callender's)	28140730.0
28140740	0	Chicken_nuggets_chicken_patty_frozen_meal_with_pasta_and_tomato_sauce_fruit_and_dessert_Kid_Cuisine_	Chicken nuggets (chicken patty) frozen meal, with pasta and tomato sauce, fruit, and dessert (Kid Cuisine)	28140740.0
28140810	0	Fried_chicken_frozen_meal_with_potatoes_vegetable_and_dessert_Swanson_	Fried chicken frozen meal, with potatoes, vegetable, and dessert (Swanson)	28140810.0
28141010	0	Fried_chicken_frozen_meal_with_large_meat_portion_potatoes_vegetable_and_dessert_Banquet_Hearty_Ones_Swanson_Hungry_Man_Swanson_Hungry_Man_	Fried chicken frozen meal, with large meat portion, potatoes, vegetable, and dessert (Banquet Hearty Ones, Swanson Hungry Man, Swanson Hungry Man)	28141010.0
28141050	0	Chicken_parmigiana_diet_frozen_meal_with_vegetable_Weight_Watchers_	Chicken parmigiana diet frozen meal, with vegetable (Weight Watchers)	28141050.0
28141201	0	Teriyaki_chicken_diet_frozen_meal_with_rice_and_vegetable_Lean_Cuisine_Weight_Watchers_Smart_Ones_Uncle_Ben_s_Rice_Bowl_	Teriyaki chicken diet frozen meal, with rice and vegetable (Lean Cuisine, Weight Watchers Smart Ones, Uncle Ben's Rice Bowl)	28141201.0
28141250	0	Chicken_diet_frozen_meal_with_rice_vegetable_mixture_Lean_Cuisine_	Chicken diet frozen meal, with rice-vegetable mixture (Lean Cuisine)	28141250.0
28141600	0	Chicken_a_la_king_frozen_meal_with_rice_Stouffer_	Chicken a la king frozen meal, with rice (Stouffer)	28141600.0
28141610	0	Chicken_a_la_king_diet_frozen_meal_Weight_Watchers_	Chicken a la king diet frozen meal (Weight Watchers)	28141610.0
28141650	0	Chicken_au_gratin_diet_frozen_meal_with_rice_vegetable_mixture_Budget_Gourmet_	Chicken au gratin diet frozen meal, with rice-vegetable mixture (Budget Gourmet)	28141650.0
28143030	0	Sweet_and_sour_chicken_diet_frozen_meal_Weight_Watchers_	Sweet and sour chicken diet frozen meal (Weight Watchers)	28143030.0
28143040	0	Chicken_chow_mein_diet_frozen_meal_with_rice_Lean_Cuisine_	Chicken chow mein diet frozen meal, with rice (Lean Cuisine)	28143040.0
28143080	0	Chicken_fettucini_diet_frozen_meal_Healthy_Choice_Weight_Watchers_Smart_Ones_Lean_Cuisine_	Chicken fettucini diet frozen meal (Healthy Choice, Weight Watchers Smart Ones, Lean Cuisine)	28143080.0
28143130	0	Chicken_cacciatore_frozen_meal_Banquet_Gourmet_	Chicken cacciatore frozen meal (Banquet Gourmet)	28143130.0
28143150	0	Chicken_and_vegetable_with_noodles_diet_frozen_meal_Lean_Cuisine_Jenny_s_Cuisine_Healthy_Choice_	Chicken and vegetable with noodles diet frozen meal (Lean Cuisine, Jenny's Cuisine, Healthy Choice)	28143150.0
28143180	0	Chicken_diet_frozen_meal_in_butter_sauce_with_potatoes_and_vegetable	Chicken diet frozen meal, in butter sauce, with potatoes and vegetable	28143180.0
28143190	0	Chicken_frozen_meal_in_mushroom_sauce_with_white_and_wild_rice_and_vegetable	Chicken frozen meal, in mushroom sauce, with white and wild rice, and vegetable	28143190.0
28143200	0	Chicken_frozen_meal_in_soy_based_sauce_with_rice_and_vegetables	Chicken frozen meal, in soy-based sauce, with rice and vegetables	28143200.0
28143210	0	Chicken_diet_frozen_meal_in_orange_sauce_with_almond_rice_Lean_Cuisine_	Chicken diet frozen meal, in orange sauce, with almond rice (Lean Cuisine)	28143210.0
28144100	0	Chicken_and_vegetable_with_noodles_and_cream_sauce_frozen_meal_Budget_Gourmet_	Chicken and vegetable with noodles and cream sauce frozen meal (Budget Gourmet)	28144100.0
28145100	0	Turkey_diet_frozen_meal_with_dressing_gravy_vegetable_and_fruit_Healthy_Choice_	Turkey diet frozen meal, with dressing, gravy, vegetable, and fruit (Healthy Choice)	28145100.0
28145110	0	Turkey_diet_frozen_meal_with_vegetable_and_stuffing_Weight_Watchers_Healthy_Choice_	Turkey diet frozen meal, with vegetable and stuffing (Weight Watchers, Healthy Choice)	28145110.0
28145210	0	Turkey_frozen_meal_with_gravy_dressing_potatoes_and_vegetable_Banquet_Value_Swanson_	Turkey frozen meal, with gravy, dressing, potatoes, and vegetable (Banquet Value, Swanson)	28145210.0
28145610	0	Turkey_frozen_meal_with_large_meat_portion_gravy_dressing_potatoes_vegetable_and_dessert_Swanson_Hungry_Man_	Turkey frozen meal, with large meat portion, gravy, dressing, potatoes, vegetable, and dessert (Swanson Hungry Man)	28145610.0
28145710	0	Turkey_tetrazzini_frozen_meal_Stouffer_	Turkey tetrazzini frozen meal (Stouffer)	28145710.0
28150210	0	Fish_diet_frozen_meal_with_creamy_spinach_parmesan_sauce	Fish diet frozen meal, with creamy spinach parmesan sauce	28150210.0
28150220	0	Fish_diet_frozen_meal_with_creamy_parmesan_sauce_and_broccoli	Fish diet frozen meal, with creamy parmesan sauce and broccoli	28150220.0
28150230	0	Fish_diet_frozen_meal_with_peas_and_carrots	Fish diet frozen meal, with peas and carrots	28150230.0
28150510	0	Fish_frozen_meal_with_lemon_butter_sauce_rice_and_vegetable	Fish frozen meal, with lemon-butter sauce, rice, and vegetable	28150510.0
28150650	0	Fish_frozen_meal_with_breaded_fish_or_fish_sticks_pasta_vegetable_and_dessert	Fish frozen meal, with breaded fish or fish sticks, pasta, vegetable and dessert	28150650.0
28150810	0	Scallops_frozen_meal_with_potatoes_and_vegetable	Scallops frozen meal, with potatoes and vegetable	28150810.0
28152050	0	Shrimp_frozen_meal_with_rice_and_vegetable	Shrimp frozen meal, with rice and vegetable	28152050.0
28153010	0	Shrimp_and_clam_marinara_frozen_meal_with_noodles_Budget_Gourmet_	Shrimp and clam marinara frozen meal, with noodles (Budget Gourmet)	28153010.0
28154010	0	Shrimp_primavera_diet_frozen_meal	Shrimp primavera diet frozen meal	28154010.0
28160310	0	Meat_loaf_frozen_meal_with_potatoes_and_vegetable_Banquet_Marie_Callender_s_Stouffer_s_	Meat loaf frozen meal, with potatoes and vegetable (Banquet, Marie Callender's, Stouffer's)	28160310.0
28160650	0	Stuffed_green_pepper_frozen_meal_Green_Giant_	Stuffed green pepper frozen meal (Green Giant)	28160650.0
28160660	0	Stuffed_green_pepper_diet_frozen_meal_Weight_Watchers_	Stuffed green pepper diet frozen meal (Weight Watchers)	28160660.0
28160710	0	Stuffed_cabbage_diet_frozen_meal_Lean_Cuisine_	Stuffed cabbage diet frozen meal (Lean Cuisine)	28160710.0
28310110	0	Broth_beef	Broth, beef	28310110.0
28310120	0	Broth_beef_low_sodium	Broth, beef, low sodium	28310120.0
28310130	0	Broth_beef_dry_bouillon_	Broth, beef, dry (bouillon)	28310130.0
28310140	0	Broth_beef_dry_bouillon_low_sodium	Broth, beef, dry (bouillon), low sodium	28310140.0
28310150	0	Oxtail_soup	Oxtail soup	28310150.0
28310170	0	Broth_beef_homemade	Broth, beef, homemade	28310170.0
28310220	0	Chili_beef_soup_chunky_style	Chili beef soup, chunky style	28310220.0
28310230	0	Meatball_soup_Mexican_style	Meatball soup, Mexican style	28310230.0
28310320	0	Beef_noodle_soup_Puerto_Rican_style	Beef noodle soup, Puerto Rican style	28310320.0
28310330	0	Beef_and_rice_noodle_soup_Oriental_style_Vietnamese_Pho_Bo_	Beef and rice noodle soup, Oriental style (Vietnamese Pho Bo)	28310330.0
28311010	0	Pepperpot_tripe_soup	Pepperpot (tripe) soup	28311010.0
28315100	0	Beef_vegetable_soup_with_potato_stew_type_chunky_style	Beef vegetable soup with potato, stew type, chunky style	28315100.0
28315110	0	Beef_noodle_soup_chunky_style	Beef noodle soup, chunky style	28315110.0
28315120	0	Beef_vegetable_soup_with_noodles_stew_type_chunky_style	Beef vegetable soup with noodles, stew type, chunky style	28315120.0
28315130	0	Beef_vegetable_soup_with_rice_stew_type_chunky_style	Beef vegetable soup with rice, stew type, chunky style	28315130.0
28315140	0	Beef_vegetable_soup_Mexican_style	Beef vegetable soup, Mexican style	28315140.0
28315150	0	Meat_and_corn_hominy_soup_Mexican_style_Pozole_	Meat and corn hominy soup, Mexican style (Pozole)	28315150.0
28315160	0	Italian_Wedding_Soup	Italian Wedding Soup	28315160.0
28317010	0	Beef_stroganoff_soup	Beef stroganoff soup	28317010.0
28320150	0	Pork_and_vegetable_soup_with_potatoes_stew_type_chunky_style	Pork and vegetable soup with potatoes, stew type, chunky style	28320150.0
28330110	0	Scotch_broth_lamb_vegetables_and_barley_	Scotch broth (lamb, vegetables, and barley)	28330110.0
28340100	0	Broth_chicken_fat_free	Broth, chicken, fat free	28340100.0
28340110	0	Broth_chicken_condensed_prepared	Broth, chicken, condensed, prepared	28340110.0
28340119	0	Broth_chicken_dry_bouillon_low_sodium	Broth, chicken, dry (bouillon), low sodium	28340119.0
28340120	0	Broth_chicken_homemade	Broth, chicken, homemade	28340120.0
28340140	0	Broth_chicken_dry_bouillon_	Broth, chicken, dry (bouillon)	28340140.0
28340150	0	Broth_chicken_Mexican_style	Broth, chicken, Mexican style	28340150.0
28340180	0	Broth_chicken_low_sodium	Broth, chicken, low sodium	28340180.0
28340210	0	Chicken_rice_soup_Puerto_Rican_style	Chicken rice soup, Puerto Rican style	28340210.0
28340220	0	Chicken_soup_with_noodles_and_potatoes_Puerto_Rican_style	Chicken soup with noodles and potatoes, Puerto Rican style	28340220.0
28340310	0	Chicken_gumbo_soup	Chicken gumbo soup	28340310.0
28340510	0	Chicken_noodle_soup_chunky_style	Chicken noodle soup, chunky style	28340510.0
28340530	0	Chicken_soup	Chicken soup	28340530.0
28340550	0	Sweet_and_sour_soup	Sweet and sour soup	28340550.0
28340590	0	Chicken_corn_soup_with_noodles_home_recipe	Chicken corn soup with noodles, home recipe	28340590.0
28340610	0	Chicken_or_turkey_vegetable_soup_stew_type	Chicken or turkey vegetable soup, stew type	28340610.0
28340620	0	Turkey_noodle_soup_chunky_style	Turkey noodle soup, chunky style	28340620.0
28340630	0	Chicken_vegetable_soup_with_rice_stew_type_chunky_style	Chicken vegetable soup with rice, stew type, chunky style	28340630.0
28340640	0	Chicken_vegetable_soup_with_noodles_stew_type_chunky_style	Chicken vegetable soup with noodles, stew type, chunky style	28340640.0
28340660	0	Chicken_or_turkey_vegetable_soup_home_recipe	Chicken or turkey vegetable soup, home recipe	28340660.0
28340670	0	Chicken_vegetable_soup_with_rice_Mexican_style	Chicken vegetable soup with rice, Mexican style	28340670.0
28340680	0	Chicken_or_turkey_and_corn_hominy_soup_Mexican_style_Pozole_	Chicken or turkey and corn hominy soup, Mexican style (Pozole)	28340680.0
28340690	0	Chicken_or_turkey_soup_with_potato_vegetable_and_cheese	Chicken or turkey soup, with potato, vegetable, and cheese	28340690.0
28340750	0	Hot_and_sour_soup	Hot and sour soup	28340750.0
28345020	0	Cream_of_chicken_soup_reduced_sodium_made_with_milk	Cream of chicken soup, reduced sodium, made with milk	28345020.0
28345030	0	Cream_of_chicken_soup_reduced_sodium_made_with_water	Cream of chicken soup, reduced sodium, made with water	28345030.0
28345040	0	Cream_of_chicken_soup_canned_reduced_sodium_condensed	Cream of chicken soup, canned, reduced sodium, condensed	28345040.0
28345120	0	Cream_of_chicken_soup_made_with_milk	Cream of chicken soup, made with milk	28345120.0
28345130	0	Cream_of_chicken_soup_made_with_water	Cream of chicken soup, made with water	28345130.0
28345140	0	Cream_of_chicken_soup_canned_condensed	Cream of chicken soup, canned, condensed	28345140.0
28345160	0	Cream_of_chicken_and_mushroom_soup_prepared_with_milk	Cream of chicken and mushroom soup, prepared with milk	28345160.0
28345170	0	Duck_soup	Duck soup	28345170.0
28349999	0	Broth_chicken	Broth, chicken	28349999.0
28350040	0	Fish_stock_home_recipe	Fish stock, home recipe	28350040.0
28350050	0	Fish_chowder	Fish chowder	28350050.0
28350120	0	Crab_soup_tomato_base	Crab soup, tomato-base	28350120.0
28350220	0	Clam_chowder_Manhattan	Clam chowder, Manhattan	28350220.0
28350310	0	Turtle_soup_with_vegetables	Turtle soup, with vegetables	28350310.0
28351110	0	Fish_and_vegetable_soup_no_potatoes	Fish and vegetable soup, no potatoes	28351110.0
28351120	0	Fish_soup_with_potatoes	Fish soup, with potatoes	28351120.0
28355120	0	Clam_chowder_New_England_prepared_with_milk	Clam chowder, New England, prepared with milk	28355120.0
28355130	0	Clam_chowder_New_England_prepared_with_water	Clam chowder, New England, prepared with water	28355130.0
28355140	0	Clam_chowder_New_England_canned_reduced_sodium_ready_to_serve	Clam chowder, New England, canned, reduced sodium, ready-to-serve	28355140.0
28355210	0	Cream_of_crab_soup_made_with_milk	Cream of crab soup, made with milk	28355210.0
28355250	0	Lobster_bisque	Lobster bisque	28355250.0
28355260	0	Lobster_gumbo	Lobster gumbo	28355260.0
28355310	0	Oyster_stew	Oyster stew	28355310.0
28355350	0	Salmon_chowder	Salmon chowder	28355350.0
28355420	0	Cream_of_shrimp_soup_made_milk	Cream of shrimp soup, made milk	28355420.0
28355430	0	Cream_of_shrimp_soup_made_with_water	Cream of shrimp soup, made with water	28355430.0
28355440	0	Shrimp_gumbo	Shrimp gumbo	28355440.0
28355450	0	Seafood_soup_with_potatoes_and_dark_green_leafy_vegetables	Seafood soup with potatoes and dark-green leafy vegetables	28355450.0
28355460	0	Seafood_soup_with_potatoes_no_carrots_and_or_dark_green_vegetables	Seafood soup with potatoes, no carrots and/or dark-green vegetables	28355460.0
28355470	0	Seafood_soup_with_carrots_and_or_dark_green_leafy_vegetables_no_potatoes	Seafood soup with carrots and/or dark-green leafy vegetables, no potatoes	28355470.0
28355480	0	Seafood_soup_with_corn_no_carrots_dark_green_vegetables_or_potatoes	Seafood soup with corn, no carrots, dark-green vegetables, or potatoes	28355480.0
28400000	0	Gelatin_drink_powder_unflavored_unsweetened_reconstituted	Gelatin drink, powder, unflavored, unsweetened, reconstituted	28400000.0
28401200	0	Gelatin_drink_powder_flavored_with_low_calorie_sweetener_reconstituted	Gelatin drink, powder, flavored, with low-calorie sweetener, reconstituted	28401200.0
28410000	0	Bee_pollen	Bee pollen	28410000.0
28500000	0	Gravy_poultry_canned_or_dry_mix	Gravy, poultry, canned or dry mix	28500000.0
28500030	0	Gravy_poultry_low_sodium	Gravy, poultry, low sodium	28500030.0
28500040	0	Gravy_beef_canned_or_dry_mix	Gravy, beef, canned or dry mix	28500040.0
28500050	0	Gravy_giblet	Gravy, giblet	28500050.0
28500060	0	Gravy_beef_low_sodium	Gravy, beef, low sodium	28500060.0
28500070	0	Gravy_beef_home_recipe_made_with_meat_drippings	Gravy, beef, home recipe made with meat drippings	28500070.0
28500070	206621	Gravy_beef_home_recipe_made_with_oil	Gravy, beef, home recipe made with oil	28500070.206621
28500070	206644	Gravy_beef_home_recipe_made_without_fat	Gravy, beef, home recipe made without fat	28500070.206644
28500070	207110	Gravy_beef_home_recipe_made_with_butter	Gravy, beef, home recipe made with butter	28500070.207110
28500080	0	Gravy_poultry_home_recipe_made_with_meat_drippings	Gravy, poultry, home recipe made with meat drippings	28500080.0
28500080	206600	Gravy_poultry_home_recipe_made_without_fat	Gravy, poultry, home recipe made without fat	28500080.206600
28500080	206612	Gravy_poultry_home_recipe_made_with_vegetable_oil	Gravy, poultry, home recipe made with vegetable oil	28500080.206612
28500080	206908	Gravy_poultry_home_recipe_made_with_butter	Gravy, poultry, home recipe made with butter	28500080.206908
28500100	0	Gravy_mushroom_canned_or_dry_mix	Gravy, mushroom, canned or dry mix	28500100.0
28500150	0	Gravy_redeye	Gravy, redeye	28500150.0
28520000	0	Chinese_brown_gravy	Chinese brown gravy	28520000.0
28520100	0	Oyster_sauce	Oyster sauce	28520100.0
28522000	0	Mole_poblano_sauce_	Mole poblano (sauce)	28522000.0
28522050	0	Mole_verde_sauce_	Mole verde (sauce)	28522050.0
31101010	0	Egg_raw	Egg, raw	31101010.0
31103010	0	Egg_hardboiled_with_salt_added	Egg, hardboiled, with salt added	31103010.0
31103010	900000	Eggs_hardboiled_no_salt_added	Eggs, hardboiled, no salt added	31103010.900000
31105010	0	Eggs_fried_no_fat_added	Eggs, fried, no fat added	31105010.0
31105020	0	Egg_fried_in_margarine	Egg, fried in margarine	31105020.0
31105030	0	Eggs_fried_in_oil	Eggs, fried in oil	31105030.0
31105040	0	Egg_fried_in_butter	Egg, fried in butter	31105040.0
31105060	0	Eggs_fried_in_animal_fat	Eggs, fried in animal fat	31105060.0
31105080	0	Egg_fried_with_nonstick_spray	Egg, fried with nonstick spray	31105080.0
31106010	0	Eggs_baked_no_fat_added	Eggs, baked, no fat added	31106010.0
31106020	0	Egg_baked_with_margarine	Egg, baked, with margarine	31106020.0
31106020	200380	Eggs_baked_with_butter	Eggs, baked, with butter	31106020.200380
31106020	205738	Egg_baked_with_vegetable_oil	Egg, baked, with vegetable oil	31106020.205738
31107000	0	Egg_pickled	Egg, pickled	31107000.0
31108010	0	Egg_whites_raw	Egg whites, raw	31108010.0
31109010	0	Egg_whites_cooked_no_fat_added	Egg whites, cooked, no fat added	31109010.0
31109020	0	Egg_whites_cooked_with_margarine	Egg whites, cooked, with margarine	31109020.0
31110010	0	Egg_yolks_raw	Egg yolks, raw	31110010.0
31111010	0	Egg_yolks_cooked_no_fat_added	Egg yolks, cooked, no fat added	31111010.0
31111020	0	Egg_yolks_cooked_with_margarine	Egg yolks, cooked, with margarine	31111020.0
31201000	0	Duck_egg_cooked	Duck egg, cooked	31201000.0
31202000	0	Goose_egg_cooked	Goose egg, cooked	31202000.0
31203000	0	Quail_egg_canned	Quail egg, canned	31203000.0
32101000	0	Egg_creamed	Egg, creamed	32101000.0
32101500	0	Eggs_Benedict_with_margarine	Eggs Benedict, with margarine	32101500.0
32101500	205701	Eggs_Benedict_no_fat_added	Eggs Benedict, no fat added	32101500.205701
32101500	205789	Eggs_Benedict_with_vegetable_oil	Eggs Benedict, with vegetable oil	32101500.205789
32101530	0	Egg_curry	Egg curry	32101530.0
32102000	0	Eggs_deviled	Eggs, deviled	32102000.0
32103000	0	Egg_salad_with_mayonnaise	Egg salad, with mayonnaise	32103000.0
32103000	201521	Egg_salad_with_low_calorie_mayonnaise_type_dressing_miracle_whip_light_	Egg salad, with low calorie mayonnaise-type dressing (miracle whip light)	32103000.201521
32103000	201522	Egg_salad_with_mayonnaise_type_dressing_miracle_whip_	Egg salad, with mayonnaise-type dressing (miracle whip)	32103000.201522
32103000	202102	Egg_salad_with_fat_free_mayonnaise_type_dressing_miracle_whip_free_	Egg salad, with fat free mayonnaise-type dressing (miracle whip free)	32103000.202102
32103000	204234	Egg_salad_with_cholesterol_free_mayonnaise	Egg salad, with cholesterol free mayonnaise	32103000.204234
32103000	204448	Egg_salad_with_low_calorie_mayonnaise	Egg salad, with low calorie mayonnaise	32103000.204448
32103000	207062	Egg_salad_with_imitation_mayonnaise	Egg salad, with imitation mayonnaise	32103000.207062
32105180	0	Huevos_rancheros	Huevos rancheros	32105180.0
32105190	0	Egg_casserole_with_bread_cheese_milk_and_sausage	Egg casserole with bread, cheese, milk and sausage	32105190.0
32105210	0	Chicken_egg_foo_yung	Chicken egg foo yung	32105210.0
32105220	0	Pork_egg_foo_yung	Pork egg foo yung	32105220.0
32105230	0	Shrimp_egg_foo_yung	Shrimp egg foo yung	32105230.0
32105240	0	Beef_egg_foo_yung	Beef egg foo yung	32105240.0
32105310	0	Ripe_plantain_omelet_Puerto_Rican_style	Ripe plantain omelet, Puerto Rican style	32105310.0
32105330	0	Scrambled_eggs_with_jerked_beef_Puerto_Rican_style	Scrambled eggs with jerked beef, Puerto Rican style	32105330.0
32110100	0	Eggs_a_la_Malaguena_Puerto_Rican_style	Eggs a la Malaguena, Puerto Rican style	32110100.0
32110150	0	Shrimp_egg_patty	Shrimp-egg patty	32110150.0
32120100	0	Egg_custard_with_water_and_sugar_Puerto_Rican_style	Egg custard, with water and sugar, Puerto Rican style	32120100.0
32120200	0	Zabaglione	Zabaglione	32120200.0
32130000	0	Scrambled_eggs_plain_cooked_in_margarine	Scrambled eggs, plain, cooked in margarine	32130000.0
32130010	0	Omelet_plain_cooked_in_oil	Omelet, plain, cooked in oil	32130010.0
32130020	0	Scrambled_eggs_plain_cooked_in_butter	Scrambled eggs, plain, cooked in butter	32130020.0
32130040	0	Omelet_plain_cooked_in_animal_fat	Omelet, plain, cooked in animal fat	32130040.0
32130060	0	Scrambled_eggs_plain_cooked_with_nonstick_spray	Scrambled eggs, plain, cooked with nonstick spray	32130060.0
32130070	0	Omelet_plain_cooked_without_fat	Omelet, plain, cooked without fat	32130070.0
32130080	0	Scrambled_eggs_fast_food_restaurant	Scrambled eggs, fast food/restaurant	32130080.0
32130100	0	Omelet_with_cheese_cooked_in_margarine	Omelet, with cheese, cooked in margarine	32130100.0
32130110	0	Scrambled_eggs_with_cheese_cooked_in_oil	Scrambled eggs, with cheese, cooked in oil	32130110.0
32130120	0	Omelet_with_cheese_cooked_in_butter	Omelet, with cheese, cooked in butter	32130120.0
32130140	0	Scrambled_eggs_with_cheese_cooked_in_animal_fat	Scrambled eggs, with cheese, cooked in animal fat	32130140.0
32130160	0	Omelet_with_cheese_cooked_with_nonstick_spray	Omelet, with cheese, cooked with nonstick spray	32130160.0
32130170	0	Scrambled_eggs_with_cheese_cooked_without_fat	Scrambled eggs, with cheese, cooked without fat	32130170.0
32130200	0	Omelet_with_bacon_cooked_in_margarine	Omelet, with bacon, cooked in margarine	32130200.0
32130210	0	Scrambled_eggs_with_sausage_cooked_in_oil	Scrambled eggs, with sausage, cooked in oil	32130210.0
32130220	0	Omelet_with_bacon_cooked_in_butter	Omelet, with bacon, cooked in butter	32130220.0
32130240	0	Scrambled_eggs_with_ham_cooked_in_animal_fat	Scrambled eggs, with ham, cooked in animal fat	32130240.0
32130260	0	Omelet_with_bacon_cooked_with_nonstick_spray	Omelet, with bacon, cooked with nonstick spray	32130260.0
32130270	0	Scrambled_eggs_with_sausage_cooked_without_fat	Scrambled eggs, with sausage, cooked without fat	32130270.0
32130300	0	Omelet_with_bacon_and_cheese_cooked_in_margarine	Omelet, with bacon and cheese, cooked in margarine	32130300.0
32130310	0	Scrambled_eggs_with_sausage_and_cheese_cooked_in_oil	Scrambled eggs, with sausage and cheese, cooked in oil	32130310.0
32130320	0	Omelet_with_bacon_and_cheese_cooked_in_butter	Omelet, with bacon and cheese, cooked in butter	32130320.0
32130340	0	Scrambled_eggs_with_sausage_and_cheese_cooked_in_animal_fat	Scrambled eggs, with sausage and cheese, cooked in animal fat	32130340.0
32130360	0	Omelet_with_bacon_and_cheese_cooked_with_nonstick_spray	Omelet, with bacon and cheese, cooked with nonstick spray	32130360.0
32130370	0	Scrambled_eggs_with_sausage_and_cheese_cooked_without_fat	Scrambled eggs, with sausage and cheese, cooked without fat	32130370.0
32130400	0	Omelet_with_tomatoes_cooked_in_oil	Omelet, with tomatoes, cooked in oil	32130400.0
32130410	0	Scrambled_eggs_with_tomatoes_cooked_without_fat	Scrambled eggs, with tomatoes, cooked without fat	32130410.0
32130430	0	Omelet_with_spinach_cooked_in_oil	Omelet, with spinach, cooked in oil	32130430.0
32130440	0	Scrambled_eggs_with_spinach_cooked_without_fat	Scrambled eggs, with spinach, cooked without fat	32130440.0
32130460	0	Omelet_with_vegetables_cooked_in_oil	Omelet, with vegetables, cooked in oil	32130460.0
32130470	0	Scrambled_eggs_with_vegetables_cooked_without_fat	Scrambled eggs, with vegetables, cooked without fat	32130470.0
32130600	0	Omelet_with_tomatoes_and_cheese_cooked_in_oil	Omelet, with tomatoes and cheese, cooked in oil	32130600.0
32130610	0	Scrambled_eggs_with_tomatoes_and_cheese_cooked_without_fat	Scrambled eggs, with tomatoes and cheese, cooked without fat	32130610.0
32130630	0	Omelet_with_spinach_and_cheese_cooked_in_oil	Omelet, with spinach and cheese, cooked in oil	32130630.0
32130640	0	Scrambled_eggs_with_spinach_and_cheese_cooked_without_fat	Scrambled eggs, with spinach and cheese, cooked without fat	32130640.0
32130660	0	Omelet_with_vegetables_and_cheese_cooked_in_oil	Omelet, with vegetables and cheese, cooked in oil	32130660.0
32130670	0	Scrambled_eggs_with_vegetables_and_cheese_cooked_without_fat	Scrambled eggs, with vegetables and cheese, cooked without fat	32130670.0
32130860	0	Omelet_with_sausage_and_vegetables_cooked_in_oil	Omelet, with sausage and vegetables, cooked in oil	32130860.0
32130870	0	Scrambled_eggs_with_ham_and_vegetables_cooked_without_fat	Scrambled eggs, with ham and vegetables, cooked without fat	32130870.0
32131060	0	Omelet_with_ham_vegetables_and_cheese_cooked_in_oil	Omelet, with ham, vegetables and cheese, cooked in oil	32131060.0
32131070	0	Scrambled_eggs_with_ham_vegetables_and_cheese_cooked_without_fat	Scrambled eggs, with ham, vegetables and cheese, cooked without fat	32131070.0
32131200	0	Omelet_with_potatoes_and_or_onions_cooked_in_oil	Omelet, with potatoes and/or onions, cooked in oil	32131200.0
32131210	0	Scrambled_eggs_with_potatoes_and_or_onions_cooked_without_fat	Scrambled eggs, with potatoes and/or onions, cooked without fat	32131210.0
32201000	0	Fried_egg_sandwich	Fried egg sandwich	32201000.0
32202000	0	Breakfast_sandwich_with_bacon_ham_egg_and_cheese	Breakfast sandwich, with bacon, ham, egg, and cheese	32202000.0
32202010	0	Egg_cheese_and_ham_on_English_muffin_Egg_McMuffin_	Egg, cheese, and ham on English muffin (Egg McMuffin)	32202010.0
32202020	0	Egg_cheese_and_ham_on_biscuit_Ham_Egg_Cheese_Biscuit_	Egg, cheese, and ham on biscuit (Ham, Egg, & Cheese Biscuit)	32202020.0
32202025	0	Egg_cheese_and_ham_on_bagel_Egg_Ham_and_Cheese_breakfast_sandwich_	Egg, cheese, and ham on bagel (Egg, Ham and Cheese breakfast sandwich)	32202025.0
32202030	0	Egg_cheese_and_sausage_on_English_muffin_Sausage_McMuffin_with_egg_	Egg, cheese, and sausage on English muffin (Sausage McMuffin with egg)	32202030.0
32202035	0	Breakfast_sandwich_with_sausage_egg_and_cheese	Breakfast sandwich, with sausage, egg, and cheese	32202035.0
32202040	0	Egg_cheese_and_beef_on_English_Muffin	Egg, cheese, and beef on English Muffin	32202040.0
32202045	0	Egg_cheese_and_steak_on_bagel_Steak_Egg_and_Cheese_Bagel_	Egg, cheese, and steak on bagel (Steak, Egg and Cheese Bagel)	32202045.0
32202050	0	Egg_cheese_and_sausage_on_biscuit_Biscuit_with_Sausage_Egg_and_Cheese_	Egg, cheese, and sausage on biscuit (Biscuit with Sausage, Egg and Cheese)	32202050.0
32202055	0	Egg_cheese_and_sausage_griddle_cake_sandwich_Sausage_Egg_Cheese_McGriddle_	Egg, cheese, and sausage griddle cake sandwich (Sausage, Egg & Cheese McGriddle)	32202055.0
32202060	0	Egg_and_sausage_on_biscuit_Sausage_Egg_Biscuit_	Egg and sausage on biscuit (Sausage & Egg Biscuit)	32202060.0
32202070	0	Egg_cheese_and_bacon_on_biscuit_Bacon_Egg_Cheese_Biscuit_	Egg, cheese, and bacon on biscuit (Bacon, Egg, & Cheese Biscuit)	32202070.0
32202075	0	Egg_cheese_and_bacon_griddle_cake_sandwich_Bacon_Egg_Cheese_McGriddles_	Egg, cheese, and bacon griddle cake sandwich (Bacon, Egg, & Cheese McGriddles)	32202075.0
32202080	0	Egg_cheese_and_bacon_on_English_muffin	Egg, cheese, and bacon on English muffin	32202080.0
32202085	0	Egg_cheese_and_bacon_on_bagel_Bacon_Egg_and_Cheese_Bagel_	Egg, cheese and bacon on bagel (Bacon, Egg, and Cheese Bagel)	32202085.0
32202090	0	Egg_and_bacon_on_biscuit_Bacon_Egg_Biscuit_	Egg and bacon on biscuit (Bacon & Egg Biscuit)	32202090.0
32202110	0	Egg_and_ham_on_biscuit_Ham_Egg_Biscuit_	Egg and ham on biscuit (Ham & Egg Biscuit)	32202110.0
32202120	0	Egg_cheese_and_sausage_on_bagel	Egg, cheese and sausage on bagel	32202120.0
32202130	0	Egg_and_steak_on_biscuit_Steak_Egg_Biscuit_	Egg and steak on biscuit (Steak & Egg Biscuit)	32202130.0
32202200	0	Egg_and_cheese_on_biscuit	Egg and cheese on biscuit	32202200.0
32203010	0	Egg_salad_sandwich	Egg salad sandwich	32203010.0
32204010	0	Scrambled_egg_sandwich	Scrambled egg sandwich	32204010.0
32300100	0	Egg_drop_soup	Egg drop soup	32300100.0
32301100	0	Garlic_egg_soup_Puerto_Rican_style	Garlic egg soup, Puerto Rican style	32301100.0
32400060	0	Scrambled_egg_whites_cooked_in_margarine	Scrambled egg whites, cooked in margarine	32400060.0
32400065	0	Egg_white_omelet_cooked_in_oil	Egg white omelet, cooked in oil	32400065.0
32400070	0	Scrambled_egg_whites_cooked_in_butter	Scrambled egg whites, cooked in butter	32400070.0
32400075	0	Egg_white_omelet_cooked_with_nonstick_spray	Egg white omelet, cooked with nonstick spray	32400075.0
32400080	0	Scrambled_egg_whites_cooked_without_fat	Scrambled egg whites, cooked without fat	32400080.0
32400100	0	Egg_white_omelet_with_cheese_cooked_in_oil	Egg white omelet, with cheese, cooked in oil	32400100.0
32400110	0	Scrambled_egg_whites_with_cheese_cooked_without_fat	Scrambled egg whites, with cheese, cooked without fat	32400110.0
32400200	0	Egg_white_omelet_with_meat_cooked_in_oil	Egg white omelet, with meat, cooked in oil	32400200.0
32400210	0	Scrambled_egg_whites_with_meat_cooked_without_fat	Scrambled egg whites, with meat, cooked without fat	32400210.0
32400300	0	Egg_white_omelet_with_vegetables_cooked_in_oil	Egg white omelet, with vegetables, cooked in oil	32400300.0
32400310	0	Scrambled_egg_whites_with_vegetables_cooked_without_fat	Scrambled egg whites, with vegetables, cooked without fat	32400310.0
32400400	0	Egg_white_omelet_with_meat_and_cheese_cooked_in_oil	Egg white omelet, with meat and cheese, cooked in oil	32400400.0
32400410	0	Scrambled_egg_whites_with_meat_and_cheese_cooked_without_fat	Scrambled egg whites, with meat and cheese, cooked without fat	32400410.0
32400500	0	Egg_white_omelet_with_vegetables_and_cheese_cooked_in_oil	Egg white omelet, with vegetables and cheese, cooked in oil	32400500.0
32400510	0	Scrambled_egg_whites_with_vegetables_and_cheese_cooked_without_fat	Scrambled egg whites, with vegetables and cheese, cooked without fat	32400510.0
32400600	0	Egg_white_omelet_with_meat_and_vegetables_cooked_in_oil	Egg white omelet, with meat and vegetables, cooked in oil	32400600.0
32400610	0	Scrambled_egg_whites_with_meat_and_vegetables_cooked_without_fat	Scrambled egg whites, with meat and vegetables, cooked without fat	32400610.0
32400700	0	Egg_white_omelet_with_meat_vegetables_and_cheese_cooked_in_oil	Egg white omelet, with meat, vegetables, and cheese, cooked in oil	32400700.0
32400710	0	Scrambled_egg_whites_with_meat_vegetables_and_cheese_cooked_without_fat	Scrambled egg whites, with meat, vegetables, and cheese, cooked without fat	32400710.0
32401000	0	Meringues	Meringues	32401000.0
33001000	0	Egg_substitute_Egg_Beaters_scrambled_cooked_in_margarine	Egg substitute, (Egg Beaters) scrambled, cooked in margarine	33001000.0
33001010	0	Omelet_egg_substitute_Egg_Beaters_cooked_in_oil	Omelet, egg substitute (Egg Beaters), cooked in oil	33001010.0
33001020	0	Egg_substitute_Egg_Beaters_scrambled_cooked_in_butter	Egg substitute, (Egg Beaters) scrambled, cooked in butter	33001020.0
33001040	0	Omelet_egg_substitute_Egg_Beaters_cooked_in_nonstick_spray	Omelet, egg substitute (Egg Beaters), cooked in nonstick spray	33001040.0
33001050	0	Egg_substitute_Egg_Beaters_scrambled_cooked_without_fat	Egg substitute, (Egg Beaters) scrambled, cooked without fat	33001050.0
33401000	0	Omelet_egg_substitute_Egg_Beaters_with_cheese_cooked_in_oil	Omelet, egg substitute (Egg Beaters), with cheese, cooked in oil	33401000.0
33401010	0	Egg_substitute_Egg_Beaters_scrambled_with_cheese_cooked_without_fat	Egg substitute, (Egg Beaters) scrambled, with cheese, cooked without fat	33401010.0
33401100	0	Omelet_egg_substitute_Egg_Beaters_with_meat_cooked_in_oil	Omelet, egg substitute (Egg Beaters), with meat, cooked in oil	33401100.0
33401110	0	Egg_substitute_Egg_Beaters_scrambled_with_meat_cooked_without_fat	Egg substitute, (Egg Beaters) scrambled, with meat, cooked without fat	33401110.0
33401200	0	Omelet_egg_substitute_Egg_Beaters_with_vegetables_cooked_in_oil	Omelet, egg substitute (Egg Beaters), with vegetables, cooked in oil	33401200.0
33401210	0	Egg_substitute_Egg_Beaters_scrambled_with_vegetables_cooked_without_fat	Egg substitute, (Egg Beaters) scrambled, with vegetables, cooked without fat	33401210.0
33401300	0	Omelet_egg_substitute_Egg_Beaters_with_meat_and_cheese_cooked_in_oil	Omelet, egg substitute (Egg Beaters), with meat and cheese, cooked in oil	33401300.0
33401310	0	Egg_substitute_Egg_Beaters_scrambled_with_meat_and_cheese_cooked_without_fat	Egg substitute, (Egg Beaters) scrambled, with meat and cheese, cooked without fat	33401310.0
33401400	0	Omelet_egg_substitute_Egg_Beaters_with_vegetables_and_cheese_cooked_in_oil	Omelet, egg substitute (Egg Beaters), with vegetables and cheese, cooked in oil	33401400.0
33401410	0	Egg_substitute_Egg_Beaters_scrambled_with_vegetables_and_cheese_cooked_without_fat	Egg substitute, (Egg Beaters) scrambled, with vegetables and cheese, cooked without fat	33401410.0
33401500	0	Omelet_egg_substitute_Egg_Beaters_with_meat_and_vegetables_cooked_in_oil	Omelet, egg substitute (Egg Beaters), with meat and vegetables, cooked in oil	33401500.0
33401510	0	Egg_substitute_Egg_Beaters_scrambled_with_meat_and_vegetables_cooked_without_fat	Egg substitute, (Egg Beaters) scrambled, with meat and vegetables, cooked without fat	33401510.0
33401600	0	Omelet_egg_substitute_Egg_Beaters_with_meat_vegetables_and_cheese_cooked_without_fat	Omelet, egg substitute (Egg Beaters), with meat, vegetables, and cheese, cooked without fat	33401600.0
33401610	0	Egg_substitute_Egg_Beaters_scrambled_with_meat_vegetables_and_cheese_cooked_in_oil	Egg substitute, (Egg Beaters) scrambled, with meat, vegetables and cheese, cooked in oil	33401610.0
35001000	0	Frozen_meal_scrambled_eggs_sausage_hash_brown_potatoes	Frozen meal, scrambled eggs, sausage, hash brown potatoes	35001000.0
35002000	0	Frozen_meal_scrambled_eggs_bacon_hash_brown_potatoes	Frozen meal, scrambled eggs, bacon, hash brown  potatoes	35002000.0
35003000	0	Frozen_meal_scrambled_eggs_sausage_pancakes	Frozen meal, scrambled eggs, sausage, pancakes	35003000.0
41101110	0	White_beans_canned_or_cooked_with_vegetable_oil	White beans, canned or cooked, with vegetable oil	41101110.0
41101110	100099	White_beans_canned_or_cooked_with_butter	White beans, canned or cooked, with butter	41101110.100099
41101110	101338	White_beans_canned_or_cooked_with_animal_fat	White beans, canned or cooked, with animal fat	41101110.101338
41101110	206238	White_beans_canned_or_cooked_with_vegetable_shortening	White beans, canned or cooked, with vegetable shortening	41101110.206238
41101120	0	White_beans_canned_no_fat_added_	White beans, canned (no fat added)	41101120.0
41101120	900000	Cannellini_beans_cooked_from_dry_no_salt_or_fat_added_	Cannellini beans, cooked from dry (no salt or fat added)	41101120.900000
41101129	0	White_beans_dry	White beans, dry	41101129.0
41101209	0	White_beans_canned_low_sodium	White beans, canned, low sodium	41101209.0
41101250	0	Cannellini_beans_canned_low_sodium	Cannellini beans, canned, low sodium	41101250.0
41102010	0	Black_beans_canned_or_cooked_with_vegetable_oil	Black beans, canned or cooked, with vegetable oil	41102010.0
41102010	101339	Black_beans_canned_or_cooked_with_animal_fat	Black beans, canned or cooked, with animal fat	41102010.101339
41102010	202265	Black_beans_canned_or_cooked_with_margarine	Black beans, canned or cooked, with margarine	41102010.202265
41102010	206464	Black_beans_canned_or_cooked_with_butter	Black beans, canned or cooked, with butter	41102010.206464
41102020	0	Black_beans_canned_no_fat_added_	Black beans, canned (no fat added)	41102020.0
41102020	900000	Black_beans_cooked_from_dry_no_salt_or_fat_added_	Black beans, cooked from dry (no salt or fat added)	41102020.900000
41102029	0	Black_beans_dry	Black beans, dry	41102029.0
41102129	0	Black_beans_canned_low_sodium	Black beans, canned, low sodium	41102129.0
41102210	0	Fava_beans_canned_or_cooked_with_vegetable_oil	Fava beans, canned or cooked, with vegetable oil	41102210.0
41102220	0	Fava_beans_cooked_from_dry_with_salt_no_fat_added_	Fava beans, cooked from dry (with salt, no fat added)	41102220.0
41102220	900000	Fava_beans_cooked_from_dry_no_salt_or_fat_added_	Fava beans, cooked from dry (no salt or fat added)	41102220.900000
41103010	0	Lima_beans_canned_with_vegetable_oil_	Lima beans, canned (with vegetable oil)	41103010.0
41103010	101340	Lima_beans_canned_with_animal_fat_	Lima beans, canned (with animal fat)	41103010.101340
41103010	200691	Lima_beans_canned_with_vegetable_shortening_	Lima beans, canned (with vegetable shortening)	41103010.200691
41103010	201625	Lima_beans_canned_with_butter_	Lima beans, canned (with butter)	41103010.201625
41103010	202637	Lima_beans_canned_with_margarine_	Lima beans, canned (with margarine)	41103010.202637
41103020	0	Lima_beans_canned_no_fat_added_	Lima beans, canned (no fat added)	41103020.0
41103020	900000	Lima_beans_cooked_from_dry_no_salt_or_fat_added_	Lima beans, cooked from dry (no salt or fat added)	41103020.900000
41103029	0	Lima_beans_Fordhook_dry	Lima beans, Fordhook, dry	41103029.0
41103060	0	Pink_beans_canned_no_fat_added_	Pink beans, canned (no fat added)	41103060.0
41103060	900000	Pink_beans_cooked_from_dry_no_salt_or_fat_added_	Pink beans, cooked from dry (no salt or fat added)	41103060.900000
41103069	0	Pink_beans_dry	Pink beans, dry	41103069.0
41103070	0	Pink_beans_canned_or_cooked_with_margarine	Pink beans, canned or cooked, with margarine	41103070.0
41103070	206577	Pink_beans_canned_or_cooked_with_animal_fat	Pink beans, canned or cooked, with animal fat	41103070.206577
41104010	0	Pinto_beans_canned_or_cooked_with_vegetable_oil	Pinto beans, canned or cooked, with vegetable oil	41104010.0
41104010	100416	Pinto_beans_canned_or_cooked_with_butter	Pinto beans, canned or cooked, with butter	41104010.100416
41104010	101336	Pinto_beans_canned_or_cooked_with_animal_fat	Pinto beans, canned or cooked, with animal fat	41104010.101336
41104010	200246	Pinto_beans_canned_or_cooked_with_margarine	Pinto beans, canned or cooked, with margarine	41104010.200246
41104010	200693	Pinto_beans_canned_or_cooked_with_vegetable_shortening	Pinto beans, canned or cooked, with vegetable shortening	41104010.200693
41104020	0	Pinto_beans_cooked_from_dry_with_salt_no_fat_added_	Pinto beans, cooked from dry (with salt, no fat added)	41104020.0
41104020	900000	Pinto_beans_cooked_from_dry_no_salt_or_fat_added_	Pinto beans, cooked from dry (no salt or fat added)	41104020.900000
41104029	0	Pinto_beans_dry	Pinto beans, dry	41104029.0
41104109	0	Pinto_beans_canned_low_sodium	Pinto beans, canned, low sodium	41104109.0
41106010	0	Kidney_beans_canned_or_cooked_with_vegetable_oil	Kidney beans, canned or cooked, with vegetable oil	41106010.0
41106010	101341	Kidney_beans_canned_or_cooked_with_animal_fat	Kidney beans, canned or cooked, with animal fat	41106010.101341
41106010	201294	Kidney_beans_canned_or_cooked_with_margarine	Kidney beans, canned or cooked, with margarine	41106010.201294
41106010	201611	Kidney_beans_canned_or_cooked_with_butter	Kidney beans, canned or cooked, with butter	41106010.201611
41106020	0	Kidney_beans_canned_no_fat_added_	Kidney beans, canned (no fat added)	41106020.0
41106020	900000	Kidney_beans_cooked_from_dry_no_salt_or_fat_added_	Kidney beans, cooked from dry (no salt or fat added)	41106020.900000
41106029	0	Kidney_beans_dry	Kidney beans, dry	41106029.0
41106109	0	Kidney_beans_canned_low_sodium	Kidney beans, canned, low sodium	41106109.0
41107000	0	Soybeans_canned_no_fat_added_	Soybeans, canned (no fat added)	41107000.0
41107000	900000	Soybeans_cooked_from_dry_no_salt_or_fat_added_	Soybeans, cooked from dry (no salt or fat added)	41107000.900000
41107998	0	Soybeans_dry	Soybeans, dry	41107998.0
41107999	0	Edamame_frozen_cooked_no_salt_or_fat_added_	Edamame, frozen, cooked (no salt or fat added)	41107999.0
41108000	0	Mung_beans_cooked_from_dry_with_salt_no_fat_added_	Mung beans, cooked from dry (with salt, no fat added)	41108000.0
41108000	900000	Mung_beans_cooked_from_dry_no_salt_or_fat_added_	Mung beans, cooked from dry (no salt or fat added)	41108000.900000
41108010	0	Mung_beans_cooked_with_margarine	Mung beans, cooked with margarine	41108010.0
41108999	0	Mung_beans_dry	Mung beans, dry	41108999.0
41201020	0	Baked_beans_vegetarian	Baked beans, vegetarian	41201020.0
41202020	0	Chili_beans_barbecue_beans_ranch_style_beans_Mexican_style_beans_	Chili beans (barbecue beans, ranch style beans, Mexican- style beans)	41202020.0
41202505	0	Beans_and_tomatoes_no_fat_added	Beans and tomatoes, no fat added	41202505.0
41202510	0	Beans_and_tomatoes_with_margarine	Beans and tomatoes, with margarine	41202510.0
41203020	0	Kidney_bean_salad_french_dressing_	Kidney bean salad (french dressing)	41203020.0
41203030	0	Black_bean_salad	Black bean salad	41203030.0
41204020	0	Baked_beans_Boston_baked_beans_	Baked beans, (Boston baked beans)	41204020.0
41205010	0	Refried_beans_with_lard_and_oil	Refried beans, with lard and oil	41205010.0
41205010	200060	Refried_beans_with_vegetable_oil	Refried beans, with vegetable oil	41205010.200060
41205010	205551	Refried_beans_with_vegetable_shortening	Refried beans, with vegetable shortening	41205010.205551
41205010	206375	Refried_beans_with_animal_fat	Refried beans, with animal fat	41205010.206375
41205015	0	Refried_beans_no_fat_added	Refried beans, no fat added	41205015.0
41205020	0	Refried_beans_with_cheese	Refried beans, with cheese	41205020.0
41205030	0	Refried_beans_with_sausage	Refried beans, with sausage	41205030.0
41205050	0	Bean_dip_made_with_refried_beans	Bean dip, made with refried beans	41205050.0
41205070	0	Hummus	Hummus	41205070.0
41205100	0	Black_bean_sauce	Black bean sauce	41205100.0
41206030	0	Beans_and_franks_beanie_weenies_	Beans and franks (beanie weenies)	41206030.0
41207030	0	Beans_dry_cooked_with_ground_beef	Beans, dry, cooked with ground beef	41207030.0
41208030	0	Pork_and_beans	Pork and beans	41208030.0
41208100	0	Beans_dry_cooked_with_pork	Beans, dry, cooked with pork	41208100.0
41209000	0	Falafel	Falafel	41209000.0
41210000	0	Bean_cake	Bean cake	41210000.0
41210090	0	Stewed_beans_with_pork_tomatoes_and_chili_peppers_Mexican_style	Stewed beans with pork, tomatoes, and chili peppers, Mexican style	41210090.0
41210100	0	Stewed_red_beans_Puerto_Rican_style	Stewed red beans, Puerto Rican style	41210100.0
41210150	0	Stewed_pink_beans_with_white_potatoes_and_ham_Puerto_Rican_style	Stewed pink beans, with white potatoes and ham, Puerto Rican style	41210150.0
41210200	0	Black_beans_Cuban_style	Black beans, Cuban style	41210200.0
41221010	0	Baked_beans_low_sodium	Baked beans, low sodium	41221010.0
41221020	0	Chili_with_beans	Chili, with beans	41221020.0
41301010	0	Black_eyed_peas_cowpeas_canned_or_cooked_with_margarine	Black-eyed peas (cowpeas), canned or cooked, with margarine	41301010.0
41301010	101343	Black_eyed_peas_cowpeas_canned_or_cooked_with_animal_fat	Black-eyed peas (cowpeas), canned or cooked, with animal fat	41301010.101343
41301010	205743	Black_eyed_peas_cowpeas_canned_or_cooked_with_vegetable_shortening	Black-eyed peas (cowpeas), canned or cooked, with vegetable shortening	41301010.205743
41301010	206778	Black_eyed_peas_cowpeas_canned_or_cooked_with_butter	Black-eyed peas (cowpeas), canned or cooked, with butter	41301010.206778
41301020	0	Black_eyed_peas_cowpeas_canned_no_fat_added_	Black-eyed peas (cowpeas), canned (no fat added)	41301020.0
41301020	900000	Black_eyed_peas_cowpeas_cooked_from_dry_no_salt_or_fat_added_	Black-eyed peas (cowpeas), cooked from dry (no salt or fat added)	41301020.900000
41301029	0	Blackeye_peas_cowpeas_dry	Blackeye peas (cowpeas), dry	41301029.0
41302010	0	Chickpeas_garbanzo_beans_canned_or_cooked_with_vegetable_oil	Chickpeas (garbanzo beans), canned or cooked, with vegetable oil	41302010.0
41302010	101310	Chickpeas_garbanzo_beans_canned_or_cooked_with_margarine	Chickpeas (garbanzo beans), canned or cooked, with margarine	41302010.101310
41302010	204986	Chickpeas_garbanzo_beans_canned_or_cooked_with_butter	Chickpeas (garbanzo beans), canned or cooked, with butter	41302010.204986
41302010	206609	Chickpeas_garbanzo_beans_canned_or_cooked_with_animal_fat	Chickpeas (garbanzo beans), canned or cooked, with animal fat	41302010.206609
41302020	0	Chickpeas_garbanzo_beans_canned_no_fat_added_	Chickpeas (garbanzo beans), canned  (no fat added)	41302020.0
41302020	900000	Chickpeas_garbanzo_beans_cooked_from_dry_no_salt_or_fat_added_	Chickpeas (garbanzo beans), cooked from dry (no salt or fat added)	41302020.900000
41302029	0	Chickpeas_garbanzo_beans_dry	Chickpeas (garbanzo beans), dry	41302029.0
41302130	0	Chickpeas_garbanzo_beans_canned_low_sodium	Chickpeas (garbanzo beans), canned, low sodium	41302130.0
41303000	0	Split_peas_cooked_with_salt_no_fat_added_	Split peas, cooked (with salt, no fat added)	41303000.0
41303000	900000	Split_peas_cooked_no_salt_or_fat_added_	Split peas, cooked (no salt or fat added)	41303000.900000
41303010	0	Split_peas_cooked_with_salt_and_vegetable_oil_	Split peas, cooked (with salt and vegetable oil)	41303010.0
41303500	0	Stewed_green_peas_Puerto_Rican_style	Stewed green peas, Puerto Rican style	41303500.0
41303999	0	Split_peas_green_or_yellow_dry	Split peas, green or yellow, dry	41303999.0
41304000	0	Wasabi_peas	Wasabi peas	41304000.0
41304030	0	Split_peas_cooked_with_salt_and_pork	Split peas, cooked (with salt and pork	41304030.0
41304130	0	Black_eyed_peas_cowpeas_canned_or_cooked_from_dry_with_pork	Black-eyed peas (cowpeas), canned or cooked from dry, with pork	41304130.0
41304990	0	Lentils_cooked_with_vegetable_oil_	Lentils, cooked (with vegetable oil)	41304990.0
41304990	101309	Lentils_cooked_with_margarine_	Lentils, cooked (with margarine)	41304990.101309
41304990	205361	Lentils_cooked_with_vegetable_shortening_	Lentils, cooked (with vegetable shortening)	41304990.205361
41304990	205477	Lentils_cooked_with_butter_	Lentils, cooked (with butter)	41304990.205477
41304990	206623	Lentils_cooked_with_animal_fat_	Lentils, cooked (with animal fat)	41304990.206623
41305000	0	Lentils_cooked_with_salt_no_fat_added_	Lentils, cooked (with salt, no fat added)	41305000.0
41305000	900000	Lentils_cooked_no_salt_or_fat_added_	Lentils, cooked (no salt or fat added)	41305000.900000
41305999	0	Lentils_dry	Lentils, dry	41305999.0
41306000	0	Lentil_loaf	Lentil loaf	41306000.0
41310100	0	Stewed_pigeon_peas_Puerto_Rican_style	Stewed pigeon peas, Puerto Rican style	41310100.0
41310300	0	Blackeye_peas_cowpeas_canned_low_sodium	Blackeye peas (cowpeas), canned, low sodium	41310300.0
41410010	0	Soy_nuts	Soy nuts	41410010.0
41410015	0	Soy_chips	Soy chips	41410015.0
41420050	0	Soybean_curd_cheese	Soybean curd cheese	41420050.0
41420090	0	Tempeh_raw	Tempeh, raw	41420090.0
41420096	0	Tofu_soft	Tofu, soft	41420096.0
41420097	0	Tofu_firm	Tofu, firm	41420097.0
41420098	0	Tofu_extra_firm	Tofu, extra firm	41420098.0
41420099	0	Tempeh_cooked	Tempeh, cooked	41420099.0
41420100	0	Miso_sauce	Miso sauce	41420100.0
41420110	0	Miso_soybean_paste_	Miso (soybean paste)	41420110.0
41420200	0	Natto_fermented_soybean_product_	Natto (fermented soybean product)	41420200.0
41420250	0	Hoisin_sauce	Hoisin sauce	41420250.0
41420300	0	Soy_sauce	Soy sauce	41420300.0
41420350	0	Soy_sauce_reduced_sodium	Soy sauce, reduced sodium	41420350.0
41420380	0	Soy_yogurt	Soy yogurt	41420380.0
41420400	0	Teriyaki_sauce	Teriyaki sauce	41420400.0
41420410	0	Teriyaki_sauce_reduced_sodium	Teriyaki sauce, reduced sodium	41420410.0
41420450	0	Worcestershire_sauce	Worcestershire sauce	41420450.0
41421010	0	Tofu_deep_fried	Tofu, deep fried	41421010.0
41421020	0	Tofu_breaded_fried	Tofu, breaded, fried	41421020.0
41422010	0	Soybean_meal	Soybean meal	41422010.0
41430010	0	Protein_supplement_powdered	Protein supplement, powdered	41430010.0
41430310	0	Protein_diet_powder_with_soy_and_casein	Protein diet powder with soy and casein	41430310.0
41435110	0	High_protein_bar_candy_like_soy_and_milk_base_Tiger_s_milk_	High protein bar, candy-like, soy and milk base (Tiger's milk)	41435110.0
41435120	0	Zone_Perfect_Classic_Crunch_nutrition_bar	Zone Perfect Classic Crunch nutrition bar	41435120.0
41435300	0	Balance_Original_Bar	Balance Original Bar	41435300.0
41435500	0	Clif_Bar	Clif Bar	41435500.0
41435700	0	South_Beach_Living_High_Protein_Cereal_Bar	South Beach Living High Protein Cereal Bar	41435700.0
41435710	0	South_Beach_Living_Meal_Replacement_Bar	South Beach Living Meal Replacement Bar	41435710.0
41440000	0	Textured_vegetable_protein_dry	Textured vegetable protein, dry	41440000.0
41440010	0	Ensure_meal_replacement_or_supplement_	Ensure (meal replacement or supplement)	41440010.0
41440020	0	Ensure_meal_replacement_or_supplement_with_fiber	Ensure (meal replacement or supplement), with fiber	41440020.0
41440050	0	Ensure_Plus_meal_replacement_or_supplement_	Ensure Plus (meal replacement or supplement)	41440050.0
41440100	0	Isocal_or_Osmolite_meal_replacement_or_supplement_	Isocal or Osmolite (meal replacement or supplement)	41440100.0
41480000	0	Tofu_frozen_dessert_other_flavors	Tofu frozen dessert, other flavors	41480000.0
41480010	0	Tofu_frozen_dessert_chocolate	Tofu frozen dessert, chocolate	41480010.0
41502000	0	Beans_and_franks_frozen_dinner	Beans and franks, frozen dinner	41502000.0
41601020	0	Bean_soup_with_bacon_or_pork	Bean soup, with bacon or pork	41601020.0
41601030	0	Black_bean_soup	Black bean soup	41601030.0
41601040	0	Lima_bean_soup	Lima bean soup	41601040.0
41601050	0	Soybean_soup_made_with_milk	Soybean soup, made with milk	41601050.0
41601060	0	Bean_soup_with_macaroni_and_meat	Bean soup, with macaroni and meat	41601060.0
41601070	0	Soybean_soup_miso_broth	Soybean soup, miso broth	41601070.0
41601080	0	Pinto_bean_soup	Pinto bean soup	41601080.0
41601090	0	Bean_soup_with_macaroni	Bean soup, with macaroni	41601090.0
41601100	0	Portuguese_bean_soup	Portuguese bean soup	41601100.0
41601110	0	Bean_and_ham_soup_canned_chunky_style	Bean and ham soup, canned, chunky style	41601110.0
41601120	0	Bean_soup_with_vegetables_rice_and_pork	Bean soup, with vegetables, rice, and pork	41601120.0
41601130	0	Bean_soup_mixed_beans	Bean soup, mixed beans	41601130.0
41601140	0	Bean_soup_home_recipe	Bean soup, home recipe	41601140.0
41601160	0	Bean_and_ham_soup_canned_reduced_sodium	Bean and ham soup, canned, reduced sodium	41601160.0
41601170	0	Bean_and_rice_soup	Bean and rice soup	41601170.0
41601180	0	Bean_and_ham_soup_home_recipe	Bean and ham soup, home recipe	41601180.0
41601200	0	Stewed_kidney_bean_liquid_Puerto_Rican_style	Stewed kidney bean liquid, Puerto Rican style	41601200.0
41602010	0	Pea_and_ham_soup_chunky_style	Pea and ham soup, chunky style	41602010.0
41602020	0	Garbanzo_or_chickpea_soup	Garbanzo or chickpea soup	41602020.0
41602030	0	Split_pea_soup_with_ham	Split pea soup with ham	41602030.0
41602050	0	Split_pea_soup	Split pea soup	41602050.0
41602070	0	Split_pea_soup_canned_reduced_sodium	Split pea soup, canned, reduced sodium	41602070.0
41602090	0	Split_pea_soup_with_ham_canned_reduced_sodium	Split pea soup with ham, canned, reduced sodium	41602090.0
41603010	0	Lentil_soup	Lentil soup	41603010.0
41610100	0	White_bean_soup_Puerto_Rican_style	White bean soup, Puerto Rican style	41610100.0
41810200	0	Bacon_meatless_cooked_vegetarian_	Bacon, meatless, cooked (vegetarian)	41810200.0
41810250	0	Bacon_meatless_bits_vegetarian_	Bacon, meatless, bits (vegetarian)	41810250.0
41810400	0	Breakfast_link_pattie_or_slice_meatless_vegetarian_	Breakfast link, pattie, or slice, meatless (vegetarian)	41810400.0
41810610	0	Chicken_meatless_breaded_fried_vegetarian_	Chicken, meatless, breaded, fried (vegetarian)	41810610.0
41811200	0	Fish_stick_meatless_vegetarian_	Fish stick, meatless (vegetarian)	41811200.0
41811400	0	Hot_dogs_frankfurters_meatless_vegetarian_	Hot dogs, frankfurters, meatless (vegetarian)	41811400.0
41811800	0	Meatballs_meatless_vegetarian_	Meatballs, meatless (vegetarian)	41811800.0
41811890	0	Veggie_or_soy_burger_Boca_burger_Gardenburger_no_bun	Veggie or soy burger (Boca burger, Gardenburger), no bun	41811890.0
41812400	0	Pot_pie_vegetarian	Pot pie, vegetarian	41812400.0
41812450	0	Chili_vegetarian_with_meat_substitute	Chili, vegetarian, with meat substitute	41812450.0
41812500	0	Tofu_stir_fry_including_carrots_broccoli_and_or_dark_green_leafy_vegetables_with_soy_based_sauce	Tofu stir-fry, including carrots, broccoli, and/or dark-green leafy vegetables, with soy-based sauce	41812500.0
41812510	0	Tofu_stir_fry_no_carrots_broccoli_or_dark_green_leafy_vegetables_with_soy_based_sauce	Tofu stir-fry, no carrots, broccoli, or dark-green leafy vegetables, with soy-based sauce	41812510.0
41812800	0	Stew_vegetarian	Stew, vegetarian	41812800.0
41812850	0	Stroganoff_vegetarian_made_with_meat_substitute_	Stroganoff, vegetarian (made with meat substitute)	41812850.0
41812900	0	Meat_loaf_or_patties_vegetarian_made_with_meat_substitute_	Meat loaf or patties, vegetarian (made with meat substitute)	41812900.0
41813000	0	Bouillon_vegetarian_dry	Bouillon, vegetarian, dry	41813000.0
41901020	0	Soyburger_meatless_with_cheese_on_bun	Soyburger, meatless, with cheese on bun	41901020.0
42101000	0	Almonds_unroasted	Almonds, unroasted	42101000.0
42101100	0	Almonds_roasted	Almonds, roasted	42101100.0
42101200	0	Almonds_dry_roasted_salted	Almonds, dry roasted, salted	42101200.0
42101210	0	Almonds_dry_roasted_without_salt	Almonds, dry roasted, without salt	42101210.0
42101350	0	Almonds_honey_roasted	Almonds, honey-roasted	42101350.0
42102000	0	Brazil_nuts	Brazil nuts	42102000.0
42104100	0	Cashew_nuts_roasted_salted	Cashew nuts, roasted, salted	42104100.0
42104110	0	Cashews_roasted_without_salt	Cashews, roasted, without salt	42104110.0
42104200	0	Cashews_dry_roasted_salted	Cashews, dry roasted, salted	42104200.0
42104205	0	Cashew_nuts_dry_roasted_without_salt	Cashew nuts, dry roasted, without salt	42104205.0
42104500	0	Cashew_nuts_honey_roasted	Cashew nuts, honey-roasted	42104500.0
42105000	0	Chestnuts_roasted	Chestnuts, roasted	42105000.0
42106000	0	Coconut_meat_fresh	Coconut meat, fresh	42106000.0
42106020	0	Coconut_meat_dried_sweetened	Coconut meat, dried, sweetened	42106020.0
42107000	0	Filberts_hazelnuts	Filberts, hazelnuts	42107000.0
42109000	0	Macadamia_nuts_unroasted	Macadamia nuts, unroasted	42109000.0
42109100	0	Macadamia_nuts_roasted	Macadamia nuts, roasted	42109100.0
42110100	0	Mixed_nuts_roasted_with_peanuts	Mixed nuts, roasted, with peanuts	42110100.0
42110150	0	Mixed_nuts_roasted_without_peanuts	Mixed nuts, roasted, without peanuts	42110150.0
42110200	0	Mixed_nuts_dry_roasted	Mixed nuts, dry roasted	42110200.0
42110300	0	Mixed_nuts_honey_roasted_with_peanuts	Mixed nuts, honey-roasted, with peanuts	42110300.0
42111030	0	Peanuts_boiled	Peanuts, boiled	42111030.0
42111100	0	Peanuts_roasted_salted	Peanuts, roasted, salted	42111100.0
42111110	0	Peanuts_roasted_without_salt	Peanuts, roasted, without salt	42111110.0
42111200	0	Peanuts_dry_roasted_salted	Peanuts, dry roasted, salted	42111200.0
42111210	0	Peanuts_dry_roasted_without_salt	Peanuts, dry roasted, without salt	42111210.0
42111500	0	Peanuts_honey_roasted	Peanuts, honey-roasted	42111500.0
42112000	0	Pecans	Pecans	42112000.0
42113000	0	Pine_nuts	Pine nuts	42113000.0
42114991	0	Pistachios_with_salt	Pistachios, with salt	42114991.0
42114992	0	Pistachios_without_salt	Pistachios, without salt	42114992.0
42116000	0	Walnuts	Walnuts	42116000.0
42116100	0	Walnuts_honey_roasted	Walnuts, honey-roasted	42116100.0
42200500	0	Almond_butter	Almond butter	42200500.0
42200600	0	Almond_paste_Marzipan_paste_	Almond paste (Marzipan paste)	42200600.0
42201000	0	Cashew_butter	Cashew butter	42201000.0
42202010	0	Peanut_butter_unsalted_low_sodium_	Peanut butter, unsalted (low sodium)	42202010.0
42202050	0	Peanut_butter_chunky	Peanut butter, chunky	42202050.0
42202060	0	Peanut_butter_creamy	Peanut butter, creamy	42202060.0
42202100	0	Peanut_butter_reduced_sodium_and_reduced_sugar	Peanut butter, reduced sodium and reduced sugar	42202100.0
42202130	0	Peanut_butter_reduced_sugar	Peanut butter, reduced sugar	42202130.0
42202150	0	Peanut_butter_reduced_fat	Peanut butter, reduced fat	42202150.0
42202200	0	Peanut_butter_vitamin_and_mineral_fortified	Peanut butter, vitamin and mineral fortified	42202200.0
42203000	0	Peanut_butter_and_jelly	Peanut butter and jelly	42203000.0
42204050	0	Peanut_sauce	Peanut sauce	42204050.0
42204100	0	Gravy_brown_nut_vegetarian	Gravy, brown nut, vegetarian	42204100.0
42301010	0	Peanut_butter_sandwich	Peanut butter sandwich	42301010.0
42302010	0	Peanut_butter_and_jelly_sandwich	Peanut butter and jelly sandwich	42302010.0
42303010	0	Peanut_butter_and_banana_sandwich	Peanut butter and banana sandwich	42303010.0
42401010	0	Coconut_milk_canned	Coconut milk, canned	42401010.0
42402010	0	Coconut_cream_canned_sweetened	Coconut cream, canned, sweetened	42402010.0
42403010	0	Coconut_water_liquid_from_coconuts_	Coconut water (liquid from coconuts)	42403010.0
42404010	0	Coconut_water_canned_or_bottled	Coconut water, canned or bottled	42404010.0
42501000	0	Trail_mix_nut_mix_with_dried_fruit_and_seeds	Trail mix, nut mix with dried fruit and seeds	42501000.0
42501500	0	Trail_mix_nut_mix_with_dried_fruit_seeds_and_chocolate	Trail mix, nut mix with dried fruit, seeds, and chocolate	42501500.0
42502000	0	Trail_mix_nut_mix_with_seeds	Trail mix, nut mix with seeds	42502000.0
43101000	0	Pumpkin_or_squash_seeds_unroasted	Pumpkin or squash seeds, unroasted	43101000.0
43101100	0	Pumpkin_or_squash_seeds_roasted_salted	Pumpkin or squash seeds, roasted, salted	43101100.0
43101150	0	Pumpkin_or_squash_seeds_roasted_without_salt	Pumpkin or squash seeds, roasted, without salt	43101150.0
43102000	0	Sunflower_seeds_unroasted	Sunflower seeds, unroasted	43102000.0
43102005	0	Sunflower_seeds_hulled_unroasted_salted	Sunflower seeds, hulled, unroasted, salted	43102005.0
43102100	0	Sunflower_seeds_roasted_salted	Sunflower seeds, roasted, salted	43102100.0
43102110	0	Sunflower_seeds_roasted_without_salt	Sunflower seeds, roasted, without salt	43102110.0
43102200	0	Sunflower_seeds_dry_roasted	Sunflower seeds, dry roasted	43102200.0
43103000	0	Sesame_seeds	Sesame seeds	43103000.0
43103100	0	Sesame_sauce	Sesame sauce	43103100.0
43103200	0	Sesame_paste_sesame_butter_made_from_whole_seeds_	Sesame paste (sesame butter made from whole seeds)	43103200.0
43103300	0	Tahini_sesame_butter_made_from_kernels_	Tahini (sesame butter made from kernels)	43103300.0
43104000	0	Flax_seeds	Flax seeds	43104000.0
43105200	0	Psyllium_seed_husks	Psyllium seed, husks	43105200.0
43106990	0	Sunflower_seed_butter_without_salt	Sunflower seed butter, without salt	43106990.0
43106991	0	Sunflower_seed_butter_with_salt	Sunflower seed butter, with salt	43106991.0
43106992	0	Poppy_seeds	Poppy seeds	43106992.0
43106993	0	Mustard_seed	Mustard seed	43106993.0
43106994	0	Cumin_seed	Cumin seed	43106994.0
43106995	0	Coriander_seed	Coriander seed	43106995.0
43106996	0	Celery_seed	Celery seed	43106996.0
43106997	0	Caraway_seed	Caraway seed	43106997.0
43106998	0	Anise_seed	Anise seed	43106998.0
43106999	0	Chia_seeds	Chia seeds	43106999.0
43107000	0	Mixed_seeds_pumpkin_and_sunflower_seeds_	Mixed seeds (pumpkin and sunflower seeds)	43107000.0
44101000	0	Carob_powder_or_flour	Carob powder or flour	44101000.0
44201000	0	Carob_chips	Carob chips	44201000.0
44202000	0	Carob_syrup	Carob syrup	44202000.0
50000008	0	Pie_crust_refrigerated_baked	Pie crust, refrigerated, baked	50000008.0
50000009	0	Pie_crust_frozen_ready_to_bake	Pie crust, frozen, ready-to-bake	50000009.0
50010000	0	Flour_white_all_purpose	Flour, white, all-purpose	50010000.0
50015000	0	Flour_rye	Flour, rye	50015000.0
50020000	0	Flour_whole_wheat	Flour, whole wheat	50020000.0
50030000	0	Biscuit_mix	Biscuit mix	50030000.0
50049990	0	Cornmeal_yellow_whole_grain	Cornmeal, yellow, whole grain	50049990.0
50049991	0	Cornmeal_yellow_enriched_and_degerminated	Cornmeal, yellow, enriched and degerminated	50049991.0
50049992	0	Flour_rice_brown	Flour, rice, brown	50049992.0
50049993	0	Flour_rice_white	Flour, rice, white	50049993.0
50049994	0	Flour_white_cake	Flour, white, cake	50049994.0
50049995	0	Flour_white_self_rising	Flour, white, self-rising	50049995.0
50049996	0	Flour_corn_masa_white	Flour, corn, masa, white	50049996.0
50049997	0	Flour_corn_masa_yellow	Flour, corn, masa, yellow	50049997.0
50049998	0	Flour_corn_whole_grain_white	Flour, corn, whole grain, white	50049998.0
50049999	0	Flour_corn_whole_grain_yellow	Flour, corn, whole grain, yellow	50049999.0
51101000	0	Bread_white	Bread, white	51101000.0
51101050	0	Bread_white_homemade_or_bakery	Bread, white, homemade or bakery	51101050.0
51102010	0	Bread_white_with_whole_wheat_swirl	Bread, white, with whole wheat swirl	51102010.0
51105010	0	Bread_Cuban	Bread, Cuban	51105010.0
51107010	0	Bread_French_or_Vienna	Bread, French or Vienna	51107010.0
51108010	0	Focaccia_Italian_flatbread_plain	Focaccia, Italian flatbread, plain	51108010.0
51108100	0	Naan_Indian_flatbread	Naan, Indian flatbread	51108100.0
51109010	0	Bread_Italian	Bread, Italian	51109010.0
51109100	0	Bread_pita	Bread, pita	51109100.0
51111010	0	Bread_cheese	Bread, cheese	51111010.0
51113010	0	Bread_cinnamon	Bread, cinnamon	51113010.0
51115010	0	Bread_cornmeal_and_molasses	Bread, cornmeal and molasses	51115010.0
51119010	0	Bread_egg_Challah	Bread, egg, Challah	51119010.0
51121010	0	Bread_garlic	Bread, garlic	51121010.0
51121110	0	Bread_onion	Bread, onion	51121110.0
51122050	0	Bread_Italian_reduced_calorie_or_high_fiber	Bread, Italian, reduced calorie or high fiber	51122050.0
51122300	0	Bread_white_added_fiber	Bread, white, added fiber	51122300.0
51123010	0	Bread_high_protein	Bread, high protein	51123010.0
51127010	0	Bread_potato	Bread, potato	51127010.0
51129010	0	Bread_raisin	Bread, raisin	51129010.0
51130510	0	Bread_white_low_sodium_or_no_salt	Bread, white, low sodium or no salt	51130510.0
51133010	0	Bread_sour_dough	Bread, sour dough	51133010.0
51134000	0	Bread_sweetpotato	Bread, sweetpotato	51134000.0
51135000	0	Bread_vegetable	Bread, vegetable	51135000.0
51140100	0	Bread_dough_fried	Bread, dough, fried	51140100.0
51150000	0	Hot_dog_bun_white	Hot dog bun, white	51150000.0
51151060	0	Roll_white_soft_homemade_or_bakery	Roll, white, soft, homemade or bakery	51151060.0
51153000	0	Rolls_white_hard	Rolls, white, hard	51153000.0
51154550	0	Rolls_egg_bread	Rolls, egg bread	51154550.0
51154600	0	Roll_cheese	Roll, cheese	51154600.0
51155000	0	Rolls_French_or_Vienna	Rolls, French or Vienna	51155000.0
51156500	0	Roll_garlic	Roll, garlic	51156500.0
51157000	0	Rolls_hoagie_submarine	Rolls, hoagie, submarine	51157000.0
51158100	0	Roll_Mexican_bolillo	Roll, Mexican, bolillo	51158100.0
51159000	0	Rolls_sour_dough	Rolls, sour dough	51159000.0
51160000	0	Roll_sweet	Roll, sweet	51160000.0
51160100	0	Rolls_sweet_cinnamon_bun_no_frosting	Rolls, sweet, cinnamon bun, no frosting	51160100.0
51160110	0	Roll_sweet_cinnamon_bun_frosted	Roll, sweet, cinnamon bun, frosted	51160110.0
51161000	0	Roll_sweet_cinnamon_bun_with_raisins_no_frosting	Roll, sweet, cinnamon bun, with raisins, no frosting	51161000.0
51161020	0	Rolls_sweet_cinnamon_bun_with_raisins_frosted	Rolls, sweet, cinnamon bun, with raisins, frosted	51161020.0
51161050	0	Roll_sweet_cinnamon_bun_with_raisins_and_nuts_frosted	Roll, sweet, cinnamon bun, with raisins and nuts, frosted	51161050.0
51161070	0	Roll_sweet_cinnamon_bun_with_apples_and_raisins_frosted_fat_free	Roll, sweet, cinnamon bun, with apples and raisins, frosted, fat free	51161070.0
51161100	0	Roll_sweet_cinnamon_bun_with_raisins_and_nuts_no_frosting	Roll, sweet, cinnamon bun, with raisins and nuts, no frosting	51161100.0
51161200	0	Roll_sweet_cinnamon_bun_with_nuts_no_frosting	Roll, sweet, cinnamon bun, with nuts, no frosting	51161200.0
51161250	0	Roll_sweet_no_topping_Mexican_Pan_Dulce_	Roll, sweet, no topping, Mexican (Pan Dulce)	51161250.0
51161270	0	Rolls_sweet_sugar_topping_Mexican_Pan_Dulce_	Rolls, sweet, sugar topping, Mexican (Pan Dulce)	51161270.0
51161280	0	Roll_sweet_with_raisins_and_icing_Mexican_Pan_Dulce_	Roll, sweet, with raisins and icing, Mexican (Pan Dulce)	51161280.0
51165000	0	Coffee_cake_yeast_type	Coffee cake, yeast type	51165000.0
51165060	0	Coffee_cake_yeast_type_homemade_or_bakery	Coffee cake, yeast type, homemade or bakery	51165060.0
51165100	0	Coffee_cake_yeast_type_fat_free_cholesterol_free_with_fruit	Coffee cake, yeast type, fat free, cholesterol free, with fruit	51165100.0
51166000	0	Croissant	Croissant	51166000.0
51166100	0	Croissant_cheese	Croissant, cheese	51166100.0
51166200	0	Croissant_chocolate	Croissant, chocolate	51166200.0
51166500	0	Croissant_fruit	Croissant, fruit	51166500.0
51166700	0	Croissant_nut	Croissant, nut	51166700.0
51167000	0	Brioche	Brioche	51167000.0
51168000	0	Bread_Spanish_coffee	Bread, Spanish coffee	51168000.0
51180010	0	Bagel	Bagel	51180010.0
51180030	0	Bagel_with_raisins	Bagel, with raisins	51180030.0
51180080	0	Bagel_with_blueberries	Bagel, with blueberries	51180080.0
51182010	0	Bread_stuffing	Bread stuffing	51182010.0
51182020	0	Bread_stuffing_made_with_egg	Bread stuffing, made with egg	51182020.0
51184000	0	Bread_stick_hard	Bread stick, hard	51184000.0
51184010	0	Bread_sticks_soft	Bread sticks, soft	51184010.0
51184030	0	Bread_stick_soft_prepared_with_garlic_and_parmesan_cheese	Bread stick, soft, prepared with garlic and parmesan cheese	51184030.0
51185000	0	Croutons	Croutons	51185000.0
51185999	0	Bread_crumbs_seasoned	Bread crumbs, seasoned	51185999.0
51186010	0	English_muffin	English muffin	51186010.0
51186100	0	English_muffin_with_raisins	English muffin, with raisins	51186100.0
51187000	0	Melba_toast	Melba toast	51187000.0
51187020	0	Anisette_toast	Anisette toast	51187020.0
51188100	0	Pannetone_Italian_style_sweetbread_	Pannetone (Italian-style sweetbread)	51188100.0
51188500	0	Zwieback_toast	Zwieback toast	51188500.0
51199999	0	Bread_crumbs_plain	Bread crumbs, plain	51199999.0
51201010	0	Bread_100_whole_wheat	Bread, 100% whole wheat	51201010.0
51201060	0	Bread_100_whole_wheat_homemade_or_bakery	Bread, 100% whole wheat, homemade or bakery	51201060.0
51201110	0	Bread_100_whole_wheat_with_raisins	Bread, 100% whole wheat, with raisins	51201110.0
51201150	0	Bread_pita_100_whole_wheat	Bread, pita, 100% whole wheat	51201150.0
51202000	0	English_muffin_whole_wheat_100_	English muffin, whole wheat, 100%	51202000.0
51202050	0	English_muffin_100_whole_wheat_with_raisins	English muffin, 100% whole wheat, with raisins	51202050.0
51204010	0	Bread_wheat_germ	Bread, wheat germ	51204010.0
51207010	0	Bread_sprouted_wheat	Bread, sprouted wheat	51207010.0
51208000	0	Bagel_100_whole_wheat	Bagel, 100% whole wheat	51208000.0
51208100	0	Bagel_100_whole_wheat_with_raisins	Bagel, 100% whole wheat, with raisins	51208100.0
51220000	0	Hamburger_bun_100_whole_wheat	Hamburger bun, 100% whole wheat	51220000.0
51220030	0	Roll_100_whole_wheat_homemade_or_bakery	Roll, 100% whole wheat, homemade or bakery	51220030.0
51300050	0	Bread_white_whole_wheat	Bread, white whole wheat	51300050.0
51300180	0	Bread_puri_or_poori_Indian_puffed_bread_whole_wheat_fried	Bread, puri or poori (Indian puffed bread), whole wheat, fried	51300180.0
51301010	0	Bread_wheat_or_cracked_wheat	Bread, wheat or cracked wheat	51301010.0
51301040	0	Bread_wheat_or_cracked_wheat_homemade_or_bakery	Bread, wheat or cracked wheat, homemade or bakery	51301040.0
51301120	0	Bread_wheat_or_cracked_wheat_with_raisins	Bread, wheat or cracked wheat, with raisins	51301120.0
51301510	0	Bread_wheat_or_cracked_wheat_reduced_calorie_or_high_fiber	Bread, wheat or cracked wheat, reduced calorie or high fiber	51301510.0
51301540	0	Bread_French_or_Vienna_whole_wheat_homemade_or_bakery	Bread, French or Vienna, whole wheat, homemade or bakery	51301540.0
51301620	0	Bread_pita_wheat_or_cracked_wheat	Bread, pita, wheat or cracked wheat	51301620.0
51301700	0	Bagel_wheat	Bagel, wheat	51301700.0
51301800	0	Bagel_wheat_with_raisins	Bagel, wheat, with raisins	51301800.0
51301820	0	Bagel_wheat_with_fruit_and_nuts	Bagel, wheat, with fruit and nuts	51301820.0
51301900	0	Bagel_wheat_bran	Bagel, wheat bran	51301900.0
51302010	0	Bread_wheat_bran	Bread, wheat bran	51302010.0
51302050	0	Bread_wheat_bran_with_raisins	Bread, wheat bran, with raisins	51302050.0
51302500	0	English_muffin_wheat_bran	English muffin, wheat bran	51302500.0
51303010	0	English_muffin_wheat_or_cracked_wheat	English muffin, wheat or cracked wheat	51303010.0
51303050	0	English_muffin_wheat_or_cracked_wheat_with_raisins	English muffin, wheat or cracked wheat, with raisins	51303050.0
51320010	0	Hamburger_bun_wheat_or_cracked_wheat	Hamburger bun, wheat or cracked wheat	51320010.0
51320040	0	Rolls_wheat_or_cracked_wheat_homemade_or_bakery	Rolls, wheat or cracked wheat, homemade or bakery	51320040.0
51401010	0	Bread_rye	Bread, rye	51401010.0
51401030	0	Bread_marble_rye	Bread, marble rye	51401030.0
51401060	0	Bread_rye_reduced_calorie_or_high_fiber	Bread, rye, reduced calorie or high fiber	51401060.0
51401200	0	English_muffin_rye	English muffin, rye	51401200.0
51404010	0	Bread_pumpernickel	Bread, pumpernickel	51404010.0
51404500	0	Bagel_pumpernickel	Bagel, pumpernickel	51404500.0
51407010	0	Bread_black	Bread, black	51407010.0
51420000	0	Roll_rye	Roll, rye	51420000.0
51421000	0	Rolls_pumpernickel	Rolls, pumpernickel	51421000.0
51501010	0	Bread_oatmeal	Bread, oatmeal	51501010.0
51501040	0	Bread_oat_bran	Bread, oat bran	51501040.0
51501060	0	Bread_oat_bran_reduced_calorie_or_high_fiber	Bread, oat bran, reduced calorie or high fiber	51501060.0
51501080	0	Bagel_oat_bran	Bagel, oat bran	51501080.0
51502010	0	Rolls_oatmeal	Rolls, oatmeal	51502010.0
51502100	0	Roll_oat_bran	Roll, oat bran	51502100.0
51503000	0	English_muffin_oat_bran	English muffin, oat bran	51503000.0
51601020	0	Bread_multigrain	Bread, multigrain	51601020.0
51601210	0	Bread_multigrain_with_raisins	Bread, multigrain, with raisins	51601210.0
51602010	0	Bread_multigrain_reduced_calorie_or_high_fiber	Bread, multigrain, reduced calorie or high fiber	51602010.0
51620000	0	Hot_dog_bun_multigrain	Hot dog bun, multigrain	51620000.0
51630000	0	Bagel_multigrain	Bagel, multigrain	51630000.0
51630100	0	Bagel_multigrain_with_raisins	Bagel, multigrain, with raisins	51630100.0
51630200	0	English_muffin_multigrain	English muffin, multigrain	51630200.0
51801010	0	Bread_barley	Bread, barley	51801010.0
51803010	0	Bread_buckwheat	Bread, buckwheat	51803010.0
51804010	0	Bread_soy	Bread, soy	51804010.0
51805010	0	Bread_sunflower_meal	Bread, sunflower meal	51805010.0
51806010	0	Bread_rice	Bread, rice	51806010.0
51807000	0	Injera_Ethiopian_bread_	Injera (Ethiopian bread)	51807000.0
51808000	0	Bread_low_gluten	Bread, low gluten	51808000.0
52101030	0	Biscuit_dough_fried	Biscuit dough, fried	52101030.0
52101040	0	Crumpet	Crumpet	52101040.0
52101100	0	Biscuit_baking_powder_or_buttermilk_from_mix	Biscuit, baking powder or buttermilk, from mix	52101100.0
52101150	0	Biscuits_baking_powder_or_buttermilk_from_refrigerated_dough_lowfat	Biscuits, baking powder or buttermilk, from refrigerated dough, lowfat	52101150.0
52102040	0	Biscuit_baking_powder_or_buttermilk_from_refrigerated_dough	Biscuit, baking powder or buttermilk, from refrigerated dough	52102040.0
52103000	0	Biscuit_baking_powder_or_buttermilk_fast_food	Biscuit, baking powder or buttermilk, fast food	52103000.0
52104010	0	Biscuits_baking_powder_or_buttermilk_homemade	Biscuits, baking powder or buttermilk, homemade	52104010.0
52104040	0	Biscuit_whole_wheat	Biscuit, whole wheat	52104040.0
52104100	0	Biscuits_cheese	Biscuits, cheese	52104100.0
52104200	0	Biscuit_cinnamon_raisin	Biscuit, cinnamon-raisin	52104200.0
52105100	0	Scones	Scones	52105100.0
52105110	0	Scone_whole_wheat	Scone, whole wheat	52105110.0
52105200	0	Scones_with_raisins	Scones, with raisins	52105200.0
52201000	0	Cornbread_from_mix	Cornbread, from mix	52201000.0
52202060	0	Cornbread_homemade	Cornbread, homemade	52202060.0
52204000	0	Cornbread_stuffing	Cornbread stuffing	52204000.0
52206010	0	Cornbread_muffin	Cornbread muffin	52206010.0
52206060	0	Cornbread_muffin_homemade	Cornbread muffin, homemade	52206060.0
52208010	0	Corn_pone_baked	Corn pone, baked	52208010.0
52208020	0	Corn_pone_fried	Corn pone, fried	52208020.0
52208750	0	Gordita_shell_no_filling_grilled_no_fat_added	Gordita shell, no filling, grilled, no fat added	52208750.0
52208760	0	Gordita_shell_no_filling_fried_in_oil	Gordita shell, no filling, fried in oil	52208760.0
52209010	0	Hush_puppy	Hush puppy	52209010.0
52211010	0	Johnnycake	Johnnycake	52211010.0
52213010	0	Spoonbread	Spoonbread	52213010.0
52215100	0	Tortilla_corn	Tortilla, corn	52215100.0
52215200	0	Tortilla_flour_wheat_	Tortilla, flour (wheat)	52215200.0
52215260	0	Tortilla_whole_wheat	Tortilla, whole wheat	52215260.0
52215300	0	Taco_shell_corn	Taco shell, corn	52215300.0
52215350	0	Taco_shell_flour	Taco shell, flour	52215350.0
52220110	0	Cornmeal_bread_Dominican_style	Cornmeal bread, Dominican style	52220110.0
52302010	0	Muffin_blueberry	Muffin, blueberry	52302010.0
52302020	0	Muffin_blueberry_low_fat	Muffin, blueberry, low fat	52302020.0
52302100	0	Muffin_blueberry_fat_free_cholesterol_free	Muffin, blueberry, fat free, cholesterol free	52302100.0
52302500	0	Muffin_chocolate_chip	Muffin, chocolate chip	52302500.0
52302600	0	Muffin_chocolate	Muffin, chocolate	52302600.0
52302610	0	Muffin_chocolate_lowfat	Muffin, chocolate, lowfat	52302610.0
52303010	0	Muffin_whole_wheat	Muffin, whole wheat	52303010.0
52303500	0	Muffin_wheat	Muffin, wheat	52303500.0
52303550	0	Muffin_buckwheat	Muffin, buckwheat	52303550.0
52304010	0	Muffin_wheat_bran	Muffin, wheat bran	52304010.0
52304040	0	Muffin_bran_with_fruit_banana_lowfat	Muffin, bran with fruit (banana), lowfat	52304040.0
52304060	0	Muffin_bran_with_fruit_apple_fat_free_cholesterol_free	Muffin, bran with fruit (apple), fat free, cholesterol free	52304060.0
52304100	0	Muffin_oatmeal	Muffin, oatmeal	52304100.0
52304150	0	Muffin_oat_bran	Muffin, oat bran	52304150.0
52304200	0	Muffin_oat_bran_with_raisins_and_nuts	Muffin, oat bran with raisins and nuts	52304200.0
52306010	0	Muffin_plain	Muffin, plain	52306010.0
52306300	0	Muffin_cheese	Muffin, cheese	52306300.0
52306500	0	Muffin_pumpkin	Muffin, pumpkin	52306500.0
52306550	0	Muffin_zucchini	Muffin, zucchini	52306550.0
52306700	0	Muffin_carrot	Muffin, carrot	52306700.0
52307020	0	Muffin_multigrain_with_nuts	Muffin, multigrain, with nuts	52307020.0
52307120	0	Muffin_multigrain_with_raisins	Muffin, multigrain, with raisins	52307120.0
52308010	0	Matzo_fritters	Matzo, fritters	52308010.0
52308020	0	Matzo_ball	Matzo ball	52308020.0
52311010	0	Popover_Dutch_Baby_	Popover (Dutch Baby)	52311010.0
52320110	0	Toaster_muffin_blueberry	Toaster muffin, blueberry	52320110.0
52401000	0	Bread_Boston_Brown	Bread, Boston Brown	52401000.0
52403000	0	Bread_nut	Bread, nut	52403000.0
52404060	0	Bread_pumpkin	Bread, pumpkin	52404060.0
52405010	0	Bread_banana_without_nuts_	Bread, banana (without nuts)	52405010.0
52405100	0	Bread_banana_nut	Bread, banana nut	52405100.0
52406010	0	Bread_nut_whole_wheat_quick_bread_	Bread, nut, whole wheat (quick bread)	52406010.0
52407000	0	Bread_zucchini	Bread, zucchini	52407000.0
52408000	0	Bread_Irish_soda	Bread, Irish soda	52408000.0
53101100	0	Cake_angel_food_no_icing	Cake, angel food, no icing	53101100.0
53101200	0	Cake_angel_food_with_icing	Cake, angel food, with icing	53101200.0
53101250	0	Cake_angel_food_with_fruit_and_icing_or_filling	Cake, angel food, with fruit and icing or filling	53101250.0
53101300	0	Cake_angel_food_chocolate_no_icing	Cake, angel food, chocolate, no icing	53101300.0
53102100	0	Cake_applesauce_no_icing	Cake, applesauce, no icing	53102100.0
53102200	0	Cake_applesauce_with_icing	Cake, applesauce, with icing	53102200.0
53102300	0	Cake_applesauce_diet_no_icing_Weight_Watchers_	Cake, applesauce, diet, no icing (Weight Watchers)	53102300.0
53102600	0	Cake_banana_no_icing	Cake, banana, no icing	53102600.0
53102700	0	Cake_banana_with_icing	Cake, banana, with icing	53102700.0
53102800	0	Cake_black_forest_chocolate_cherry_	Cake, black forest (chocolate-cherry)	53102800.0
53103000	0	Cake_Boston_cream_pie	Cake, Boston cream pie	53103000.0
53103550	0	Cake_butter_no_icing	Cake, butter, no icing	53103550.0
53103600	0	Cake_butter_with_icing	Cake, butter, with icing	53103600.0
53104100	0	Cake_carrot_no_icing	Cake, carrot, no icing	53104100.0
53104260	0	Cake_carrot_with_icing	Cake, carrot, with icing	53104260.0
53104300	0	Cake_carrot_diet	Cake, carrot, diet	53104300.0
53104400	0	Cake_coconut_with_icing	Cake, coconut, with icing	53104400.0
53104500	0	Cheesecake	Cheesecake	53104500.0
53104520	0	Cheesecake_diet_Weight_Watchers_	Cheesecake, diet (Weight Watchers)	53104520.0
53104550	0	Cheesecake_with_cherries	Cheesecake with cherries	53104550.0
53104570	0	Cheesecake_diet_with_strawberries_Weight_Watchers_	Cheesecake, diet, with strawberries (Weight Watchers)	53104570.0
53104600	0	Cheesecake_chocolate	Cheesecake, chocolate	53104600.0
53104650	0	Cheesecake_chocolate_reduced_fat	Cheesecake, chocolate, reduced fat	53104650.0
53105100	0	Cake_chocolate_devil_s_food_or_fudge_no_icing_or_filling_from_mix	Cake, chocolate, devil's food or fudge, no icing or filling, from mix	53105100.0
53105160	0	Cake_chocolate_devil_s_food_or_fudge_no_icing_or_filling_homemade_or_purchased	Cake, chocolate, devil's food or fudge, no icing or filling, homemade or purchased	53105160.0
53105200	0	Cake_chocolate_devil_s_food_or_fudge_with_icing_from_mix	Cake, chocolate, devil's food or fudge, with icing, from mix	53105200.0
53105260	0	Cake_chocolate_devil_s_food_or_fudge_with_icing_homemade_or_purchased	Cake, chocolate, devil's food or fudge, with icing, homemade or purchased	53105260.0
53105300	0	Cake_German_chocolate_with_icing_and_filling	Cake, German chocolate, with icing and filling	53105300.0
53105500	0	Cake_chocolate_with_icing_diet	Cake, chocolate, with icing, diet	53105500.0
53106100	0	Cake_Poor_Man_s_spice_type_no_icing	Cake, Poor Man's (spice-type), no icing	53106100.0
53106500	0	Cake_cream_no_icing_or_topping_Italian_rum_cream_	Cake, cream, no icing or topping (Italian rum-cream)	53106500.0
53108100	0	Cupcake_chocolate_no_icing_or_filling	Cupcake, chocolate, no icing or filling	53108100.0
53108200	0	Cupcake_chocolate_with_icing_or_filling_Ho_Ho_s_Tastykake_cupcakes_Swiss_Rolls_Oreo_Cakesters_	Cupcake, chocolate, with icing or filling (Ho Ho's, Tastykake cupcakes, Swiss Rolls, Oreo Cakesters)	53108200.0
53109100	0	Cupcake_not_chocolate_no_icing_or_filling	Cupcake, not chocolate, no icing or filling	53109100.0
53109200	0	Cupcake_not_chocolate_with_icing_or_filling_Twinkies_Tastykake_Krimpets_Little_Debbie_Snack_Cakes_Hostess_Snowballs_	Cupcake, not chocolate, with icing or filling (Twinkies, Tastykake Krimpets, Little Debbie Snack Cakes, Hostess Snowballs)	53109200.0
53109210	0	Cupcake_not_chocolate_with_icing_or_filling_lowfat_Twinkies_Lights_	Cupcake, not chocolate, with icing or filling, lowfat (Twinkies Lights)	53109210.0
53109250	0	Cupcake_not_chocolate_with_fruit_and_cream_filling_Fruit_Creme_Twinkies_	Cupcake, not chocolate, with fruit and cream filling (Fruit & Creme Twinkies)	53109250.0
53109270	0	Cupcake_chocolate_fruit_filling_or_cream_filling_lowfat_Hostess_Lights_	Cupcake, chocolate, fruit filling or cream filling, lowfat (Hostess Lights)	53109270.0
53109300	0	Cake_Dobos_Torte_seven_layer_cake_	Cake, Dobos Torte (seven layer cake)	53109300.0
53110000	0	Cake_fruit_cake_holiday_type_cake	Cake, fruit cake, holiday type cake	53110000.0
53110100	0	Cake_plum_pudding	Cake, plum pudding	53110100.0
53111000	0	Cake_gingerbread_no_icing	Cake, gingerbread, no icing	53111000.0
53111500	0	Cake_graham_cracker_no_icing	Cake, graham cracker, no icing	53111500.0
53112000	0	Cake_ice_cream_and_cake_roll_chocolate	Cake, ice cream and cake roll, chocolate	53112000.0
53112100	0	Cake_ice_cream_and_cake_roll_not_chocolate	Cake, ice cream and cake roll, not chocolate	53112100.0
53113000	0	Cake_jelly_roll	Cake, jelly roll	53113000.0
53114000	0	Cake_lemon_no_icing	Cake, lemon, no icing	53114000.0
53114100	0	Cake_lemon_with_icing	Cake, lemon, with icing	53114100.0
53114200	0	Cake_lemon_lowfat_no_icing	Cake, lemon, lowfat, no icing	53114200.0
53114250	0	Cake_lemon_lowfat_with_icing	Cake, lemon, lowfat, with icing	53114250.0
53115100	0	Cake_marble_no_icing	Cake, marble, no icing	53115100.0
53115200	0	Cake_marble_with_icing	Cake, marble, with icing	53115200.0
53115310	0	Cake_nut_no_icing	Cake, nut, no icing	53115310.0
53115320	0	Cake_nut_with_icing	Cake, nut, with icing	53115320.0
53115400	0	Cake_oatmeal_no_icing	Cake, oatmeal, no icing	53115400.0
53115410	0	Cake_oatmeal_with_icing	Cake, oatmeal, with icing	53115410.0
53115450	0	Cake_peanut_butter_with_icing	Cake, peanut butter, with icing	53115450.0
53115500	0	Cake_pineapple_fat_free_no_icing	Cake, pineapple, fat free, no icing	53115500.0
53115600	0	Cake_poppyseed_no_icing	Cake, poppyseed, no icing	53115600.0
53116000	0	Cake_pound_no_icing	Cake, pound, no icing	53116000.0
53116020	0	Cake_pound_with_icing	Cake, pound, with icing	53116020.0
53116270	0	Cake_pound_chocolate	Cake, pound, chocolate	53116270.0
53116280	0	Cake_pound_chocolate_fat_free_cholesterol_free	Cake, pound, chocolate, fat free, cholesterol free	53116280.0
53116380	0	Cake_pound_fat_free_cholesterol_free	Cake, pound, fat free, cholesterol free	53116380.0
53116390	0	Cake_pound_reduced_fat_cholesterol_free	Cake, pound, reduced fat, cholesterol free	53116390.0
53116500	0	Cake_pumpkin_no_icing	Cake, pumpkin, no icing	53116500.0
53116510	0	Cake_pumpkin_with_icing	Cake, pumpkin, with icing	53116510.0
53116550	0	Cake_raisin_nut_no_icing	Cake, raisin nut, no icing	53116550.0
53116560	0	Cake_raisin_nut_with_icing	Cake, raisin nut, with icing	53116560.0
53117100	0	Cake_spice_no_icing	Cake, spice, no icing	53117100.0
53117200	0	Cake_spice_with_icing	Cake, spice, with icing	53117200.0
53118100	0	Cake_sponge_no_icing	Cake, sponge, no icing	53118100.0
53118200	0	Cake_sponge_with_icing	Cake, sponge, with icing	53118200.0
53118300	0	Cake_sponge_chocolate_no_icing	Cake, sponge, chocolate, no icing	53118300.0
53118310	0	Cake_sponge_chocolate_with_icing	Cake, sponge, chocolate, with icing	53118310.0
53118500	0	Cake_torte	Cake, torte	53118500.0
53118550	0	Cake_tres_leche	Cake, tres leche	53118550.0
53118700	0	Cake_chiffon_no_icing	Cake, chiffon, no icing	53118700.0
53118800	0	Cake_chiffon_with_icing	Cake, chiffon, with icing	53118800.0
53118900	0	Cake_chiffon_chocolate_no_icing	Cake, chiffon, chocolate, no icing	53118900.0
53118950	0	Cake_chiffon_chocolate_with_icing	Cake, chiffon, chocolate, with icing	53118950.0
53119000	0	Cake_upside_down_with_fruit_	Cake, upside down (with fruit)	53119000.0
53120100	0	Cake_white_no_icing_from_mix_made_with_egg_whites	Cake, white, no icing, from mix, made with egg whites	53120100.0
53120160	0	Cake_white_no_icing_homemade_or_purchased	Cake, white, no icing, homemade or purchased	53120160.0
53120200	0	Cake_white_with_icing_from_mix	Cake, white, with icing, from mix	53120200.0
53120260	0	Cake_white_with_icing_homemade_or_purchased	Cake, white, with icing, homemade or purchased	53120260.0
53120400	0	Cake_white_eggless_lowfat	Cake, white, eggless, lowfat	53120400.0
53121100	0	Cake_yellow_no_icing_from_mix	Cake, yellow, no icing, from mix	53121100.0
53121160	0	Cake_yellow_no_icing_homemade_or_purchased	Cake, yellow, no icing, homemade or purchased	53121160.0
53121200	0	Cake_yellow_with_icing_from_mix	Cake, yellow, with icing, from mix	53121200.0
53121260	0	Cake_yellow_with_icing_homemade_or_purchased	Cake, yellow, with icing, homemade or purchased	53121260.0
53122070	0	Shortcake_biscuit_type_with_whipped_cream_and_fruit	Shortcake, biscuit type, with whipped cream and fruit	53122070.0
53122080	0	Shortcake_biscuit_type_with_fruit	Shortcake, biscuit type, with fruit	53122080.0
53123070	0	Shortcake_sponge_type_with_whipped_cream_and_fruit	Shortcake, sponge type, with whipped cream and fruit	53123070.0
53123080	0	Shortcake_sponge_type_with_fruit	Shortcake, sponge type, with fruit	53123080.0
53124110	0	Cake_zucchini_no_icing	Cake, zucchini, no icing	53124110.0
53124120	0	Cake_zucchini_with_icing	Cake, zucchini, with icing	53124120.0
53199997	0	Cake_mix_yellow	Cake mix, yellow	53199997.0
53199998	0	Cake_mix_white	Cake mix, white	53199998.0
53199999	0	Cake_mix_chocolate	Cake mix, chocolate	53199999.0
53200100	0	Cookie_dough_raw	Cookie dough, raw	53200100.0
53202000	0	Cookie_almond	Cookie, almond	53202000.0
53203000	0	Cookie_applesauce	Cookie, applesauce	53203000.0
53203500	0	Cookies_biscotti_Italian_sugar_cookie_	Cookies, biscotti (Italian sugar cookie)	53203500.0
53204010	0	Brownie_no_icing	Brownie, no icing	53204010.0
53204100	0	Brownie_with_icing	Brownie, with icing	53204100.0
53204500	0	Brownie_with_cream_cheese_filling_no_icing	Brownie, with cream cheese filling, no icing	53204500.0
53204600	0	Brownie_with_peanut_butter_fudge_icing	Brownie, with peanut butter fudge icing	53204600.0
53204830	0	Brownie_lowfat_with_icing	Brownie, lowfat, with icing	53204830.0
53204840	0	Brownie_lowfat_no_icing	Brownie, lowfat, no icing	53204840.0
53204850	0	Brownie_fat_free_cholesterol_free_with_icing	Brownie, fat free, cholesterol free, with icing	53204850.0
53204860	0	Brownie_fat_free_no_icing	Brownie, fat free, no icing	53204860.0
53205250	0	Brownie_butterscotch	Brownie, butterscotch	53205250.0
53205500	0	Cookies_butterscotch_chip	Cookies, butterscotch chip	53205500.0
53206000	0	Cookies_chocolate_chip_Chips_Ahoy_Pepperidge_Farms_Little_Debbie_Subway_	Cookies, chocolate chip (Chips Ahoy, Pepperidge Farms, Little Debbie, Subway)	53206000.0
53206010	0	Cookies_chocolate_chip_with_raisins	Cookies, chocolate chip, with raisins	53206010.0
53206020	0	Cookies_chocolate_chip_homemade_or_bakery	Cookies, chocolate chip, homemade or bakery	53206020.0
53206030	0	Cookies_chocolate_chip_reduced_fat	Cookies, chocolate chip, reduced fat	53206030.0
53206050	0	Cookies_chocolate_chip_with_chocolate_filling	Cookies, chocolate chip, with chocolate filling	53206050.0
53206100	0	Cookies_chocolate_chip_sandwich	Cookies, chocolate chip sandwich	53206100.0
53206500	0	Cookies_chocolate_made_with_rice_cereal_Little_Debbie_Star_Crunch_	Cookies, chocolate, made with rice cereal (Little Debbie Star Crunch)	53206500.0
53206550	0	Cookies_chocolate_made_with_oatmeal_and_coconut_no_bake_	Cookies, chocolate, made with oatmeal and coconut (no-bake)	53206550.0
53207000	0	Cookies_chocolate	Cookies, chocolate	53207000.0
53207020	0	Cookies_fudge_reduced_fat	Cookies, fudge, reduced fat	53207020.0
53207050	0	Cookies_chocolate_with_chocolate_filling_or_coating_fat_free_Snackwell_s_Double_Fudge_Cookie_Cakes_	Cookies, chocolate, with chocolate filling or coating, fat free (Snackwell's Double Fudge Cookie Cakes)	53207050.0
53208000	0	Cookies_chocolate_covered_marshmallow_Mallomars_	Cookies, chocolate-covered marshmallow (Mallomars)	53208000.0
53208200	0	Cookies_marshmallow_pie_chocolate_covered	Cookies, marshmallow pie, chocolate covered	53208200.0
53209000	0	Cookies_chocolate_sandwich_or_chocolate_coated_or_striped_Little_Debbie_Fudge_Rounds_Thin_Mints_Fudge_Stripes_	Cookies, chocolate sandwich or chocolate-coated or striped (Little Debbie Fudge Rounds, Thin Mints, Fudge Stripes)	53209000.0
53209010	0	Cookies_chocolate_covered_sugar_wafer_caramel_filled_Little_Debbie_Caramel_Cookie_Bars_	Cookies, chocolate-covered, sugar wafer, caramel-filled (Little Debbie Caramel Cookie Bars)	53209010.0
53209020	0	Cookies_chocolate_sandwich_reduced_fat_Snackwell_s_Chocolate_Sandwich_Cookie_	Cookies, chocolate sandwich, reduced fat (Snackwell's Chocolate Sandwich Cookie)	53209020.0
53209050	0	Cookies_chocolate_covered_chocolate_sandwich_Fudge_Covered_Oreo_	Cookies, chocolate-covered, chocolate sandwich (Fudge Covered Oreo)	53209050.0
53209100	0	Cookies_chocolate_sandwich_with_extra_filling_Double_Stuf_Oreo_	Cookies, chocolate, sandwich, with extra filling (Double Stuf Oreo)	53209100.0
53209500	0	Cookies_chocolate_and_vanilla_sandwich_Oreo_	Cookies, chocolate and vanilla sandwich (Oreo)	53209500.0
53210000	0	Cookies_chocolate_wafer	Cookies, chocolate wafer	53210000.0
53210900	0	Cookies_graham_crackers_with_chocolate_and_marshmallow_filling_S_mores_	Cookies, graham crackers with chocolate and marshmallow filling (S'mores)	53210900.0
53211000	0	Cookie_bar_with_chocolate_nuts_coconut_and_graham_crackers_Magic_Cookie_Bar_	Cookie bar, with chocolate, nuts, coconut, and graham crackers (Magic Cookie Bar)	53211000.0
53215500	0	Cookies_coconut	Cookies, coconut	53215500.0
53216000	0	Cookies_coconut_and_nut	Cookies, coconut and nut	53216000.0
53220000	0	Cookies_fruit_filled_bar	Cookies, fruit-filled bar	53220000.0
53220010	0	Cookies_fruit_filled_bar_fat_free	Cookies, fruit-filled bar, fat free	53220010.0
53220020	0	Cookies_date_bar	Cookies, date bar	53220020.0
53220030	0	Cookies_fig_bar_Fig_Newton_	Cookies, fig bar (Fig Newton)	53220030.0
53220040	0	Cookies_fig_bar_fat_free_Fat_Free_Fig_Newton_	Cookies, fig bar, fat free (Fat Free Fig Newton)	53220040.0
53222010	0	Cookies_fortune	Cookies, fortune	53222010.0
53222020	0	Ice_cream_cone_wafer_or_cake_cone_only	Ice cream cone, wafer or cake, cone only	53222020.0
53223000	0	Cookies_gingersnaps	Cookies, gingersnaps	53223000.0
53223100	0	Cookies_granola	Cookies, granola	53223100.0
53224000	0	Cookies_ladyfinger	Cookies, ladyfinger	53224000.0
53224250	0	Cookies_lemon_bar	Cookies, lemon bar	53224250.0
53225000	0	Cookies_macaroon_coconut_and_meringue_no_flour	Cookies, macaroon, coconut and meringue, no flour	53225000.0
53226000	0	Cookies_marshmallow_with_coconut	Cookies, marshmallow, with coconut	53226000.0
53226500	0	Rice_Krispy_Treat	Rice Krispy Treat	53226500.0
53226550	0	Rice_Krispy_Treat_with_chocolate_chips	Rice Krispy Treat, with chocolate chips	53226550.0
53228000	0	Cookies_meringue	Cookies, meringue	53228000.0
53230000	0	Cookies_gingerbread	Cookies, gingerbread	53230000.0
53231000	0	Cookies_Lebkuchen	Cookies, Lebkuchen	53231000.0
53231400	0	Cookies_multigrain_high_fiber	Cookies, multigrain, high fiber	53231400.0
53233000	0	Cookies_oatmeal	Cookies, oatmeal	53233000.0
53233010	0	Cookies_oatmeal_with_raisins	Cookies, oatmeal, with raisins	53233010.0
53233020	0	Cookies_oatmeal_with_fruit_filling	Cookies, oatmeal, with fruit filling	53233020.0
53233030	0	Cookies_oatmeal_fat_free_with_raisins	Cookies, oatmeal, fat free, with raisins	53233030.0
53233040	0	Cookies_oatmeal_reduced_fat_with_raisins	Cookies, oatmeal, reduced fat, with raisins	53233040.0
53233050	0	Cookies_oatmeal_sandwich_with_creme_filling_Oatmeal_Cream_Pie_	Cookies, oatmeal sandwich, with creme filling (Oatmeal Cream Pie)	53233050.0
53233060	0	Cookies_oatmeal_chocolate_chip	Cookies, oatmeal chocolate chip	53233060.0
53233080	0	Cookies_oatmeal_sandwich_with_peanut_butter_and_jelly_filling_P_B_J_oatmeal_pie_	Cookies, oatmeal sandwich, with peanut butter and jelly filling (P.B. & J. oatmeal pie)	53233080.0
53233100	0	Cookies_oatmeal_with_chocolate_and_peanut_butter_no_bake_	Cookies, oatmeal, with chocolate and peanut butter (no-bake)	53233100.0
53234000	0	Cookies_peanut_butter	Cookies, peanut butter	53234000.0
53234010	0	Cookies_peanut_butter_with_oatmeal_Peanut_Butter_Sandwich_cookie_	Cookies, peanut butter, with oatmeal (Peanut Butter Sandwich cookie)	53234010.0
53234100	0	Cookies_peanut_butter_with_chocolate	Cookies, peanut butter, with chocolate	53234100.0
53234250	0	Cookies_peanut_butter_with_rice_cereal_no_bake_	Cookies, peanut butter with rice cereal (no-bake)	53234250.0
53235000	0	Cookies_peanut	Cookies, peanut	53235000.0
53235500	0	Cookies_with_peanut_butter_filling_chocolate_coated_Peanut_Butter_Patty_	Cookies, with peanut butter filling, chocolate-coated (Peanut Butter Patty)	53235500.0
53235600	0	Cookies_Pfeffernusse	Cookies, Pfeffernusse	53235600.0
53236000	0	Cookies_pizzelle_Italian_style_wafer_	Cookies, pizzelle (Italian style wafer)	53236000.0
53236100	0	Cookies_pumpkin	Cookies, pumpkin	53236100.0
53237000	0	Cookies_raisin	Cookies, raisin	53237000.0
53237010	0	Cookies_raisin_sandwich_cream_filled	Cookies, raisin sandwich, cream-filled	53237010.0
53237500	0	Cookies_rum_ball_or_bourbon_ball_no_bake_	Cookies, rum ball or bourbon ball (no-bake)	53237500.0
53239000	0	Cookies_shortbread	Cookies, shortbread	53239000.0
53239010	0	Cookies_shortbread_reduced_fat	Cookies, shortbread, reduced fat	53239010.0
53239050	0	Cookies_shortbread_with_chocolate_filling	Cookies, shortbread, with chocolate filling	53239050.0
53240000	0	Crackers_animal	Crackers, animal	53240000.0
53240010	0	Cookies_animal_with_frosting_or_icing	Cookies, animal, with frosting or icing	53240010.0
53241500	0	Cookies_butter_or_sugar_cookie	Cookies, butter or sugar cookie	53241500.0
53241510	0	Cookies_Marie_biscuit	Cookies, Marie biscuit	53241510.0
53241600	0	Cookies_butter_or_sugar_cookie_with_fruit_or_nuts_Chantilly_	Cookies, butter or sugar cookie, with fruit or nuts (Chantilly)	53241600.0
53242000	0	Cookies_vanilla_cream_wafer	Cookies, vanilla cream wafer	53242000.0
53242500	0	Cookies_toffee_bar	Cookies, toffee bar	53242500.0
53243000	0	Cookies_vanilla_sandwich_Golden_Oreos_Vienna_Fingers_	Cookies, vanilla sandwich (Golden Oreos, Vienna Fingers)	53243000.0
53243010	0	Cookies_vanilla_sandwich_with_extra_filling_Golden_Double_Stuf_Oreos_	Cookies, vanilla sandwich, with extra filling (Golden Double Stuf Oreos)	53243010.0
53243050	0	Cookies_vanilla_sandwich_reduced_fat_Snackwell_s_Creme_Sandwich_Cookie_	Cookies, vanilla sandwich, reduced fat (Snackwell's Creme Sandwich Cookie)	53243050.0
53243100	0	Cookies_chocolate_with_chocolate_filling_or_chocolate_chips	Cookies, chocolate, with chocolate filling or chocolate chips	53243100.0
53244010	0	Cookies_butter_or_sugar_with_chocolate_icing_or_filling_E_L_Fudge_Elfin_Sandwich_Cookies_Milano_	Cookies, butter or sugar, with chocolate icing or filling (E.L. Fudge, Elfin Sandwich Cookies, Milano)	53244010.0
53244020	0	Cookies_butter_or_sugar_with_icing_or_filling_not_chocolate	Cookies, butter or sugar, with icing or filling, not chocolate	53244020.0
53245000	0	Cookies_vanilla_waffle_creme	Cookies, vanilla waffle creme	53245000.0
53246000	0	Cookies_tea_Japanese	Cookies, tea, Japanese	53246000.0
53247000	0	Cookies_vanilla_wafer_Nilla_Wafer_	Cookies, vanilla wafer (Nilla Wafer)	53247000.0
53247050	0	Cookies_vanilla_wafer_reduced_fat_Nilla_Wafer_	Cookies, vanilla wafer, reduced fat (Nilla Wafer)	53247050.0
53247500	0	Cookies_vanilla_with_caramel_coconut_chocolate_coating_Carmel_Delights_	Cookies, vanilla with caramel, coconut, chocolate coating (Carmel Delights)	53247500.0
53251100	0	Cookies_rugelach	Cookies, rugelach	53251100.0
53260030	0	Cookies_dietetic_chocolate_chip	Cookies, dietetic, chocolate chip	53260030.0
53260150	0	Cookies_lemon_wafer_lowfat	Cookies, lemon wafer, lowfat	53260150.0
53260200	0	Cookies_dietetic_oatmeal_with_raisins	Cookies, dietetic, oatmeal with raisins	53260200.0
53260300	0	Cookies_dietetic_sandwich_type	Cookies, dietetic, sandwich type	53260300.0
53260400	0	Cookies_dietetic_sugar_or_plain	Cookies, dietetic, sugar or plain	53260400.0
53260500	0	Cookies_sugar_wafer_sugar_free	Cookies, sugar wafer, sugar free	53260500.0
53260600	0	Cookies_peanut_butter_sugar_free	Cookies, peanut butter, sugar free	53260600.0
53301000	0	Pie_apple_two_crust	Pie, apple, two crust	53301000.0
53301070	0	Pie_apple_individual_size_or_tart	Pie, apple, individual size or tart	53301070.0
53301080	0	Pie_apple_fried_pie	Pie, apple, fried pie	53301080.0
53301500	0	Pie_apple_one_crust	Pie, apple, one crust	53301500.0
53301750	0	Pie_apple_diet	Pie, apple, diet	53301750.0
53302000	0	Pie_apricot_two_crust	Pie, apricot, two crust	53302000.0
53302070	0	Pie_apricot_individual_size_or_tart	Pie, apricot, individual size or tart	53302070.0
53302080	0	Pie_apricot_fried_pie	Pie, apricot, fried pie	53302080.0
53303000	0	Pie_blackberry_two_crust	Pie, blackberry, two crust	53303000.0
53303070	0	Pie_blackberry_individual_size_or_tart	Pie, blackberry, individual size or tart	53303070.0
53304000	0	Pie_blueberry_two_crust	Pie, blueberry, two crust	53304000.0
53304050	0	Pie_blueberry_one_crust	Pie, blueberry, one crust	53304050.0
53304070	0	Pie_blueberry_individual_size_or_tart	Pie, blueberry, individual size or tart	53304070.0
53305000	0	Pie_cherry_two_crust	Pie, cherry, two crust	53305000.0
53305010	0	Pie_cherry_one_crust	Pie, cherry, one crust	53305010.0
53305070	0	Pie_cherry_individual_size_or_tart	Pie, cherry, individual size or tart	53305070.0
53305080	0	Pie_cherry_fried_pie	Pie, cherry, fried pie	53305080.0
53305700	0	Pie_lemon_not_cream_or_meringue_	Pie, lemon (not cream or meringue)	53305700.0
53305720	0	Pie_lemon_not_cream_or_meringue_individual_size_or_tart	Pie, lemon (not cream or meringue), individual size or tart	53305720.0
53305750	0	Pie_lemon_fried_pie	Pie, lemon, fried pie	53305750.0
53306000	0	Pie_mince_two_crust	Pie, mince, two crust	53306000.0
53306070	0	Pie_mince_individual_size_or_tart	Pie, mince, individual size or tart	53306070.0
53307000	0	Pie_peach_two_crust	Pie, peach, two crust	53307000.0
53307050	0	Pie_peach_one_crust	Pie, peach, one crust	53307050.0
53307070	0	Pie_peach_individual_size_or_tart	Pie, peach, individual size or tart	53307070.0
53307080	0	Pie_peach_fried_pie	Pie, peach, fried pie	53307080.0
53307500	0	Pie_pear_two_crust	Pie, pear, two crust	53307500.0
53307570	0	Pie_pear_individual_size_or_tart	Pie, pear, individual size or tart	53307570.0
53308000	0	Pie_pineapple_two_crust	Pie, pineapple, two crust	53308000.0
53308070	0	Pie_pineapple_individual_size_or_tart	Pie, pineapple, individual size or tart	53308070.0
53308300	0	Pie_plum_two_crust	Pie, plum, two crust	53308300.0
53308500	0	Pie_prune_one_crust	Pie, prune, one crust	53308500.0
53309000	0	Pie_raisin_two_crust	Pie, raisin, two crust	53309000.0
53309070	0	Pie_raisin_individual_size_or_tart	Pie, raisin, individual size or tart	53309070.0
53310000	0	Pie_raspberry_one_crust	Pie, raspberry, one crust	53310000.0
53310050	0	Pie_raspberry_two_crust	Pie, raspberry, two crust	53310050.0
53311000	0	Pie_rhubarb_two_crust	Pie, rhubarb, two crust	53311000.0
53311050	0	Pie_rhubarb_one_crust	Pie, rhubarb, one crust	53311050.0
53311070	0	Pie_rhubarb_individual_size_or_tart	Pie, rhubarb, individual size or tart	53311070.0
53312000	0	Pie_strawberry_one_crust	Pie, strawberry, one crust	53312000.0
53313000	0	Pie_strawberry_rhubarb_two_crust	Pie, strawberry-rhubarb, two crust	53313000.0
53314000	0	Pie_strawberry_individual_size_or_tart	Pie, strawberry, individual size or tart	53314000.0
53340000	0	Pie_apple_sour_cream	Pie, apple sour cream	53340000.0
53340500	0	Pie_cherry_made_with_cream_cheese_and_sour_cream	Pie, cherry, made with cream cheese and sour cream	53340500.0
53341000	0	Pie_banana_cream	Pie, banana cream	53341000.0
53341070	0	Pie_banana_cream_individual_size_or_tart	Pie, banana cream, individual size or tart	53341070.0
53341500	0	Pie_buttermilk	Pie, buttermilk	53341500.0
53341750	0	Pie_chess	Pie, chess	53341750.0
53342000	0	Pie_chocolate_cream	Pie, chocolate cream	53342000.0
53342070	0	Pie_chocolate_cream_individual_size_or_tart	Pie, chocolate cream, individual size or tart	53342070.0
53343000	0	Pie_coconut_cream	Pie, coconut cream	53343000.0
53343070	0	Pie_coconut_cream_individual_size_or_tart	Pie, coconut cream, individual size or tart	53343070.0
53344000	0	Pie_custard	Pie, custard	53344000.0
53344070	0	Pie_custard_individual_size_or_tart	Pie, custard, individual size or tart	53344070.0
53344200	0	Mixed_fruit_tart_filled_with_custard_or_cream_cheese	Mixed fruit tart filled with custard or cream cheese	53344200.0
53344300	0	Fruit_pizza_dessert_pizza_	Fruit pizza (dessert pizza)	53344300.0
53345000	0	Pie_lemon_cream	Pie, lemon cream	53345000.0
53345070	0	Pie_lemon_cream_individual_size_or_tart	Pie, lemon cream, individual size or tart	53345070.0
53346000	0	Pie_peanut_butter_cream	Pie, peanut butter cream	53346000.0
53346500	0	Pie_pineapple_cream_millionaire_s_pie_Hawaiian_pie_	Pie, pineapple cream (millionaire's pie, Hawaiian pie)	53346500.0
53347000	0	Pie_pumpkin	Pie, pumpkin	53347000.0
53347070	0	Pie_pumpkin_individual_size_or_tart	Pie, pumpkin, individual size or tart	53347070.0
53347100	0	Pie_raspberry_cream	Pie, raspberry cream	53347100.0
53347500	0	Pie_sour_cream_raisin	Pie, sour cream, raisin	53347500.0
53347600	0	Pie_squash	Pie, squash	53347600.0
53348000	0	Pie_strawberry_cream	Pie, strawberry cream	53348000.0
53348070	0	Pie_strawberry_cream_individual_size_or_tart	Pie, strawberry cream, individual size or tart	53348070.0
53360000	0	Pie_sweet_potato	Pie, sweet potato	53360000.0
53365000	0	Pie_vanilla_cream	Pie, vanilla cream	53365000.0
53366000	0	Pie_yogurt_frozen	Pie, yogurt, frozen	53366000.0
53370000	0	Pie_chiffon_not_chocolate	Pie, chiffon, not chocolate	53370000.0
53371000	0	Pie_chiffon_chocolate	Pie, chiffon, chocolate	53371000.0
53371100	0	Pie_chiffon_with_liqueur	Pie, chiffon, with liqueur	53371100.0
53373000	0	Pie_black_bottom	Pie, black bottom	53373000.0
53381000	0	Pie_lemon_meringue	Pie, lemon meringue	53381000.0
53381070	0	Pie_lemon_meringue_individual_size_or_tart	Pie, lemon meringue, individual size or tart	53381070.0
53382000	0	Pie_chocolate_marshmallow	Pie, chocolate marshmallow	53382000.0
53385000	0	Pie_pecan	Pie, pecan	53385000.0
53385070	0	Pie_pecan_individual_size_or_tart	Pie, pecan, individual size or tart	53385070.0
53385500	0	Pie_oatmeal	Pie, oatmeal	53385500.0
53387000	0	Pie_Toll_house_chocolate_chip	Pie, Toll house chocolate chip	53387000.0
53390000	0	Pie_shoo_fly	Pie, shoo-fly	53390000.0
53390100	0	Pie_tofu_with_fruit	Pie, tofu with fruit	53390100.0
53391000	0	Pie_crust	Pie crust	53391000.0
53391100	0	Pie_crust_graham_cracker	Pie crust, graham cracker	53391100.0
53391150	0	Pie_crust_chocolate_wafer	Pie crust, chocolate wafer	53391150.0
53391200	0	Pie_crust_vanilla_wafer	Pie crust, vanilla wafer	53391200.0
53400200	0	Blintz_cheese_filled	Blintz, cheese-filled	53400200.0
53400300	0	Blintz_fruit_filled	Blintz, fruit-filled	53400300.0
53410100	0	Cobbler_apple	Cobbler, apple	53410100.0
53410200	0	Cobbler_apricot	Cobbler, apricot	53410200.0
53410300	0	Cobbler_berry	Cobbler, berry	53410300.0
53410500	0	Cobbler_cherry	Cobbler, cherry	53410500.0
53410800	0	Cobbler_peach	Cobbler, peach	53410800.0
53410850	0	Cobbler_pear	Cobbler, pear	53410850.0
53410860	0	Cobbler_pineapple	Cobbler, pineapple	53410860.0
53410880	0	Cobbler_plum	Cobbler, plum	53410880.0
53410900	0	Cobbler_rhubarb	Cobbler, rhubarb	53410900.0
53415100	0	Crisp_apple	Crisp, apple	53415100.0
53415120	0	Fritter_apple	Fritter, apple	53415120.0
53415200	0	Fritter_banana	Fritter, banana	53415200.0
53415220	0	Fritter_berry	Fritter, berry	53415220.0
53415300	0	Crisp_blueberry	Crisp, blueberry	53415300.0
53415400	0	Crisp_cherry	Crisp, cherry	53415400.0
53415500	0	Crisp_peach	Crisp, peach	53415500.0
53415600	0	Crisp_rhubarb	Crisp, rhubarb	53415600.0
53420100	0	Cream_puff_or_eclair_custard_or_cream_filled_not_iced	Cream puff or eclair, custard or cream filled, not iced	53420100.0
53420200	0	Cream_puff_or_eclair_custard_or_cream_filled_iced	Cream puff or eclair, custard or cream filled, iced	53420200.0
53420210	0	Cream_puff_or_eclair_custard_or_cream_filled_iced_reduced_fat	Cream puff or eclair, custard or cream filled, iced, reduced fat	53420210.0
53420250	0	Cream_puff_no_filling_or_icing	Cream puff, no filling or icing	53420250.0
53420300	0	Fritter_or_fried_puff_air_filed_without_syrup_Puerto_Rican_style	Fritter or fried puff, air filed,without syrup, Puerto Rican style	53420300.0
53420400	0	Sopaipilla_without_syrup_or_honey	Sopaipilla, without syrup or honey	53420400.0
53420410	0	Sopaipilla_with_syrup_or_honey	Sopaipilla with syrup or honey	53420410.0
53430100	0	Crepe_dessert_type_chocolate_filled	Crepe, dessert type, chocolate-filled	53430100.0
53430200	0	Crepe_dessert_type_fruit_filled_blueberry_	Crepe, dessert type, fruit-filled (blueberry)	53430200.0
53430250	0	Crepe_suzette	Crepe suzette	53430250.0
53430300	0	Crepe_dessert_type_ice_cream_filled	Crepe, dessert type, ice cream-filled	53430300.0
53430700	0	Tamale_sweet	Tamale, sweet	53430700.0
53430750	0	Tamales_sweet_with_fruit	Tamales, sweet, with fruit	53430750.0
53440000	0	Strudel_apple	Strudel, apple	53440000.0
53440300	0	Strudel_berry	Strudel, berry	53440300.0
53440500	0	Strudel_cherry	Strudel, cherry	53440500.0
53440600	0	Strudel_cheese	Strudel, cheese	53440600.0
53440700	0	Strudel_peach	Strudel, peach	53440700.0
53440750	0	Strudel_pineapple	Strudel, pineapple	53440750.0
53440800	0	Strudel_cheese_and_fruit	Strudel, cheese and fruit	53440800.0
53441110	0	Baklava	Baklava	53441110.0
53450000	0	Turnover_or_dumpling_apple	Turnover or dumpling, apple	53450000.0
53450300	0	Turnover_or_dumpling_berry	Turnover or dumpling, berry	53450300.0
53450500	0	Turnover_or_dumpling_cherry	Turnover or dumpling, cherry	53450500.0
53450800	0	Turnover_or_dumpling_lemon	Turnover or dumpling, lemon	53450800.0
53451000	0	Turnover_or_dumpling_peach	Turnover or dumpling, peach	53451000.0
53451500	0	Turnover_guava	Turnover, guava	53451500.0
53451750	0	Turnover_pumpkin	Turnover, pumpkin	53451750.0
53452100	0	Pastry_fruit_filled	Pastry, fruit-filled	53452100.0
53452120	0	Pastry_with_bean_or_lotus_seed_paste_filling_Chinese_Moon_Cake_	Pastry with bean or lotus seed paste filling (Chinese Moon Cake)	53452120.0
53452130	0	Pastry_with_bean_paste_and_salted_egg_yolk_filling_Chinese_Moon_Cake_	Pastry with bean paste and salted egg yolk filling (Chinese Moon Cake)	53452130.0
53452150	0	Pastry_Chinese_made_with_rice_flour_nine_layer_pudding_	Pastry, Chinese, made with rice flour (nine-layer pudding)	53452150.0
53452170	0	Pastry_cookie_type_fried_Paczki_	Pastry, cookie type, fried (Paczki)	53452170.0
53452200	0	Pastry_Italian_with_cheese_cannoli_	Pastry, Italian, with cheese (cannoli)	53452200.0
53452400	0	Pastry_puff_angel_wings_	Pastry, puff (angel wings)	53452400.0
53452420	0	Pastry_puff_custard_or_cream_filled_iced_or_not_iced_cream_horn_Napolean_	Pastry, puff, custard or cream filled, iced or not iced (cream horn, Napolean)	53452420.0
53452450	0	Cheese_pastry_puffs_cheese_straws_	Cheese pastry puffs (cheese straws)	53452450.0
53452500	0	Pastry_mainly_flour_and_water_fried_Elephant_Ears_	Pastry, mainly flour and water, fried (Elephant Ears)	53452500.0
53453150	0	Empanada_fruit_filled	Empanada, fruit-filled	53453150.0
53453170	0	Empanada_pumpkin	Empanada, pumpkin	53453170.0
53510000	0	Danish_pastry_plain_or_spice	Danish pastry, plain or spice	53510000.0
53510100	0	Danish_pastry_with_fruit_Toaster_Strudel_	Danish pastry, with fruit (Toaster Strudel)	53510100.0
53510200	0	Danish_pastry_with_nuts	Danish pastry, with nuts	53510200.0
53511000	0	Danish_pastry_with_cheese	Danish pastry, with cheese	53511000.0
53511500	0	Danish_pastry_with_cheese_fat_free_cholesterol_free	Danish pastry, with cheese, fat free, cholesterol free	53511500.0
53520110	0	Donuts_cake_type_glazed_powdered_sugar_	Donuts, cake type (glazed, powdered sugar)	53520110.0
53520120	0	Doughnuts_cake_type_chocolate	Doughnuts, cake type, chocolate	53520120.0
53520140	0	Donuts_cake_type_with_chocolate_icing	Donuts, cake type, with chocolate icing	53520140.0
53520150	0	Doughnuts_cake_type_with_chocolate_icing_dipped_in_peanuts	Doughnuts, cake type, with chocolate icing, dipped in peanuts	53520150.0
53520160	0	Donuts_cake_type_chocolate_with_chocolate_icing	Donuts, cake type, chocolate, with chocolate icing	53520160.0
53520200	0	Churros	Churros	53520200.0
53520500	0	Donuts_Okinawan	Donuts, Okinawan	53520500.0
53520700	0	French_cruller	French cruller	53520700.0
53521100	0	Doughnuts_raised_chocolate_with_chocolate_icing	Doughnuts, raised, chocolate, with chocolate icing	53521100.0
53521110	0	Donuts_raised_glazed_	Donuts, raised (glazed)	53521110.0
53521120	0	Doughnuts_raised_chocolate	Doughnuts, raised, chocolate	53521120.0
53521130	0	Doughnuts_raised_with_chocolate_icing	Doughnuts, raised, with chocolate icing	53521130.0
53521140	0	Donuts_jelly	Donuts, jelly	53521140.0
53521210	0	Doughnuts_custard_filled	Doughnuts, custard-filled	53521210.0
53521220	0	Donuts_chocolate_cream_filled	Donuts, chocolate cream-filled	53521220.0
53521230	0	Doughnuts_custard_filled_with_icing	Doughnuts, custard-filled, with icing	53521230.0
53521250	0	Donuts_wheat_glazed_	Donuts, wheat (glazed)	53521250.0
53521300	0	Doughnuts_wheat_with_chocolate_icing	Doughnuts, wheat, with chocolate icing	53521300.0
53530000	0	Breakfast_tart_Pop_Tart_	Breakfast tart (Pop Tart)	53530000.0
53530010	0	Breakfast_tart_lowfat_Pop_Tart_	Breakfast tart, lowfat (Pop Tart)	53530010.0
53540200	0	Breakfast_bar_cereal_crust_with_fruit_filling_lowfat	Breakfast bar, cereal crust with fruit filling, lowfat	53540200.0
53540300	0	Fiber_One_Chewy_Bar	Fiber One Chewy Bar	53540300.0
53540400	0	Kellogg_s_Nutri_Grain_Cereal_Bar	Kellogg's Nutri-Grain Cereal Bar	53540400.0
53540402	0	Kellogg_s_Nutri_Grain_Yogurt_Bar	Kellogg's Nutri-Grain Yogurt Bar	53540402.0
53540404	0	Kellogg_s_Nutri_Grain_Fruit_and_Nut_Bar	Kellogg's Nutri-Grain Fruit and Nut Bar	53540404.0
53540500	0	Breakfast_bar_date_with_yogurt_coating_Jenny_s_Cuisine_Breakfast_Bar_	Breakfast bar, date, with yogurt coating (Jenny's Cuisine Breakfast Bar)	53540500.0
53540600	0	Milk_n_Cereal_bar	Milk 'n Cereal bar	53540600.0
53540700	0	Kellogg_s_Special_K_bar	Kellogg's Special K bar	53540700.0
53540800	0	Kashi_GOLEAN_Chewy_Bars	Kashi GOLEAN Chewy Bars	53540800.0
53540802	0	Kashi_TLC_Chewy_Granola_Bar	Kashi TLC Chewy Granola Bar	53540802.0
53540804	0	Kashi_GOLEAN_Crunchy_Bars	Kashi GOLEAN Crunchy Bars	53540804.0
53540900	0	Granola_bar_Nature_Valley_Chewy_Trail_Mix	Granola bar, Nature Valley Chewy Trail Mix	53540900.0
53540902	0	Granola_bar_Nature_Valley_Chewy_Yogurt	Granola bar, Nature Valley Chewy Yogurt	53540902.0
53540904	0	Granola_bar_Nature_Valley_Sweet_and_Salty	Granola bar, Nature Valley Sweet and Salty	53540904.0
53540906	0	Granola_bar_Nature_Valley_Crunchy	Granola bar, Nature Valley Crunchy	53540906.0
53541000	0	Granola_bar_Quaker_Chewy	Granola bar, Quaker Chewy	53541000.0
53541002	0	Granola_bar_Quaker_Chewy_90_Calorie	Granola bar, Quaker Chewy 90 Calorie	53541002.0
53541004	0	Granola_bar_Quaker_Chewy_25_Less_Sugar	Granola bar, Quaker Chewy 25% Less Sugar	53541004.0
53541006	0	Granola_bar_Quaker_Chewy_Dipps	Granola bar, Quaker Chewy Dipps	53541006.0
53541200	0	Meal_replacement_bar_Slim_Fast_Special_K_Protein_Meal_Bar_	Meal replacement bar (Slim Fast, Special K Protein Meal Bar)	53541200.0
53541300	0	Slim_Fast_Original_Meal_Bar	Slim Fast Original Meal Bar	53541300.0
53542000	0	Snack_bar_oatmeal_Quaker_Oatmeal_To_Go_	Snack bar, oatmeal (Quaker Oatmeal To Go)	53542000.0
53542100	0	Granola_bar_oats_raisins_coconut_Nature_Valley_Chewy_Quaker_Oats_Chewy_	Granola bar, oats, raisins, coconut (Nature Valley Chewy, Quaker Oats Chewy)	53542100.0
53542200	0	Granola_bar_oats_fruit_and_nuts_lowfat	Granola bar, oats, fruit and nuts, lowfat	53542200.0
53542210	0	Granola_bar_fat_free_Health_Valley_Fat_Free_Granola_Bar_	Granola bar, fat free (Health Valley Fat-Free Granola Bar)	53542210.0
53543000	0	Granola_bar_oats_reduced_sugar_Quaker_Chewy_Reduced_Sugar_	Granola bar, oats, reduced sugar (Quaker Chewy Reduced Sugar)	53543000.0
53543100	0	Granola_bar_peanuts_oats_wheat_germ	Granola bar, peanuts, oats, wheat germ	53543100.0
53544210	0	Granola_bar_with_coconut_chocolate_coated_Fudge_Dipped_Chewy_Granola_Bar_	Granola bar, with coconut, chocolate-coated (Fudge Dipped Chewy Granola Bar)	53544210.0
53544220	0	Granola_bar_with_nuts_chocolate_coated_Kudos_Crunchy_Nut_Snack_	Granola bar with nuts, chocolate-coated (Kudos Crunchy Nut Snack)	53544220.0
53544230	0	Granola_bar_oats_and_nuts_coated_with_non_chocolate_coating_Nature_Valley_Sweet_Salty_Nut_Granola_Bars_	Granola bar, oats and nuts, coated with non-chocolate coating (Nature Valley Sweet & Salty Nut Granola Bars)	53544230.0
53544250	0	Granola_bar_with_non_chocolate_coating	Granola bar, with non-chocolate coating	53544250.0
53544300	0	Granola_bar_high_fiber_coated_with_non_chocolate_yogurt_coating_Fi_bar_	Granola bar, high fiber, coated with non-chocolate yogurt coating (Fi-bar)	53544300.0
53544400	0	Granola_bar_with_rice_cereal_Rice_Krispies_Bar_	Granola bar, with rice cereal (Rice Krispies Bar)	53544400.0
53544410	0	Quaker_Granola_Bites	Quaker Granola Bites	53544410.0
53544450	0	PowerBar_fortified_high_energy_bar_	PowerBar (fortified high energy bar)	53544450.0
53610100	0	Coffee_cake_crumb_or_quick_bread_type	Coffee cake, crumb or quick-bread type	53610100.0
53610120	0	Coffee_cake_crumb_or_quick_bread_type_reduced_fat_cholesterol_free	Coffee cake, crumb or quick-bread type, reduced fat, cholesterol free	53610120.0
53610170	0	Coffee_cake_crumb_or_quick_bread_type_with_raisins	Coffee cake, crumb or quick-bread type, with raisins	53610170.0
53610200	0	Coffee_cake_crumb_or_quick_bread_type_cheese_filled	Coffee cake, crumb or quick-bread type, cheese-filled	53610200.0
53610250	0	Coffee_cake_crumb_or_quick_bread_type_custard_filled	Coffee cake, crumb or quick-bread type, custard filled	53610250.0
53710806	0	Kashi_TLC_Crunchy_Granola_Bar	Kashi TLC Crunchy Granola Bar	53710806.0
54102010	0	Graham_cracker	Graham cracker	54102010.0
54102020	0	Graham_crackers_chocolate_covered	Graham crackers, chocolate covered	54102020.0
54102050	0	Cracker_oatmeal	Cracker, oatmeal	54102050.0
54102060	0	Crackers_Cuban	Crackers, Cuban	54102060.0
54102100	0	Graham_cracker_lowfat	Graham cracker, lowfat	54102100.0
54102110	0	Graham_cracker_fat_free	Graham cracker, fat free	54102110.0
54102200	0	Graham_crackers_with_filling_or_icing_Bearwiches_Dunkaroos_	Graham crackers, with filling or icing (Bearwiches, Dunkaroos)	54102200.0
54201010	0	Crackers_matzo_low_sodium	Crackers, matzo, low sodium	54201010.0
54202010	0	Cracker_saltine_low_sodium	Cracker, saltine, low sodium	54202010.0
54202050	0	Crackers_saltine_fat_free_low_sodium	Crackers, saltine, fat free, low sodium	54202050.0
54203010	0	Cracker_toast_thins_rye_wheat_white_flour_low_sodium	Cracker, toast thins (rye, wheat, white flour), low sodium	54203010.0
54204010	0	Crackers_100_whole_wheat_low_sodium	Crackers, 100% whole wheat, low sodium	54204010.0
54205010	0	Cracker_snack_low_sodium	Cracker, snack, low sodium	54205010.0
54205030	0	Crackers_cheese_low_sodium	Crackers, cheese, low sodium	54205030.0
54205100	0	Cracker_snack_lowfat_low_sodium	Cracker, snack, lowfat, low sodium	54205100.0
54206010	0	Rice_cakes_without_salt	Rice cakes, without salt	54206010.0
54207010	0	Crispbread_wheat_low_sodium_Low_Sodium_French_Crisp_Toast_	Crispbread, wheat, low sodium (Low Sodium French Crisp Toast)	54207010.0
54210010	0	Crackers_multigrain_salt_free	Crackers, multigrain, salt free	54210010.0
54222000	0	Crispbread_rye_low_sodium	Crispbread, rye, low sodium	54222000.0
54301000	0	Crackers_snack_Ritz_Club_Sociables_Town_House_Toasteds_	Crackers, snack (Ritz, Club, Sociables, Town House, Toasteds)	54301000.0
54301100	0	Cracker_snack_reduced_fat_Ritz_Town_House_Toasteds_	Cracker, snack, reduced fat (Ritz, Town House, Toasteds)	54301100.0
54301200	0	Crackers_snack_fat_free_Snackwell_s_fat_free_	Crackers, snack, fat free (Snackwell's fat free)	54301200.0
54304000	0	Crackers_cheese_Cheez_its_Cheese_Nips_Goldfish_	Crackers, cheese (Cheez-its, Cheese Nips, Goldfish)	54304000.0
54304100	0	Cracker_cheese_reduced_fat_Cheez_It_Reduced_Fat_	Cracker, cheese, reduced fat (Cheez-It Reduced Fat)	54304100.0
54304150	0	Crackers_cheese_whole_grain_Cheez_its_Goldfish_	Crackers, cheese, whole grain (Cheez-its, Goldfish)	54304150.0
54304500	0	Crackers_high_fiber_no_added_fat	Crackers, high fiber, no added fat	54304500.0
54305000	0	Crispbread_wheat_no_added_fat_Lavosh_pilot_bread_	Crispbread, wheat, no added fat (Lavosh, pilot bread)	54305000.0
54305500	0	Crispbread_wheat_or_rye_extra_crispy	Crispbread, wheat or rye, extra crispy	54305500.0
54307000	0	Cracker_matzo	Cracker, matzo	54307000.0
54313000	0	Crackers_oyster	Crackers, oyster	54313000.0
54318000	0	Chips_brown_rice	Chips, brown rice	54318000.0
54318500	0	Rice_cakes_mini	Rice cakes, mini	54318500.0
54319000	0	Cracker_rice	Cracker, rice	54319000.0
54319010	0	Rice_cake_puffed	Rice cake, puffed	54319010.0
54319020	0	Popcorn_cake	Popcorn cake	54319020.0
54319200	0	Puffed_wheat_cake	Puffed wheat cake	54319200.0
54319500	0	Rice_paper	Rice paper	54319500.0
54322000	0	Crispbread_rye_no_added_fat_Wasa_Rye_	Crispbread, rye, no added fat (Wasa Rye)	54322000.0
54325000	0	Crackers_saltine	Crackers, saltine	54325000.0
54325050	0	Cracker_saltine_whole_wheat	Cracker, saltine, whole wheat	54325050.0
54326000	0	Cracker_multigrain	Cracker, multigrain	54326000.0
54327950	0	Pretzel_peanut_butter_filled_Combos_	Pretzel, peanut-butter filled (Combos)	54327950.0
54328100	0	Crackers_sandwich_type_peanut_butter_filled_Ritz_Bits_Lance_Austin_or_Keebler_Sandwich_Crackers_	Crackers, sandwich-type, peanut butter filled (Ritz Bits, Lance, Austin or Keebler Sandwich Crackers)	54328100.0
54328110	0	Cracker_sandwich_type_peanut_butter_filled_reduced_fat_Lance_Austin_or_Keebler_Sandwich_Crackers_	Cracker, sandwich-type, peanut butter filled, reduced fat (Lance, Austin or Keebler Sandwich Crackers)	54328110.0
54328200	0	Crackers_sandwich_type_cheese_filled_Ritz_Bits_Lance_Austin_or_Keebler_Sandwich_Crackers_	Crackers, sandwich-type, cheese-filled (Ritz Bits, Lance, Austin or Keebler Sandwich Crackers)	54328200.0
54334000	0	Cracker_toast_thins_rye_pumpernickel_white_flour_Won_ton_Chips_Keebler_Munch_ems_	Cracker, toast thins (rye, pumpernickel, white flour), (Won ton Chips, Keebler Munch 'ems)	54334000.0
54336000	0	Crackers_water_biscuits	Crackers, water biscuits	54336000.0
54337000	0	Crackers_100_whole_wheat_Triscuit_Wheatbury_	Crackers, 100% whole wheat (Triscuit, Wheatbury)	54337000.0
54337050	0	Cracker_100_whole_wheat_reduced_fat_Reduced_Fat_Triscuit_	Cracker, 100% whole wheat, reduced fat (Reduced Fat Triscuit)	54337050.0
54337100	0	Cracker_whole_wheat_and_bran	Cracker, whole wheat and bran	54337100.0
54338000	0	Crackers_wheat_Wheatables_Wheat_Thins_	Crackers, wheat (Wheatables, Wheat Thins)	54338000.0
54338100	0	Cracker_wheat_reduced_fat_Wheatables_Wheat_Thins_	Cracker, wheat, reduced fat (Wheatables, Wheat Thins)	54338100.0
54401010	0	Corn_nuts	Corn nuts	54401010.0
54401020	0	Corn_chips_Fritos_	Corn chips (Fritos)	54401020.0
54401050	0	Corn_puffs_and_twists_Cheetos_Cheez_Doodles_Cheese_Balls_Funyuns_Bugles_	Corn puffs and twists (Cheetos, Cheez Doodles, Cheese Balls, Funyuns, Bugles)	54401050.0
54401080	0	Tortilla_chips_Tostitos_Doritos_	Tortilla chips (Tostitos, Doritos)	54401080.0
54401100	0	Tortilla_chips_light_Baked_Doritos_	Tortilla chips, light (Baked Doritos)	54401100.0
54401120	0	Tortilla_chips_fat_free_made_with_Olean_Doritos_Light_	Tortilla chips, fat free, made with Olean (Doritos Light)	54401120.0
54401150	0	Tortilla_chips_lowfat_Baked_Tostitos_	Tortilla chips, lowfat (Baked Tostitos)	54401150.0
54401170	0	Tortilla_chips_lowfat_unsalted	Tortilla chips, lowfat, unsalted	54401170.0
54401200	0	Tortilla_chips_with_oat_bran	Tortilla chips, with oat bran	54401200.0
54401210	0	Cheese_puffs_and_twists_lowfat	Cheese puffs and twists, lowfat	54401210.0
54402080	0	Tortilla_chips_unsalted	Tortilla chips, unsalted	54402080.0
54402200	0	Snack_mix_corn_chips_and_pretzels_without_nuts	Snack mix, corn chips and  pretzels, without nuts	54402200.0
54402300	0	Snack_mix_wheat_based_Spicer_s_snacks_	Snack mix, wheat-based (Spicer's snacks)	54402300.0
54402500	0	Chips_wheat_and_corn_pizza_chips_	Chips, wheat and corn (pizza chips)	54402500.0
54402600	0	Multigrain_chips_Sunchips_	Multigrain chips (Sunchips)	54402600.0
54402610	0	Potato_chips_restructured_multigrain_Pringles_	Potato chips, restructured, multigrain (Pringles)	54402610.0
54402700	0	Pita_chips	Pita chips	54402700.0
54403000	0	Popcorn_microwave_or_popped_in_oil_unbuttered	Popcorn, microwave or popped in oil, unbuttered	54403000.0
54403010	0	Popcorn_air_popped_no_butter_or_oil_added_	Popcorn, air-popped (no butter or oil added)	54403010.0
54403020	0	Popcorn_microwave_or_popped_in_oil_buttered	Popcorn, microwave or popped in oil, buttered	54403020.0
54403020	205732	Popcorn_microwave_or_popped_in_oil_with_margarine	Popcorn, microwave or popped in oil, with margarine	54403020.205732
54403040	0	Popcorn_air_popped_buttered	Popcorn, air-popped, buttered	54403040.0
54403040	205687	Popcorn_air_popped_with_margarine	Popcorn, air-popped, with margarine	54403040.205687
54403050	0	Popcorn_flavored	Popcorn, flavored	54403050.0
54403060	0	Popcorn_microwave_or_popped_in_oil_lowfat_low_sodium	Popcorn, microwave or popped in oil, lowfat, low sodium	54403060.0
54403070	0	Popcorn_microwave_or_popped_in_oil_lowfat	Popcorn, microwave or popped in oil, lowfat	54403070.0
54403090	0	Popcorn_microwave_or_popped_in_oil_unsalted	Popcorn, microwave or popped in oil, unsalted	54403090.0
54403110	0	Popcorn_caramel	Popcorn, caramel	54403110.0
54403120	0	Popcorn_caramel_with_nuts	Popcorn, caramel, with nuts	54403120.0
54403150	0	Popcorn_caramel_fat_free	Popcorn, caramel, fat free	54403150.0
54406010	0	Snacks_onion_flavored_rings	Snacks, onion-flavored rings	54406010.0
54406200	0	Shrimp_chips_tapioca_base_	Shrimp chips (tapioca base)	54406200.0
54408010	0	Pretzels_hard_salted	Pretzels, hard, salted	54408010.0
54408020	0	Pretzel_soft_salted	Pretzel, soft, salted	54408020.0
54408030	0	Pretzels_hard_unsalted	Pretzels, hard, unsalted	54408030.0
54408040	0	Pretzel_soft_unsalted	Pretzel, soft, unsalted	54408040.0
54408050	0	Pretzels_oatbran_hard	Pretzels, oatbran, hard	54408050.0
54408070	0	Pretzel_hard_multigrain	Pretzel, hard, multigrain	54408070.0
54408200	0	Pretzels_hard_chocolate_covered	Pretzels, hard, chocolate-covered	54408200.0
54408250	0	Pretzel_yogurt_covered	Pretzel, yogurt-covered	54408250.0
54408300	0	Pretzels_cheese_filled_Combos_	Pretzels, cheese-filled (Combos)	54408300.0
54412110	0	Wheat_sticks_100_whole_wheat	Wheat sticks, 100% whole wheat	54412110.0
54420010	0	Snack_mix_party_mix_multigrain_pretzels_cereal_nuts_Chex_mix_	Snack mix (party mix), multigrain, pretzels, cereal , nuts (Chex mix)	54420010.0
54420100	0	Snack_mix_party_mix_Asian_peanuts_sesame_sticks_chili_rice_crackers_fried_green_peas	Snack mix (party mix), Asian, peanuts, sesame sticks, chili rice crackers, fried green peas	54420100.0
54420200	0	Snack_mix_multigrain_bread_sticks_sesame_nuggets_pretzels_rye_chips_Gardetto_s_snack_mix_	Snack mix, multigrain, bread sticks, sesame nuggets, pretzels, rye chips (Gardetto's snack mix)	54420200.0
54430010	0	Yogurt_chips	Yogurt chips	54430010.0
54440010	0	Bagel_chips	Bagel chips	54440010.0
55101000	0	Pancakes_plain	Pancakes, plain	55101000.0
55101010	0	Pancakes_reduced_calorie_high_fiber	Pancakes, reduced calorie, high fiber	55101010.0
55101015	0	Pancakes_plain_reduced_fat	Pancakes, plain, reduced fat	55101015.0
55101020	0	Pancakes_plain_fat_free	Pancakes, plain, fat free	55101020.0
55103000	0	Pancakes_blueberry	Pancakes, blueberry	55103000.0
55103100	0	Pancakes_chocolate_chip	Pancakes, chocolate chip	55103100.0
55105000	0	Pancakes_buckwheat	Pancakes, buckwheat	55105000.0
55105100	0	Pancakes_cornmeal	Pancakes, cornmeal	55105100.0
55105200	0	Pancakes_whole_wheat	Pancakes, whole wheat	55105200.0
55105205	0	Pancakes_whole_wheat_reduced_fat	Pancakes, whole wheat, reduced fat	55105205.0
55105210	0	Pancakes_whole_wheat_fat_free	Pancakes, whole wheat, fat free	55105210.0
55105300	0	Pancakes_sour_dough	Pancakes, sour dough	55105300.0
55105400	0	Pancakes_rye	Pancakes, rye	55105400.0
55201000	0	Waffles_plain_Belgian_waffles_	Waffles, plain (Belgian waffles)	55201000.0
55202000	0	Waffles_wheat_bran_or_multigrain_Roman_Meal_	Waffles, wheat, bran, or multigrain (Roman Meal)	55202000.0
55203000	0	Waffles_blueberry	Waffles, blueberry	55203000.0
55203500	0	Waffles_nut_and_honey_Eggo_	Waffles, nut and honey (Eggo)	55203500.0
55203600	0	Waffles_chocolate_chip	Waffles, chocolate chip	55203600.0
55204000	0	Waffles_cornmeal	Waffles, cornmeal	55204000.0
55205000	0	Waffles_100_whole_wheat_or_100_whole_grain	Waffles, 100% whole wheat or 100% whole grain	55205000.0
55206000	0	Waffles_oat_bran	Waffles, oat bran	55206000.0
55207000	0	Waffles_multi_bran_Eggo_Nutrigrain_	Waffles, multi-bran (Eggo Nutrigrain)	55207000.0
55211000	0	Waffles_plain_fat_free_Eggo_Special_K_Waffless_	Waffles, plain, fat free (Eggo Special K Waffless)	55211000.0
55211050	0	Waffles_plain_lowfat_Aunt_Jemima_	Waffles, plain, lowfat (Aunt Jemima)	55211050.0
55212000	0	Waffles_whole_wheat_lowfat	Waffles, whole wheat, lowfat	55212000.0
55301000	0	French_toast_plain	French toast, plain	55301000.0
55301050	0	French_toast_sticks_plain	French toast sticks, plain	55301050.0
55310100	0	Bread_fritters_Puerto_Rican_style	Bread fritters, Puerto Rican style	55310100.0
55401000	0	Crepe_plain	Crepe, plain	55401000.0
55501000	0	Chinese_pancake_flour_and_water_patty_	Chinese pancake (flour and water patty)	55501000.0
55610200	0	Dumpling_fried_Puerto_Rican_style	Dumpling, fried, Puerto Rican style	55610200.0
55610300	0	Dumplings_plain	Dumplings, plain	55610300.0
55701000	0	Cake_made_with_glutinous_rice_Mochi_	Cake made with glutinous rice (Mochi)	55701000.0
55702000	0	Cake_or_pancake_made_with_rice_flour_and_or_dried_beans_Idli_	Cake or pancake made with rice flour and/or dried beans (Idli)	55702000.0
55702100	0	Dosa_Indian_pancake_plain	Dosa (Indian pancake), plain	55702100.0
55703000	0	Cake_made_with_glutinous_rice_and_dried_beans_Injolmi_	Cake made with glutinous rice and dried beans (Injolmi)	55703000.0
55801000	0	Funnel_cake	Funnel cake	55801000.0
55801010	0	Funnel_cake_with_strawberries_and_powdered_sugar	Funnel cake, with strawberries and powdered sugar	55801010.0
56101010	0	Macaroni_or_rotini_ziti_shells_lasagna_noodles_other_pasta_cooked_with_salt_no_fat_added_	Macaroni, (or rotini, ziti, shells, lasagna noodles, other pasta), cooked (with salt, no fat added)	56101010.0
56101010	900000	Macaroni_or_rotini_ziti_shells_lasagna_noodles_other_pasta_cooked_no_salt_or_fat_added_	Macaroni, (or rotini, ziti, shells, lasagna noodles, other pasta), cooked (no salt or fat added)	56101010.900000
56101019	0	Pasta_lasagna_noodles_dry	Pasta, lasagna noodles, dry	56101019.0
56101030	0	Pasta_macaroni_rotini_ziti_shells_lasagna_noodles_cooked_with_salt_and_vegetable_oil_	Pasta, (macaroni, rotini, ziti, shells, lasagna noodles), cooked (with salt and vegetable oil)	56101030.0
56102010	0	Macaroni_whole_wheat_cooked_with_salt_no_fat_added_	Macaroni, whole wheat, cooked (with salt, no fat added)	56102010.0
56102010	900000	Pasta_macaroni_rotini_ziti_shells_lasagna_noodles_whole_wheat_cooked_no_salt_or_fat_added_	Pasta, (macaroni, rotini, ziti, shells, lasagna noodles), whole wheat, cooked (no salt or fat added)	56102010.900000
56102019	0	Pasta_shells_whole_wheat_dry	Pasta, shells, whole wheat, dry	56102019.0
56102020	0	Pasta_macaroni_rotini_ziti_shells_lasagna_noodles_whole_wheat_cooked_with_salt_and_vegetable_oil_	Pasta, (macaroni, rotini, ziti, shells, lasagna noodles), whole wheat, cooked (with salt and vegetable oil)	56102020.0
56103010	0	Macaroni_spinach_cooked_with_salt_no_fat_added_	Macaroni, spinach, cooked (with salt, no fat added)	56103010.0
56103010	900000	Macaroni_spinach_cooked_no_salt_or_fat_added_	Macaroni, spinach, cooked (no salt or fat added)	56103010.900000
56103019	0	Pasta_spaghetti_spinach_dry	Pasta, spaghetti, spinach, dry	56103019.0
56103020	0	Pasta_spinach_cooked_with_salt_and_vegetable_oil_	Pasta, spinach, cooked (with salt and vegetable oil)	56103020.0
56104010	0	Macaroni_vegetable_cooked_with_salt_no_fat_added_	Macaroni, vegetable, cooked (with salt, no fat added)	56104010.0
56104010	900000	Pasta_vegetable_cooked_no_salt_or_fat_added_	Pasta, vegetable, cooked (no salt or fat added)	56104010.900000
56104020	0	Pasta_vegetable_cooked_with_salt_and_vegetable_oil_	Pasta, vegetable, cooked (with salt and vegetable oil)	56104020.0
56112010	0	Noodles_egg_noodles_cooked_with_salt_no_fat_added_	Noodles (egg noodles), cooked (with salt, no fat added)	56112010.0
56112010	900000	Noodles_egg_noodles_cooked_no_salt_or_fat_added_	Noodles (egg noodles), cooked (no salt or fat added)	56112010.900000
56112019	0	Pasta_egg_noodles_dry	Pasta, egg noodles, dry	56112019.0
56112030	0	Noodles_egg_noodles_cooked_with_salt_and_vegetable_oil_	Noodles (egg noodles), cooked (with salt and vegetable oil)	56112030.0
56113010	0	Noodles_whole_wheat_cooked_with_salt_no_fat_added_	Noodles, whole wheat, cooked (with salt, no fat added)	56113010.0
56113010	900000	Noodles_whole_wheat_cooked_no_salt_or_fat_added_	Noodles, whole wheat, cooked (no salt or fat added)	56113010.900000
56114000	0	Noodles_spinach_cooked_with_salt_no_fat_added_	Noodles, spinach, cooked (with salt, no fat added)	56114000.0
56114000	900000	Noodles_spinach_cooked_no_salt_or_fat_added_	Noodles, spinach, cooked (no salt or fat added)	56114000.900000
56114020	0	Noodles_spinach_cooked_with_salt_and_vegetable_oil_	Noodles, spinach, cooked (with salt and vegetable oil)	56114020.0
56116000	0	Noodles_chow_mein	Noodles, chow mein	56116000.0
56117000	0	Long_rice_noodles_mung_beans_cooked_without_fat	Long rice noodles (mung beans), cooked without fat	56117000.0
56117010	0	Long_rice_noodles_mung_beans_cooked_with_vegetable_oil	Long rice noodles (mung beans), cooked with vegetable oil	56117010.0
56117100	0	Rice_noodles_chow_fun_cooked_without_fat	Rice noodles (chow fun), cooked without fat	56117100.0
56117110	0	Rice_noodles_chow_fun_cooked_with_vegetable_oil	Rice noodles (chow fun), cooked with vegetable oil	56117110.0
56117199	0	Rice_noodles_chow_fun_dry	Rice noodles (chow fun), dry	56117199.0
56130010	0	Pasta_spaghetti_linguini_vermicelli_cooked_with_salt_no_fat_added_	Pasta, (spaghetti, linguini, vermicelli), cooked (with salt, no fat added)	56130010.0
56130010	900000	Pasta_spaghetti_linguini_vermicelli_cooked_no_salt_or_fat_added_	Pasta, (spaghetti, linguini, vermicelli), cooked (no salt or fat added)	56130010.900000
56130019	0	Pasta_spaghetti_dry	Pasta, spaghetti, dry	56130019.0
56131000	0	Spaghetti_or_linguini_vermicelli_cooked_with_salt_and_vegetable_oil_	Spaghetti, (or linguini, vermicelli), cooked (with salt and vegetable oil)	56131000.0
56132000	0	Pasta_spaghetti_linguini_vermicelli_high_protein_type_cooked_with_salt_no_fat_added_	Pasta, (spaghetti, linguini, vermicelli), high protein type, cooked (with salt, no fat added)	56132000.0
56133000	0	Spaghetti_whole_wheat_cooked_with_salt_no_fat_added_	Spaghetti, whole wheat, cooked (with salt, no fat added)	56133000.0
56133000	900000	Spaghetti_whole_wheat_cooked_no_salt_or_fat_added_	Spaghetti, whole wheat, cooked (no salt or fat added)	56133000.900000
56133010	0	Pasta_spaghetti_linguini_vermicelli_whole_wheat_cooked_with_salt_and_vegetable_oil_	Pasta, (spaghetti, linguini, vermicelli), whole wheat, cooked (with salt and vegetable oil)	56133010.0
56133999	0	Pasta_spaghetti_whole_wheat_dry	Pasta, spaghetti, whole wheat, dry	56133999.0
56145000	0	Pasta_ziti_dry	Pasta, ziti, dry	56145000.0
56145500	0	Pasta_fettucine_noodles_dry	Pasta, fettucine noodles, dry	56145500.0
56200400	0	Barley_cooked_with_salt_no_fat_added_	Barley, cooked (with salt, no fat added)	56200400.0
56200400	900000	Barley_cooked_no_salt_or_fat_added_	Barley, cooked (no salt or fat added)	56200400.900000
56200499	0	Barley_dry	Barley, dry	56200499.0
56200500	0	Buckwheat_groats_kasha_cooked_with_salt_no_fat_added_	Buckwheat groats (kasha), cooked (with salt, no fat added)	56200500.0
56200500	900000	Buckwheat_groats_kasha_cooked_no_salt_or_fat_added_	Buckwheat groats (kasha), cooked (no salt or fat added)	56200500.900000
56200510	0	Buckwheat_groats_cooked_with_salt_and_margarine_	Buckwheat groats, cooked (with salt and margarine)	56200510.0
56200599	0	Buckwheat_groats_kasha_dry	Buckwheat groats (kasha), dry	56200599.0
56201010	0	Grits_corn_or_hominy_regular_cooked_with_salt_no_fat_added_	Grits, corn or hominy, regular, cooked (with salt, no fat added)	56201010.0
56201010	206552	Grits_corn_or_hominy_regular_cooked_with_salt_and_milk_no_fat_added_	Grits, corn or hominy, regular, cooked (with salt and milk, no fat added)	56201010.206552
56201010	900000	Grits_corn_or_hominy_regular_cooked_no_salt_or_fat_added_	Grits, corn or hominy, regular, cooked (no salt or fat added)	56201010.900000
56201018	0	Grits_regular_or_quick_white_dry	Grits, regular or quick, white, dry	56201018.0
56201019	0	Grits_regular_or_quick_yellow_dry	Grits, regular or quick, yellow, dry	56201019.0
56201020	0	Grits_corn_or_hominy_regular_cooked_with_salt_and_margarine_	Grits, corn or hominy, regular, cooked (with salt and margarine)	56201020.0
56201020	205192	Grits_corn_or_hominy_regular_cooked_with_salt_milk_and_margarine_	Grits, corn or hominy, regular, cooked (with salt, milk, and margarine)	56201020.205192
56201071	0	Grits_corn_or_hominy_regular_with_cheese_cooked_without_fat	Grits, corn or hominy, regular, with cheese, cooked without fat	56201071.0
56201072	0	Grits_corn_or_hominy_regular_with_cheese_cooked_with_margarine	Grits, corn or hominy, regular, with cheese, cooked with margarine	56201072.0
56201081	0	Grits_corn_or_hominy_quick_with_cheese_cooked_without_fat	Grits, corn or hominy, quick, with cheese, cooked without fat	56201081.0
56201082	0	Grits_corn_or_hominy_quick_with_cheese_cooked_with_margarine	Grits, corn or hominy, quick, with cheese, cooked with margarine	56201082.0
56201091	0	Grits_corn_or_hominy_instant_plain_with_cheese_cooked_without_fat	Grits, corn or hominy, instant, plain, with cheese, cooked without fat	56201091.0
56201092	0	Grits_corn_or_hominy_instant_plain_with_cheese_cooked_with_margarine	Grits, corn or hominy, instant, plain, with cheese, cooked with margarine	56201092.0
56201092	101323	Grits_corn_or_hominy_instant_plain_with_cheese_cooked_with_margarine_and_milk	Grits, corn or hominy, instant, plain, with cheese, cooked with margarine and milk	56201092.101323
56201110	0	Grits_corn_or_hominy_quick_cooked_with_salt_no_fat_added_	Grits, corn or hominy, quick, cooked (with salt, no fat added)	56201110.0
56201110	206522	Grits_corn_or_hominy_quick_cooked_with_salt_and_milk_no_fat_added_	Grits, corn or hominy, quick, cooked (with salt and milk, no fat added)	56201110.206522
56201110	900000	Grits_corn_or_hominy_quick_cooked_no_salt_or_fat_added_	Grits, corn or hominy, quick, cooked (no salt or fat added)	56201110.900000
56201120	0	Grits_corn_or_hominy_quick_cooked_with_salt_and_margarine_	Grits, corn or hominy, quick, cooked (with salt and margarine)	56201120.0
56201120	101321	Grits_corn_or_hominy_quick_cooked_with_salt_milk_and_margarine_	Grits, corn or hominy, quick, cooked (with salt, milk, and margarine)	56201120.101321
56201210	0	Grits_corn_or_hominy_instant_plain_cooked_no_fat_added_	Grits, corn or hominy, instant, plain, cooked (no fat added)	56201210.0
56201210	101322	Grits_corn_or_hominy_instant_plain_cooked_with_milk_no_fat_added_	Grits, corn or hominy, instant, plain, cooked (with milk, no fat added)	56201210.101322
56201220	0	Grits_corn_or_hominy_instant_plain_cooked_with_margarine_	Grits, corn or hominy, instant, plain, cooked (with margarine)	56201220.0
56201220	101325	Grits_corn_or_hominy_instant_plain_cooked_with_milk_and_margarine_	Grits, corn or hominy, instant, plain, cooked (with milk and margarine)	56201220.101325
56201240	101326	Grits_corn_or_hominy_instant_cheddar_flavor_cooked_with_milk_no_fat_added_	Grits, corn or hominy, instant, cheddar flavor, cooked (with milk, no fat added)	56201240.101326
56201250	0	Grits_corn_or_hominy_instant_cheddar_flavor_cooked_with_margarine_	Grits, corn or hominy, instant, cheddar flavor, cooked, (with margarine)	56201250.0
56201510	0	Cornmeal_mush_made_with_water	Cornmeal mush, made with water	56201510.0
56201520	0	Cornmeal_mush_fried	Cornmeal mush, fried	56201520.0
56201530	0	Cornmeal_mush_made_with_milk	Cornmeal mush, made with milk	56201530.0
56201550	0	Cornmeal_dumpling	Cornmeal dumpling	56201550.0
56201560	0	Cornmeal_sticks_boiled_guanimes_	Cornmeal sticks, boiled (guanimes)	56201560.0
56201600	0	Cornmeal_lime_treated_cooked_Masa_harina_	Cornmeal, lime-treated, cooked (Masa harina)	56201600.0
56201700	0	Cornstarch_and_milk_cereal_Maizena_	Cornstarch and milk cereal (Maizena)	56201700.0
56201750	0	Cornstarch_dry	Cornstarch, dry	56201750.0
56202000	0	Millet_cooked_with_salt_no_fat_added_	Millet, cooked (with salt, no fat added)	56202000.0
56202000	900000	Millet_cooked_no_salt_or_fat_added_	Millet, cooked (no salt or fat added)	56202000.900000
56202100	0	Millet_cooked_with_salt_and_margarine_	Millet, cooked (with salt and margarine)	56202100.0
56202999	0	Millet_dry	Millet, dry	56202999.0
56203010	0	Oatmeal_regular_cooked_with_salt_no_fat_added_	Oatmeal, regular, cooked (with salt, no fat added)	56203010.0
56203010	205375	Oatmeal_regular_cooked_with_salt_and_soymilk_no_fat_added_	Oatmeal, regular, cooked (with salt and soymilk, no fat added)	56203010.205375
56203010	206745	Oatmeal_regular_cooked_with_salt_and_rice_milk_no_fat_added_	Oatmeal, regular, cooked (with salt and rice milk, no fat added)	56203010.206745
56203010	900000	Oatmeal_regular_cooked_no_salt_or_fat_added_	Oatmeal, regular, cooked (no salt or fat added)	56203010.900000
56203019	0	Oats_regular_or_quick_to_be_cooked_in_liquid	Oats, regular or quick, to be cooked in liquid	56203019.0
56203020	0	Oatmeal_quick_cooked_with_salt_no_fat_added_	Oatmeal, quick, cooked (with salt, no fat added)	56203020.0
56203020	100530	Oatmeal_quick_cooked_with_salt_and_soymilk_no_fat_added_	Oatmeal, quick, cooked (with salt and soymilk, no fat added)	56203020.100530
56203020	900000	Oatmeal_quick_cooked_no_salt_or_fat_added_	Oatmeal, quick, cooked (no salt or fat added)	56203020.900000
56203050	0	Oatmeal_regular_cooked_with_salt_and_margarine_	Oatmeal, regular, cooked (with salt and margarine)	56203050.0
56203060	0	Oatmeal_quick_cooked_with_salt_and_margarine_	Oatmeal, quick, cooked (with salt and margarine)	56203060.0
56203070	0	Oatmeal_instant_cooked_with_margarine_	Oatmeal, instant, cooked (with margarine)	56203070.0
56203070	206418	Oatmeal_instant_cooked_with_milk_and_margarine_	Oatmeal, instant, cooked (with milk and margarine)	56203070.206418
56203110	0	Oatmeal_with_maple_flavor_cooked	Oatmeal with maple flavor, cooked	56203110.0
56203200	0	Oatmeal_with_fruit_cooked	Oatmeal with fruit, cooked	56203200.0
56203211	0	Oatmeal_regular_cooked_with_salt_and_milk_no_fat_added_	Oatmeal, regular, cooked (with salt and milk, no fat added)	56203211.0
56203212	0	Oatmeal_quick_cooked_made_salt_and_milk_no_fat_added_	Oatmeal, quick, cooked (made salt and milk, no fat added)	56203212.0
56203221	0	Oatmeal_regular_cooked_with_salt_milk_and_margarine_	Oatmeal, regular, cooked (with salt, milk, and margarine)	56203221.0
56203222	0	Oatmeal_quick_cooked_with_salt_milk_and_margarine_	Oatmeal, quick, cooked (with salt, milk, and margarine)	56203222.0
56203223	0	Oatmeal_instant_cooked_with_salt_milk_and_margarine_	Oatmeal, instant, cooked (with salt, milk, and margarine)	56203223.0
56203610	0	Oatmeal_multigrain_cooked_with_salt_no_fat_added_	Oatmeal, multigrain, cooked (with salt, no fat added)	56203610.0
56203610	206537	Oatmeal_multigrain_cooked_with_salt_and_milk_no_fat_added_	Oatmeal, multigrain, cooked (with salt and milk, no fat added)	56203610.206537
56203619	0	Oats_multigrain_to_be_cooked_in_liquid	Oats, multigrain, to be cooked in liquid	56203619.0
56203620	0	Oatmeal_multigrain_cooked_with_salt_and_margarine_	Oatmeal, multigrain, cooked (with salt and margarine)	56203620.0
56204005	0	Quinoa_cooked_with_salt_no_fat_added_	Quinoa, cooked (with salt, no fat added)	56204005.0
56204010	0	Quinoa_cooked_with_salt_and_margarine_	Quinoa, cooked (with salt and margarine)	56204010.0
56205002	0	Rice_white_cooked_with_salt_and_vegetable_oil_	Rice, white, cooked (with salt and vegetable oil)	56205002.0
56205004	0	Rice_white_cooked_with_salt_and_butter_	Rice, white, cooked (with salt and butter)	56205004.0
56205006	0	Rice_white_cooked_cooked_with_salt_and_margarine_	Rice, white, cooked, cooked (with salt and margarine)	56205006.0
56205008	0	Rice_white_cooked_with_salt_no_fat_added_	Rice, white, cooked, (with salt, no fat added)	56205008.0
56205010	900000	Rice_white_cooked_no_salt_or_fat_added_	Rice, white, cooked (no salt or fat added)	56205010.900000
56205012	0	Rice_brown_cooked_fat_added_in_cooking_with_salt_and_vegetable_oil_	Rice, brown, cooked, fat added in cooking (with salt and vegetable oil)	56205012.0
56205014	0	Rice_brown_cooked_fat_added_in_cooking_with_salt_and_butter_	Rice, brown, cooked, fat added in cooking (with salt and butter)	56205014.0
56205016	0	Rice_brown_cooked_fat_added_in_cooking_with_salt_and_margarine_	Rice, brown, cooked, fat added in cooking (with salt and margarine)	56205016.0
56205018	0	Rice_brown_cooked_with_salt_no_fat_added_	Rice, brown, cooked (with salt, no fat added)	56205018.0
56205019	0	Rice_white_regular_dry	Rice, white, regular, dry	56205019.0
56205039	0	Rice_white_instant_dry	Rice, white, instant, dry	56205039.0
56205050	0	Rice_cereal_cream_of_rice_cooked_with_salt_no_fat_added_	Rice cereal (cream of rice), cooked (with salt, no fat added)	56205050.0
56205050	900000	Rice_cereal_cream_of_rice_cooked_no_salt_or_fat_added_	Rice cereal (cream of rice), cooked (no salt or fat added)	56205050.900000
56205060	0	Rice_cooked_with_milk	Rice, cooked with milk	56205060.0
56205080	0	Rice_creamed_made_with_milk_and_sugar_Puerto_Rican_style	Rice, creamed, made with milk and sugar, Puerto Rican style	56205080.0
56205110	900000	Rice_brown_cooked_no_salt_or_fat_added_	Rice, brown, cooked (no salt or fat added)	56205110.900000
56205119	0	Rice_brown_regular_dry	Rice, brown, regular, dry	56205119.0
56205150	0	Rice_yellow_cooked_with_salt_no_fat_added_	Rice, yellow, cooked (with salt, no fat added)	56205150.0
56205170	0	Rice_yellow_cooked_with_salt_and_margarine_	Rice, yellow, cooked (with salt and margarine)	56205170.0
56205170	200798	Rice_yellow_cooked_with_salt_and_vegetable_oil_	Rice, yellow, cooked (with salt and vegetable oil)	56205170.200798
56205170	201429	Rice_yellow_cooked_with_salt_and_butter_	Rice, yellow, cooked (with salt and butter)	56205170.201429
56205190	0	Rice_white_glutinous	Rice, white, glutinous	56205190.0
56205210	0	Rice_wild_cooked_with_salt_no_fat_added_	Rice, wild, cooked (with salt, no fat added)	56205210.0
56205210	900000	Rice_wild_cooked_no_salt_or_fat_added_	Rice, wild, cooked (no salt or fat added)	56205210.900000
56205215	0	Rice_wild_cooked_with_salt_and_vegetable_oil_	Rice, wild, cooked (with salt and vegetable oil)	56205215.0
56205219	0	Rice_wild_dry	Rice, wild, dry	56205219.0
56205300	0	Rice_white_and_wild_blend_cooked_without_fat	Rice, white and wild blend, cooked without fat	56205300.0
56205310	0	Rice_brown_and_wild_blend_cooked_without_fat	Rice, brown and wild blend, cooked without fat	56205310.0
56205320	0	Rice_white_and_wild_blend_cooked_with_margarine	Rice, white and wild blend, cooked with margarine	56205320.0
56205320	205440	Rice_white_and_wild_blend_cooked_with_butter	Rice, white and wild blend, cooked with butter	56205320.205440
56205320	205537	Rice_white_and_wild_blend_cooked_with_vegetable_oil	Rice, white and wild blend, cooked with vegetable oil	56205320.205537
56205340	0	Rice_brown_and_wild_blend_cooked_with_margarine	Rice, brown and wild blend, cooked with margarine	56205340.0
56205340	101292	Rice_brown_and_wild_blend_cooked_with_vegetable_oil	Rice, brown and wild blend, cooked with vegetable oil	56205340.101292
56205340	204500	Rice_brown_and_wild_blend_cooked_with_butter	Rice, brown and wild blend, cooked with butter	56205340.204500
56205410	0	Rice_white_cooked_with_oil_Puerto_Rican_style	Rice, white, cooked with oil, Puerto Rican style	56205410.0
56207010	0	Cream_of_wheat_regular_cooked_with_salt_no_fat_added_	Cream of wheat, regular, cooked (with salt, no fat added)	56207010.0
56207010	205427	Cream_of_wheat_regular_cooked_with_salt_and_soymilk_no_fat_added_	Cream of wheat, regular, cooked (with salt and soymilk, no fat added)	56207010.205427
56207010	206436	Cream_of_wheat_regular_cooked_with_salt_and_milk_no_fat_added_	Cream of wheat, regular, cooked (with salt and milk, no fat added)	56207010.206436
56207010	900000	Cream_of_wheat_regular_cooked_no_salt_or_fat_added_	Cream of wheat, regular, cooked (no salt or fat added)	56207010.900000
56207019	0	Cream_of_wheat_regular_dry	Cream of wheat, regular, dry	56207019.0
56207020	0	Cream_of_wheat_quick_cooked_with_salt_no_fat_added_	Cream of wheat, quick, cooked (with salt, no fat added)	56207020.0
56207020	202352	Cream_of_wheat_quick_cooked_with_salt_and_milk_no_fat_added_	Cream of wheat, quick, cooked (with salt and milk, no fat added)	56207020.202352
56207020	900000	Cream_of_wheat_quick_cooked_no_salt_or_fat_added_	Cream of wheat, quick, cooked (no salt or fat added)	56207020.900000
56207030	0	Cream_of_wheat_instant_cooked_no_fat_added_	Cream of wheat, instant, cooked (no fat added)	56207030.0
56207030	200871	Cream_of_wheat_instant_cooked_with_milk_no_fat_added_	Cream of wheat, instant, cooked (with milk, no fat added)	56207030.200871
56207039	0	Cream_of_wheat_instant_dry	Cream of wheat, instant, dry	56207039.0
56207060	0	Cream_of_wheat_instant_cooked_with_margarine_	Cream of wheat, instant, cooked (with margarine)	56207060.0
56207060	101328	Cream_of_wheat_instant_cooked_with_milk_and_margarine_	Cream of wheat, instant, cooked (with milk and margarine)	56207060.101328
56207110	0	Bulgur_wheat_pilaf_cooked_with_salt_no_fat_added_	Bulgur (wheat pilaf), cooked (with salt, no fat added)	56207110.0
56207110	900000	Bulgur_wheat_pilaf_cooked_no_salt_or_fat_added_	Bulgur (wheat pilaf), cooked (no salt or fat added)	56207110.900000
56207119	0	Bulgur_wheat_pilaf_dry	Bulgur (wheat pilaf), dry	56207119.0
56207120	0	Bulgur_wheat_pilaf_cooked_with_salt_and_margarine_	Bulgur (wheat pilaf), cooked (with salt and margarine)	56207120.0
56207150	0	Couscous_plain_cooked_with_salt_no_fat_added_	Couscous, plain, cooked (with salt, no fat added)	56207150.0
56207150	900000	Couscous_plain_cooked_no_salt_or_fat_added_	Couscous, plain, cooked (no salt or fat added)	56207150.900000
56207159	0	Couscous_dry	Couscous, dry	56207159.0
56207180	0	Couscous_plain_cooked_with_salt_and_margarine_	Couscous, plain, cooked (with salt and margarine)	56207180.0
56207180	100633	Couscous_plain_cooked_with_salt_and_butter_	Couscous, plain, cooked (with salt and butter)	56207180.100633
56207180	203973	Couscous_plain_cooked_with_salt_and_vegetable_oil_	Couscous, plain, cooked (with salt and vegetable oil)	56207180.203973
56207200	0	Whole_wheat_cereal_Roman_Meal_Branola_Wheatena_cooked_with_salt_no_fat_added_	Whole wheat cereal (Roman Meal, Branola, Wheatena), cooked (with salt, no fat added)	56207200.0
56207200	101329	Whole_wheat_cereal_Roman_Meal_Branola_Wheatena_cooked_with_salt_and_milk_no_fat_added_	Whole wheat cereal (Roman Meal, Branola, Wheatena), cooked (with salt and milk, no fat added)	56207200.101329
56207200	900000	Whole_wheat_cereal_Roman_Meal_Branola_Wheatena_cooked_no_salt_or_fat_added_	Whole wheat cereal (Roman Meal, Branola, Wheatena), cooked (no salt or fat added)	56207200.900000
56207210	0	Whole_wheat_cereal_Roman_Meal_Branola_Wheatena_cooked_with_salt_and_margarine_	Whole wheat cereal (Roman Meal, Branola, Wheatena), cooked (with salt and margarine)	56207210.0
56207220	0	Cream_of_wheat_regular_cooked_with_salt_and_margarine_	Cream of wheat,  regular, cooked (with salt and margarine)	56207220.0
56207220	206453	Cream_of_wheat_regular_cooked_with_salt_milk_and_margarine_	Cream of wheat,  regular, cooked (with salt, milk, and margarine)	56207220.206453
56207230	0	Cream_of_wheat_quick_cooked_with_salt_and_margarine_	Cream of wheat,  quick, cooked (with salt and margarine)	56207230.0
56207230	101330	Cream_of_wheat_quick_cooked_with_salt_milk_and_margarine_	Cream of wheat,  quick, cooked (with salt, milk, and margarine)	56207230.101330
56207300	0	Maltex_or_Malt_O_Meal_cooked_with_salt_no_fat_added_	Maltex or Malt-O-Meal, cooked (with salt, no fat added)	56207300.0
56207300	101335	Maltex_or_Malt_O_Meal_cooked_with_salt_and_milk_no_fat_added_	Maltex or Malt-O-Meal, cooked (with salt and milk, no fat added)	56207300.101335
56207300	900000	Maltex_or_Malt_O_Meal_cooked_no_salt_or_fat_added_	Maltex or Malt-O-Meal, cooked (no salt or fat added)	56207300.900000
56207330	0	Maltex_or_Malt_O_Meal_cooked_with_salt_and_margarine_	Maltex or Malt-O-Meal, cooked (with salt and margarine)	56207330.0
56207330	206406	Maltex_or_Malt_O_Meal_cooked_with_salt_milk_and_margarine_	Maltex or Malt-O-Meal, cooked (with salt, milk, and margarine)	56207330.206406
56207399	0	Maltex_dry	Maltex, dry	56207399.0
56208510	0	Oat_bran_cereal_cooked_with_salt_and_margarine_	Oat bran cereal, cooked (with salt and margarine)	56208510.0
56208530	0	Oat_bran_cereal_cooked_with_salt_and_milk_no_fat_added_	Oat bran cereal, cooked (with salt and milk, no fat added)	56208530.0
56208540	0	Oat_bran_cereal_cooked_cooked_with_salt_milk_and_margarine_	Oat bran cereal, cooked, cooked (with salt, milk, and margarine)	56208540.0
56208599	0	Oat_bran_cereal_dry	Oat bran cereal, dry	56208599.0
56210000	0	Nestum_cereal	Nestum cereal	56210000.0
56299901	0	Oatmeal_instant_plain_cooked_no_fat_added_	Oatmeal, instant, plain, cooked (no fat added)	56299901.0
56299902	0	Oatmeal_instant_cinnamon_and_spice_cooked_no_fat_added_	Oatmeal, instant, cinnamon and spice, cooked (no fat added)	56299902.0
56299903	0	Oatmeal_instant_raisins_and_spice_cooked_no_fat_added_	Oatmeal, instant, raisins and spice, cooked (no fat added)	56299903.0
56299904	0	Oatmeal_instant_plain_cooked_with_milk_no_fat_added_	Oatmeal, instant, plain, cooked (with milk, no fat added)	56299904.0
56299905	0	Oatmeal_instant_cinnamon_and_spice_cooked_with_milk_no_fat_added_	Oatmeal, instant, cinnamon and spice, cooked (with milk, no fat added)	56299905.0
56299906	0	Oatmeal_instant_raisins_and_spice_cooked_with_milk_no_fat_added_	Oatmeal, instant, raisins and spice, cooked (with milk, no fat added)	56299906.0
56299907	0	Oatmeal_instant_plain_cooked_with_soymilk_no_fat_added_	Oatmeal, instant, plain, cooked (with soymilk, no fat added)	56299907.0
56299908	0	Oatmeal_instant_cinnamon_and_spice_cooked_with_soymilk_no_fat_added_	Oatmeal, instant, cinnamon and spice, cooked (with soymilk, no fat added)	56299908.0
56299909	0	Oatmeal_instant_raisins_and_spice_cooked_with_soymilk_no_fat_added_	Oatmeal, instant, raisins and spice, cooked (with soymilk, no fat added)	56299909.0
57101000	0	All_Bran_Cereal	All-Bran Cereal	57101000.0
57101020	0	All_Bran_with_Extra_Fiber_Cereal	All-Bran with Extra Fiber Cereal	57101020.0
57102000	0	Alpen_Cereal	Alpen Cereal	57102000.0
57103000	0	Alpha_Bits_Cereal	Alpha-Bits Cereal	57103000.0
57103020	0	Alpha_bits_with_marshmallows_cereal	Alpha-bits with marshmallows cereal	57103020.0
57103050	0	Amaranth_Flakes_Cereal	Amaranth Flakes Cereal	57103050.0
57103100	0	Apple_Cinnamon_Cheerios_Cereal	Apple Cinnamon Cheerios Cereal	57103100.0
57103500	0	Apple_Cinnamon_Squares_Mini_Wheats_Cereal	Apple Cinnamon Squares Mini-Wheats Cereal	57103500.0
57104000	0	Apple_Jacks_Cereal	Apple Jacks Cereal	57104000.0
57106050	0	Banana_Nut_Crunch_Cereal	Banana Nut Crunch Cereal	57106050.0
57106060	0	Banana_Nut_Cheerios	Banana Nut Cheerios	57106060.0
57106100	0	Basic_4_Cereal	Basic 4 Cereal	57106100.0
57106250	0	Berry_Berry_Kix_Cereal	Berry Berry Kix Cereal	57106250.0
57106260	0	Berry_Burst_Cheerios_Cereal	Berry Burst Cheerios Cereal	57106260.0
57106530	0	Blueberry_Morning_Cereal	Blueberry Morning Cereal	57106530.0
57107000	0	Booberry_Cereal	Booberry Cereal	57107000.0
57110000	0	All_Bran_Bran_Buds_Cereal	All-Bran Bran Buds Cereal	57110000.0
57111000	0	Bran_Chex_Cereal	Bran Chex Cereal	57111000.0
57117000	0	Cap_n_Crunch_Cereal	Cap'n Crunch Cereal	57117000.0
57117500	0	Cap_n_Crunch_s_Christmas_Crunch_Cereal	Cap'n Crunch's Christmas Crunch Cereal	57117500.0
57119000	0	Cap_n_Crunch_s_Crunch_Berries_Cereal	Cap'n Crunch's Crunch Berries Cereal	57119000.0
57120000	0	Cap_n_Crunch_s_Peanut_Butter_Crunch_Cereal	Cap'n Crunch's Peanut Butter Crunch Cereal	57120000.0
57123000	0	Cheerios_Cereal	Cheerios Cereal	57123000.0
57124050	0	Chex_Cinnamon	Chex Cinnamon	57124050.0
57124100	0	Chocolate_Cheerios	Chocolate Cheerios	57124100.0
57124200	0	Chocolate_flavored_frosted_puffed_corn_cereal	Chocolate flavored frosted puffed corn cereal	57124200.0
57124300	0	Chocolate_Lucky_Charms	Chocolate Lucky Charms	57124300.0
57124500	0	Cinnamon_Grahams_Cereal	Cinnamon Grahams Cereal	57124500.0
57125000	0	Cinnamon_Toast_Crunch_Cereal	Cinnamon Toast Crunch Cereal	57125000.0
57125010	0	Cinnamon_Toast_Crunch_Reduced_Sugar_Cereal	Cinnamon Toast Crunch Reduced Sugar Cereal	57125010.0
57125900	0	Honey_Nut_Clusters_Cereal	Honey Nut Clusters Cereal	57125900.0
57126000	0	Cocoa_Krispies_Cereal	Cocoa Krispies Cereal	57126000.0
57126500	0	Cocoa_Blasts_Cereal	Cocoa Blasts Cereal	57126500.0
57127000	0	Cocoa_Pebbles_Cereal	Cocoa Pebbles Cereal	57127000.0
57128000	0	Cocoa_Puffs_Cereal	Cocoa Puffs Cereal	57128000.0
57128005	0	Cocoa_Puffs_reduced_sugar	Cocoa Puffs, reduced sugar	57128005.0
57128880	0	Complete_Oat_Bran_Flakes_Cereal	Complete Oat Bran Flakes Cereal	57128880.0
57130000	0	Cookie_Crisp_Cereal	Cookie-Crisp Cereal	57130000.0
57131000	0	Crunchy_Corn_Bran_Cereal	Crunchy Corn Bran Cereal	57131000.0
57132000	0	Corn_Chex_Cereal	Corn Chex Cereal	57132000.0
57134090	0	Corn_flakes_cereal_low_sodium	Corn flakes cereal, low sodium	57134090.0
57135000	0	Corn_flakes_cereal	Corn flakes cereal	57135000.0
57137000	0	Corn_Puffs_Cereal	Corn Puffs Cereal	57137000.0
57138000	0	Total_Corn_Flakes_Cereal	Total Corn Flakes Cereal	57138000.0
57139000	0	Count_Chocula_Cereal	Count Chocula Cereal	57139000.0
57143000	0	Cracklin_Oat_Bran_Cereal	Cracklin' Oat Bran Cereal	57143000.0
57143500	0	Cranberry_Almond_Crunch_Cereal	Cranberry Almond Crunch Cereal	57143500.0
57144000	0	Crisp_Crunch_Cereal	Crisp Crunch Cereal	57144000.0
57148000	0	Crispix_Cereal	Crispix Cereal	57148000.0
57148500	0	Crispy_Brown_Rice_Cereal	Crispy Brown Rice Cereal	57148500.0
57148600	0	Harmony_Cereal	Harmony Cereal	57148600.0
57151000	0	Crispy_Rice	Crispy Rice	57151000.0
57160000	0	Curves_Fruit_and_Nut_Crunch_Cereal	Curves Fruit and Nut Crunch Cereal	57160000.0
57201800	0	Disney_Cereal	Disney Cereal	57201800.0
57201900	0	Dora_the_Explorer_Cereal	Dora the Explorer Cereal	57201900.0
57206000	0	Familia_Cereal	Familia Cereal	57206000.0
57206700	0	Fiber_One_Cereal	Fiber One Cereal	57206700.0
57206705	0	Fiber_One_Caramel_Delight	Fiber One Caramel Delight	57206705.0
57206710	0	Fiber_One_Honey_Clusters	Fiber One Honey Clusters	57206710.0
57206715	0	Fiber_One_Raisin_Bran_Clusters	Fiber One Raisin Bran Clusters	57206715.0
57206800	0	Fiber_7_Flakes_Cereal	Fiber 7 Flakes Cereal	57206800.0
57208000	0	Complete_Wheat_Bran_Flakes_Cereal	Complete Wheat Bran Flakes Cereal	57208000.0
57209000	0	Natural_Bran_Flakes_Cereal	Natural Bran Flakes Cereal	57209000.0
57211000	0	Frankenberry_Cereal	Frankenberry Cereal	57211000.0
57212100	0	French_Toast_Crunch_Cereal	French Toast Crunch Cereal	57212100.0
57213000	0	Froot_Loops_Cereal	Froot Loops Cereal	57213000.0
57213005	0	Froot_Loops_Cereal_Straws	Froot Loops Cereal Straws	57213005.0
57213850	0	Frosted_Cheerios_Cereal	Frosted Cheerios Cereal	57213850.0
57214000	0	Frosted_Mini_Wheats_Cereal	Frosted Mini-Wheats Cereal	57214000.0
57214100	0	Frosted_Wheat_Bites_Cereal	Frosted Wheat Bites Cereal	57214100.0
57215000	0	Frosty_O_s_Cereal	Frosty O's Cereal	57215000.0
57218000	0	Frosted_Rice_Krispies_Cereal	Frosted Rice Krispies Cereal	57218000.0
57221000	0	Fruit_Fibre_fiber_Cereal_with_dates_raisins_and_walnuts	Fruit & Fibre (fiber) Cereal with dates, raisins, and walnuts	57221000.0
57221650	0	Fruit_Harvest_Cereal	Fruit Harvest Cereal	57221650.0
57221800	0	Fruit_Whirls_Cereal	Fruit Whirls Cereal	57221800.0
57221810	0	Fruity_Cheerios_Cereal	Fruity Cheerios Cereal	57221810.0
57223000	0	Fruity_Pebbles_Cereal	Fruity Pebbles Cereal	57223000.0
57224000	0	Golden_Grahams_Cereal	Golden Grahams Cereal	57224000.0
57228000	0	Granola_homemade	Granola, homemade	57228000.0
57229000	0	Granola_lowfat	Granola, lowfat	57229000.0
57229500	0	Granola_with_Raisins_lowfat	Granola with Raisins, lowfat	57229500.0
57230000	0	Grape_Nuts_Cereal	Grape-Nuts Cereal	57230000.0
57231000	0	Grape_Nut_Flakes_Cereal	Grape-Nut Flakes Cereal	57231000.0
57231200	0	Great_Grains_Raisin_Date_and_Pecan_Whole_Grain_Cereal	Great Grains, Raisin, Date, and Pecan Whole Grain Cereal	57231200.0
57231250	0	Great_Grains_Double_Pecan_Whole_Grain_Cereal	Great Grains Double Pecan Whole Grain Cereal	57231250.0
57237100	0	Honey_Bunches_of_Oats_Cereal	Honey Bunches of Oats Cereal	57237100.0
57237200	0	Honey_Bunches_of_Oats_with_Vanilla_Clusters	Honey Bunches of Oats with Vanilla Clusters	57237200.0
57237300	0	Honey_Bunches_of_Oats_with_Almonds_Cereal	Honey Bunches of Oats with Almonds Cereal	57237300.0
57237310	0	Honey_Bunches_of_Oats_with_Pecan_Bunches	Honey Bunches of Oats with Pecan Bunches	57237310.0
57238000	0	Honeycomb_Cereal_plain	Honeycomb Cereal, plain	57238000.0
57239000	0	Honeycomb_Cereal_strawberry	Honeycomb Cereal, strawberry	57239000.0
57239100	0	Honey_Crunch_Corn_Flakes_Cereal	Honey Crunch Corn Flakes Cereal	57239100.0
57240100	0	Honey_Nut_Chex_Cereal	Honey Nut Chex Cereal	57240100.0
57241000	0	Honey_Nut_Cheerios_Cereal	Honey Nut Cheerios Cereal	57241000.0
57241200	0	Honey_Nut_Shredded_Wheat_Cereal	Honey Nut Shredded Wheat Cereal	57241200.0
57243000	0	Honey_Smacks_Cereal	Honey Smacks Cereal	57243000.0
57243870	0	Jenny_O_s_Cereal	Jenny O's Cereal	57243870.0
57244000	0	Just_Right_Cereal	Just Right Cereal	57244000.0
57245000	0	Just_Right_Fruit_and_Nut_Cereal	Just Right Fruit and Nut Cereal	57245000.0
57301100	0	Kaboom_Cereal	Kaboom Cereal	57301100.0
57301500	0	Kashi_Cereal_Puffed	Kashi Cereal, Puffed	57301500.0
57301505	0	Kashi_Autumn_Wheat_Cereal	Kashi Autumn Wheat Cereal	57301505.0
57301510	0	Kashi_GOLEAN_Cereal	Kashi GOLEAN Cereal	57301510.0
57301511	0	Kashi_GOLEAN_Crunch	Kashi GOLEAN Crunch	57301511.0
57301512	0	Kashi_GOLEAN_Crunch_Honey_Almond_Flax_Cereal	Kashi GOLEAN Crunch Honey Almond Flax Cereal	57301512.0
57301520	0	Kashi_Good_Friends_Cereal	Kashi Good Friends Cereal	57301520.0
57301530	0	Kashi_Heart_to_Heart_Cereal	Kashi Heart to Heart Cereal	57301530.0
57301535	0	Kashi_Heart_to_Heart_Oat_Flakes_and_Blueberry_Clusters	Kashi Heart to Heart Oat Flakes and Blueberry Clusters	57301535.0
57301540	0	Kashi_Honey_Sunshine	Kashi Honey Sunshine	57301540.0
57302100	0	King_Vitaman_Cereal	King Vitaman Cereal	57302100.0
57303100	0	Kix_Cereal	Kix Cereal	57303100.0
57303105	0	Honey_Kix	Honey Kix	57303105.0
57304100	0	Life_Cereal_plain_or_cinnamon_	Life Cereal (plain or cinnamon)	57304100.0
57305100	0	Lucky_Charms_Cereal	Lucky Charms Cereal	57305100.0
57305150	0	Frosted_oat_cereal_with_marshmallows	Frosted oat cereal with marshmallows	57305150.0
57305160	0	Malt_O_Meal_Blueberry_Muffin_Tops	Malt-O-Meal Blueberry Muffin Tops	57305160.0
57305165	0	Malt_O_Meal_Cinnamon_Toasters	Malt-O-Meal Cinnamon Toasters	57305165.0
57305170	0	Malt_O_Meal_Coco_Roos_Cereal	Malt-O-Meal Coco-Roos Cereal	57305170.0
57305174	0	Malt_O_Meal_Colossal_Crunch	Malt-O-Meal Colossal Crunch	57305174.0
57305175	0	Malt_O_Meal_Cocoa_Dyno_Bites	Malt-O-Meal Cocoa Dyno-Bites	57305175.0
57305180	0	Malt_O_Meal_Corn_Bursts_Cereal	Malt-O-Meal Corn Bursts Cereal	57305180.0
57305200	0	Malt_O_Meal_Crispy_Rice_Cereal	Malt-O-Meal Crispy Rice Cereal	57305200.0
57305210	0	Malt_O_Meal_Frosted_Flakes_Cereal	Malt-O-Meal Frosted Flakes Cereal	57305210.0
57305215	0	Malt_O_Meal_Frosted_Mini_Spooners	Malt-O-Meal Frosted Mini Spooners	57305215.0
57305300	0	Malt_O_Meal_Fruity_Dyno_Bites_Cereal	Malt-O-Meal Fruity Dyno-Bites Cereal	57305300.0
57305400	0	Malt_O_Meal_Honey_Graham_Squares	Malt-O-Meal Honey Graham Squares	57305400.0
57305500	0	Malt_O_Meal_Honey_and_Nut_Toasty_O_s_Cereal	Malt-O-Meal Honey and Nut Toasty O's Cereal	57305500.0
57305600	0	Malt_O_Meal_Marshmallow_Mateys_Cereal	Malt-O-Meal Marshmallow Mateys Cereal	57305600.0
57306100	0	Malt_O_Meal_Puffed_Rice_Cereal	Malt-O-Meal Puffed Rice Cereal	57306100.0
57306120	0	Malt_O_Meal_Puffed_Wheat_Cereal	Malt-O-Meal Puffed Wheat Cereal	57306120.0
57306130	0	Malt_O_Meal_Raisin_Bran	Malt-O-Meal Raisin Bran	57306130.0
57306500	0	Malt_O_Meal_Golden_Puffs_formerly_Sugar_Puffs_Cereal	Malt-O-Meal Golden Puffs (formerly Sugar Puffs) Cereal	57306500.0
57306700	0	Malt_O_Meal_Toasted_Oat_Cereal	Malt-O-Meal Toasted Oat Cereal	57306700.0
57306800	0	Malt_O_meal_Tootie_Fruities_Cereal	Malt-O-meal Tootie Fruities Cereal	57306800.0
57307010	0	Maple_Pecan_Crunch_Cereal	Maple Pecan Crunch Cereal	57307010.0
57307150	0	Marshmallow_Safari_Cereal	Marshmallow Safari Cereal	57307150.0
57307500	0	Millet_puffed	Millet, puffed	57307500.0
57307600	0	Mini_Swirlz_Cinnamon_Bun_Cereal	Mini-Swirlz Cinnamon Bun Cereal	57307600.0
57308190	0	Muesli_dried_fruit_and_nuts	Muesli, dried fruit and nuts	57308190.0
57308300	0	Multi_Bran_Chex_Cereal	Multi Bran Chex Cereal	57308300.0
57308400	0	MultiGrain_Cheerios_Cereal	MultiGrain Cheerios Cereal	57308400.0
57308900	0	Natural_Muesli_Jenny_s_Cuisine	Natural Muesli, Jenny's Cuisine	57308900.0
57309100	0	Nature_Valley_Granola_with_fruit_and_nuts	Nature Valley Granola, with fruit and nuts	57309100.0
57311700	0	Nu_System_Cuisine_Toasted_Grain_Circles_Cereal	Nu System Cuisine Toasted Grain Circles Cereal	57311700.0
57316200	0	Nutty_Nuggets_Cereal	Nutty Nuggets Cereal	57316200.0
57316300	0	Oat_Bran_Flakes_Cereal	Oat Bran Flakes Cereal	57316300.0
57316410	0	Oatmeal_Crisp_Cereal_Apple_Cinnamon	Oatmeal Crisp Cereal, Apple Cinnamon	57316410.0
57316450	0	Oatmeal_Crisp_with_Almonds_Cereal	Oatmeal Crisp with Almonds Cereal	57316450.0
57316500	0	Oatmeal_Crisp_Cereal_Raisin	Oatmeal Crisp Cereal, Raisin	57316500.0
57316710	0	Oh_s_Cereal_Honey_Graham	Oh's Cereal, Honey Graham	57316710.0
57316750	0	Oh_s_Cereal_Fruitangy	Oh's Cereal, Fruitangy	57316750.0
57318000	0	100_Bran_Cereal	100% Bran Cereal	57318000.0
57319000	0	100_Natural_Cereal_plain	100% Natural Cereal, plain	57319000.0
57319500	0	Sun_Country_100_Natural_Granola_with_Almonds	Sun Country 100% Natural Granola, with Almonds	57319500.0
57320500	0	100_Natural_Cereal_with_oats_honey_and_raisins	100 % Natural Cereal, with oats, honey and raisins	57320500.0
57321500	0	100_Natural_Wholegrain_Cereal_with_raisins_lowfat	100 % Natural Wholegrain Cereal with raisins, lowfat	57321500.0
57321700	0	Optimum_Cereal	Optimum Cereal	57321700.0
57321800	0	Optimum_Slim_Cereal	Optimum Slim Cereal	57321800.0
57321900	0	Organic_Flax_Plus_Nature_s_Path	Organic Flax Plus, Nature's Path	57321900.0
57322500	0	Oreo_O_s_Cereal	Oreo O's Cereal	57322500.0
57323000	0	Sweet_Crunch_Cereal	Sweet Crunch Cereal	57323000.0
57323050	0	Sweet_Puffs_Cereal	Sweet Puffs Cereal	57323050.0
57324000	0	Peanut_Butter_Toast_Crunch_Cereal	Peanut Butter Toast Crunch Cereal	57324000.0
57325000	0	Product_19_Cereal	Product 19 Cereal	57325000.0
57326000	0	Puffins_Cereal	Puffins Cereal	57326000.0
57327450	0	Quaker_Oat_Bran_Cereal	Quaker Oat Bran Cereal	57327450.0
57327500	0	Quaker_Oatmeal_Squares_Cereal	Quaker Oatmeal Squares Cereal	57327500.0
57328000	0	Quisp_Cereal	Quisp Cereal	57328000.0
57330000	0	Kellogg_s_Raisin_Bran_Cereal	Kellogg's Raisin Bran Cereal	57330000.0
57330010	0	Kellogg_s_Raisin_Bran_Crunch_Cereal	Kellogg's Raisin Bran Crunch Cereal	57330010.0
57331000	0	Post_Raisin_Bran_Cereal	Post Raisin Bran Cereal	57331000.0
57332050	0	Total_Raisin_Bran_Cereal	Total Raisin Bran Cereal	57332050.0
57332100	0	Raisin_Nut_Bran_Cereal	Raisin Nut Bran Cereal	57332100.0
57335550	0	Reese_s_Peanut_Butter_Puffs_Cereal	Reese's Peanut Butter Puffs Cereal	57335550.0
57336000	0	Rice_Chex_Cereal	Rice Chex Cereal	57336000.0
57339000	0	Rice_Krispies_Cereal	Rice Krispies Cereal	57339000.0
57339100	0	Rice_Krispies_with_Real_Strawberries_Cereal	Rice Krispies with Real Strawberries Cereal	57339100.0
57339500	0	Rice_Krispies_Treats_Cereal	Rice Krispies Treats Cereal	57339500.0
57340000	0	Puffed_rice_cereal	Puffed rice cereal	57340000.0
57341000	0	Shredded_Wheat_N_Bran_Cereal	Shredded Wheat'N Bran Cereal	57341000.0
57341200	0	Smart_Start_Cereal	Smart Start Cereal	57341200.0
57342010	0	Smorz_Cereal	Smorz Cereal	57342010.0
57344000	0	Special_K_Cereal	Special K Cereal	57344000.0
57344001	0	Special_K_Blueberry	Special K Blueberry	57344001.0
57344005	0	Special_K_Chocolatey_Delight_Cereal	Special K Chocolatey Delight Cereal	57344005.0
57344007	0	Special_K_Low_Fat_Granola	Special K Low Fat Granola	57344007.0
57344010	0	Special_K_Red_Berries_Cereal	Special K Red Berries Cereal	57344010.0
57344015	0	Special_K_Fruit_Yogurt_Cereal	Special K Fruit & Yogurt Cereal	57344015.0
57344020	0	Special_K_Vanilla_Almond_Cereal	Special K Vanilla Almond Cereal	57344020.0
57344025	0	Special_K_Cinnamon_Pecan_Cereal	Special K Cinnamon Pecan Cereal	57344025.0
57346500	0	Oatmeal_Honey_Nut_Heaven_Cereal	Oatmeal Honey Nut Heaven Cereal	57346500.0
57347000	0	Corn_Pops_Cereal	Corn Pops Cereal	57347000.0
57349000	0	Frosted_Flakes_Cereal	Frosted Flakes Cereal	57349000.0
57349020	0	Reduced_Sugar_Frosted_Flakes_Cereal_Kellogg_s	Reduced Sugar Frosted Flakes Cereal, Kellogg's	57349020.0
57355000	0	Golden_Crisp_Cereal	Golden Crisp Cereal	57355000.0
57401100	0	Toasted_oat_Cereal	Toasted oat Cereal	57401100.0
57403100	0	Post_Toasties_Cereal	Post Toasties Cereal	57403100.0
57404100	0	Malt_O_Meal_Toasty_O_s_Cereal	Malt-O-Meal Toasty O's Cereal	57404100.0
57404200	0	Malt_O_Meal_Apple_and_Cinnamon_Toasty_O_s_Cereal	Malt-O-Meal Apple and Cinnamon Toasty O's Cereal	57404200.0
57406100	0	Total_Cereal	Total Cereal	57406100.0
57406105	0	Total_Cranberry_Crunch_Cereal	Total Cranberry Crunch Cereal	57406105.0
57407100	0	Trix_Cereal	Trix Cereal	57407100.0
57407110	0	Trix_Cereal_reduced_sugar	Trix Cereal, reduced sugar	57407110.0
57408100	0	Uncle_Sam_Cereal	Uncle Sam Cereal	57408100.0
57409100	0	Waffle_Crisp_Cereal	Waffle Crisp Cereal	57409100.0
57410000	0	Weetabix_Whole_Wheat_Cereal	Weetabix Whole Wheat Cereal	57410000.0
57411000	0	Wheat_Chex_Cereal	Wheat Chex Cereal	57411000.0
57412000	0	Wheat_germ_plain	Wheat germ, plain	57412000.0
57413000	0	Wheat_germ_with_sugar_and_honey	Wheat germ, with sugar and honey	57413000.0
57416000	0	Puffed_wheat_cereal_plain	Puffed wheat cereal, plain	57416000.0
57416010	0	Puffed_wheat_cereal_presweetened_with_sugar	Puffed wheat cereal, presweetened with sugar	57416010.0
57417000	0	Shredded_Wheat_Cereal_100_	Shredded Wheat Cereal, 100%	57417000.0
57418000	0	Wheaties_Cereal	Wheaties Cereal	57418000.0
57419000	0	Yogurt_Burst_Cheerios_Cereal	Yogurt Burst Cheerios Cereal	57419000.0
57601100	0	Wheat_bran_unprocessed	Wheat bran, unprocessed	57601100.0
57602100	0	Oats_uncooked	Oats, uncooked	57602100.0
57602109	0	Flour_oat	Flour, oat	57602109.0
57602500	0	Oat_bran_uncooked	Oat bran, uncooked	57602500.0
57603100	0	Rice_polishings	Rice polishings	57603100.0
57603200	0	Rice_bran_uncooked	Rice bran, uncooked	57603200.0
57604100	0	Whole_wheat_cracked	Whole wheat, cracked	57604100.0
58100000	0	Breakfast_taco_with_egg_cheese_and_salsa	Breakfast taco, with egg, cheese and salsa	58100000.0
58100005	0	Breakfast_burrito_with_egg_cheese_potato_and_salsa	Breakfast burrito, with egg, cheese, potato and salsa	58100005.0
58100010	0	Breakfast_taco_with_sausage_egg_cheese_and_salsa	Breakfast taco, with sausage, egg, cheese and salsa	58100010.0
58100013	0	Breakfast_burrito_with_sausage_egg_cheese_and_peppers	Breakfast burrito, with sausage, egg, cheese, and peppers	58100013.0
58100015	0	Breakfast_taco_with_sausage_egg_cheese_potato_and_salsa	Breakfast taco, with sausage, egg, cheese, potato and salsa	58100015.0
58100020	0	Breakfast_burrito_with_sausage_egg_cheese_beans_and_salsa	Breakfast burrito, with sausage, egg, cheese, beans and salsa	58100020.0
58100100	0	Burrito_with_beef	Burrito with beef	58100100.0
58100120	0	Burrito_with_beef_beans_and_cheese	Burrito with beef, beans, and cheese	58100120.0
58100125	0	Burrito_with_beef_beans_and_cheese_fast_food_	Burrito with beef, beans, and cheese (fast food)	58100125.0
58100135	0	Burrito_with_beef_cheese_and_sour_cream	Burrito with beef, cheese and sour cream	58100135.0
58100140	0	Burrito_with_beef_beans_cheese_and_sour_cream	Burrito with beef, beans, cheese, and sour cream	58100140.0
58100145	0	Burrito_with_beef_beans_cheese_and_sour_cream_fast_food_	Burrito with beef, beans, cheese and sour cream (fast food)	58100145.0
58100160	0	Burrito_with_beef_beans_rice_and_cheese_Grilled_Stuft_Burrito_	Burrito with beef, beans, rice, and cheese (Grilled Stuft Burrito)	58100160.0
58100165	0	Burrito_with_beef_beans_rice_cheese_and_sour_cream	Burrito with beef, beans, rice, cheese and sour cream	58100165.0
58100200	0	Burrito_with_chicken	Burrito with chicken	58100200.0
58100220	0	Burrito_with_chicken_beans_and_cheese	Burrito with chicken, beans, and cheese	58100220.0
58100235	0	Burrito_with_chicken_cheese_and_sour_cream	Burrito with chicken, cheese and sour cream	58100235.0
58100245	0	Burrito_with_chicken_beans_cheese_and_sour_cream_Burrito_Supreme_	Burrito with chicken, beans, cheese, and sour cream (Burrito Supreme)	58100245.0
58100255	0	Burrito_with_chicken_beans_rice_and_cheese_Grilled_Stuft_Burrito_	Burrito with chicken, beans, rice, and cheese (Grilled Stuft Burrito)	58100255.0
58100260	0	Burrito_with_chicken_beans_rice_cheese_and_sour_cream	Burrito with chicken, beans, rice, cheese and sour cream	58100260.0
58100300	0	Burrito_with_beans_and_rice	Burrito with beans and rice	58100300.0
58100320	0	Burrito_with_beans_and_cheese	Burrito with beans and cheese	58100320.0
58100325	0	Burrito_with_beans_and_cheese_fast_food_	Burrito with beans and cheese (fast food)	58100325.0
58100330	0	Burrito_with_beans_rice_cheese_sour_cream_lettuce_tomato_and_guacamole_7_Layer_Burrito_	Burrito with beans, rice, cheese, sour cream, lettuce, tomato and guacamole (7 Layer Burrito)	58100330.0
58100360	0	Chilaquiles_tortilla_casserole_with_salsa_cheese_and_egg_	Chilaquiles (tortilla casserole with salsa, cheese, and egg)	58100360.0
58100370	0	Chilaquiles_tortilla_casserole_with_salsa_and_cheese_no_egg_	Chilaquiles (tortilla casserole with salsa and cheese, no egg)	58100370.0
58100400	0	Enchilada_with_beef_red_sauce	Enchilada with beef, red sauce	58100400.0
58100510	0	Enchilada_with_beef_and_beans_red_sauce	Enchilada with beef and beans, red sauce	58100510.0
58100520	0	Enchilada_with_beef_beans_and_cheese_red_sauce	Enchilada with beef, beans, and cheese, red sauce	58100520.0
58100525	0	Enchilada_with_beef_and_beans_green_sauce	Enchilada with beef and beans, green sauce	58100525.0
58100530	0	Enchilada_with_beef_and_cheese_red_sauce	Enchilada with beef and cheese, red sauce	58100530.0
58100535	0	Enchilada_with_beef_green_sauce	Enchilada with beef, green sauce	58100535.0
58100560	0	Enchilada_with_ham_and_cheese	Enchilada with ham and cheese	58100560.0
58100600	0	Enchilada_with_chicken_red_sauce	Enchilada with chicken, red sauce	58100600.0
58100610	0	Enchilada_with_chicken_and_beans_red_sauce	Enchilada with chicken and beans, red sauce	58100610.0
58100620	0	Enchilada_with_chicken_beans_and_cheese_red_sauce	Enchilada with chicken, beans, and cheese, red sauce	58100620.0
58100625	0	Enchilada_with_chicken_and_beans_green_sauce	Enchilada with chicken and beans, green sauce	58100625.0
58100630	0	Enchilada_with_chicken_and_cheese_red_sauce	Enchilada with chicken and cheese, red sauce	58100630.0
58100635	0	Enchilada_with_chicken_green_sauce	Enchilada with chicken, green sauce	58100635.0
58100710	0	Enchilada_with_beans_red_sauce	Enchilada with beans, red sauce	58100710.0
58100720	0	Enchilada_with_beans_and_cheese_red_sauce	Enchilada with beans and cheese, red sauce	58100720.0
58100725	0	Enchilada_with_beans_green_sauce	Enchilada with beans, green sauce	58100725.0
58100800	0	Enchilada_with_cheese_red_sauce	Enchilada with cheese, red sauce	58100800.0
58100805	0	Enchilada_with_cheese_green_sauce	Enchilada with cheese, green sauce	58100805.0
58100900	0	Enchilada_with_seafood	Enchilada with seafood	58100900.0
58101230	0	Flauta_with_beef	Flauta with beef	58101230.0
58101240	0	Flauta_with_chicken	Flauta with chicken	58101240.0
58101320	0	Taco_with_beef_cheese_lettuce_and_salsa	Taco, with beef, cheese, lettuce and salsa	58101320.0
58101323	0	Taco_with_beef_cheese_and_lettuce_fast_food_	Taco, with beef, cheese and lettuce (fast food)	58101323.0
58101325	0	Taco_with_beef_cheese_lettuce_salsa_and_sour_cream	Taco, with beef, cheese, lettuce, salsa and sour cream	58101325.0
58101345	0	Soft_taco_with_beef_cheese_lettuce_and_salsa	Soft taco, with beef, cheese, lettuce and salsa	58101345.0
58101347	0	Soft_taco_with_beef_cheese_and_lettuce_fast_food_	Soft taco, with beef, cheese and lettuce (fast food)	58101347.0
58101350	0	Soft_taco_with_beef_cheese_lettuce_salsa_and_sour_cream_Soft_Taco_Supreme_	Soft taco, with beef, cheese, lettuce, salsa and sour cream (Soft Taco Supreme)	58101350.0
58101357	0	Soft_taco_with_beef_cheese_lettuce_and_sour_cream_fast_food_	Soft taco, with beef, cheese, lettuce and sour cream (fast food)	58101357.0
58101450	0	Soft_taco_with_chicken_cheese_lettuce_and_salsa	Soft taco, with chicken, cheese, lettuce and salsa	58101450.0
58101457	0	Soft_taco_with_chicken_cheese_and_lettuce_fast_food_	Soft taco with chicken, cheese and lettuce (fast food)	58101457.0
58101460	0	Soft_taco_with_chicken_cheese_lettuce_salsa_and_sour_cream	Soft taco, with chicken, cheese, lettuce, salsa and sour cream	58101460.0
58101520	0	Taco_with_chicken_cheese_lettuce_and_salsa	Taco, with chicken, cheese, lettuce and salsa	58101520.0
58101525	0	Taco_with_chicken_cheese_lettuce_salsa_and_sour_cream	Taco, with chicken, cheese, lettuce, salsa and sour cream	58101525.0
58101540	0	Taco_with_fish_cheese_lettuce_and_salsa	Taco, with fish, cheese, lettuce and salsa	58101540.0
58101555	0	Soft_taco_with_fish_cheese_lettuce_and_salsa	Soft taco, with fish, cheese, lettuce and salsa	58101555.0
58101610	0	Soft_taco_with_beans_cheese_lettuce_and_salsa	Soft taco, with beans, cheese, lettuce and salsa	58101610.0
58101615	0	Soft_taco_with_beans_cheese_lettuce_salsa_and_sour_cream	Soft taco, with beans, cheese, lettuce, salsa and sour cream	58101615.0
58101620	0	Soft_taco_with_beef_beans_cheese_lettuce_and_salsa	Soft taco, with beef, beans, cheese, lettuce and salsa	58101620.0
58101625	0	Soft_taco_with_chicken_beans_cheese_lettuce_and_salsa	Soft taco, with chicken, beans, cheese, lettuce and salsa	58101625.0
58101630	0	Soft_taco_with_beef_beans_cheese_lettuce_salsa_and_sour_cream	Soft taco, with beef, beans, cheese, lettuce, salsa and sour cream	58101630.0
58101635	0	Soft_taco_with_chicken_beans_cheese_lettuce_salsa_and_sour_cream	Soft taco, with chicken, beans, cheese, lettuce, salsa and sour cream	58101635.0
58101720	0	Taco_with_beans_cheese_lettuce_and_salsa	Taco, with beans, cheese, lettuce and salsa	58101720.0
58101725	0	Taco_with_beans_cheese_lettuce_salsa_and_sour_cream	Taco, with beans, cheese, lettuce, salsa and sour cream	58101725.0
58101730	0	Taco_with_beef_beans_cheese_lettuce_and_salsa	Taco, with beef, beans, cheese, lettuce and salsa	58101730.0
58101733	0	Taco_with_beef_beans_cheese_and_lettuce_fast_food_	Taco, with beef, beans, cheese and lettuce (fast food)	58101733.0
58101735	0	Taco_with_chicken_beans_cheese_lettuce_and_salsa	Taco, with chicken, beans, cheese, lettuce and salsa	58101735.0
58101745	0	Taco_with_beef_beans_cheese_lettuce_salsa_and_sour_cream	Taco, with beef, beans, cheese, lettuce, salsa and sour cream	58101745.0
58101750	0	Taco_with_chicken_beans_cheese_lettuce_salsa_and_sour_cream	Taco, with chicken, beans, cheese, lettuce, salsa and sour cream	58101750.0
58101800	0	Hamburger_Helper_Taco_Bake_ground_beef_with_tomato_sauce_and_taco_seasonings_on_a_cornbread_crust_	Hamburger Helper Taco Bake (ground beef with tomato sauce and taco seasonings on a cornbread crust)	58101800.0
58101820	0	Frito_Pie_with_beans_Mexican_casserole_with_ground_beef_beans_tomato_sauce_cheese_taco_seasonings_and_corn_chips_	Frito Pie with beans (Mexican casserole with ground beef, beans, tomato sauce, cheese, taco seasonings, and corn chips)	58101820.0
58101830	0	Frito_Pie_without_beans_Mexican_casserole_with_ground_beef_tomato_sauce_cheese_taco_seasonings_and_corn_chips_	Frito Pie without beans  (Mexican casserole with ground beef, tomato sauce, cheese, taco seasonings, and corn chips)	58101830.0
58101910	0	Taco_salad_with_corn_chips_with_beef_and_cheese	Taco salad, with corn chips, with beef and cheese	58101910.0
58101930	0	Taco_salad_in_fried_flour_tortilla_with_beef_beans_and_cheese	Taco salad, in fried flour tortilla, with beef, beans and cheese	58101930.0
58101935	0	Taco_salad_in_fried_flour_tortilla_with_chicken_beans_and_cheese	Taco salad, in fried flour tortilla, with chicken, beans and cheese	58101935.0
58101940	0	Taco_salad_in_fried_flour_tortilla_with_beans_and_cheese	Taco salad, in fried flour tortilla, with beans and cheese	58101940.0
58101945	0	Taco_salad_in_fried_flour_tortilla_with_beef_beans_cheese_and_sour_cream	Taco salad, in fried flour tortilla, with beef, beans, cheese, and sour cream	58101945.0
58101950	0	Taco_salad_in_fried_flour_tortilla_with_chicken_beans_cheese_and_sour_cream	Taco salad, in fried flour tortilla, with chicken, beans, cheese, and sour cream	58101950.0
58101955	0	Taco_salad_in_fried_flour_tortilla_with_beans_cheese_and_sour_cream	Taco salad, in fried flour tortilla, with beans, cheese, and sour cream	58101955.0
58103120	0	Tamale_with_beef	Tamale, with beef	58103120.0
58103130	0	Tamales_with_chicken	Tamales, with chicken	58103130.0
58103200	0	Tamale_plain_meatless_no_sauce_Puerto_Rican_style_or_Caribbean_Style	Tamale, plain, meatless, no sauce, Puerto Rican style or Caribbean Style	58103200.0
58103210	0	Tamale_meatless_with_sauce_Puerto_Rican_or_Caribbean_style	Tamale, meatless, with sauce, Puerto Rican or Caribbean style	58103210.0
58103250	0	Tamales_plain_meatless_no_sauce_Mexican_style	Tamales, plain, meatless, no sauce, Mexican style	58103250.0
58103310	0	Tamale_casserole_with_beef	Tamale casserole with beef	58103310.0
58104080	0	Nachos_with_beef_beans_cheese_and_sour_cream	Nachos, with beef, beans, cheese, and sour cream	58104080.0
58104090	0	Nachos_with_cheese_and_sour_cream	Nachos, with cheese and sour cream	58104090.0
58104100	0	Nachos_with_cheese	Nachos, with cheese	58104100.0
58104110	0	Nachos_with_beans	Nachos, with beans	58104110.0
58104120	0	Nachos_with_beans_and_cheese	Nachos, with beans and cheese	58104120.0
58104130	0	Nachos_with_beef_beans_and_cheese	Nachos, with beef, beans, and cheese	58104130.0
58104140	0	Nachos_with_beef_and_cheese	Nachos, with beef and cheese	58104140.0
58104150	0	Nachos_with_chicken_and_cheese	Nachos, with chicken and cheese	58104150.0
58104160	0	Nachos_with_chili_and_cheese	Nachos, with chili and cheese	58104160.0
58104180	0	Nachos_with_beef_beans_cheese_tomato_and_sour_cream_Nachos_Supreme_	Nachos, with beef, beans, cheese, tomato and sour cream (Nachos Supreme)	58104180.0
58104190	0	Nachos_with_chicken_cheese_and_sour_cream	Nachos, with chicken, cheese, and sour cream	58104190.0
58104260	0	Chalupa_with_beans_cheese_lettuce_and_tomato	Chalupa with beans, cheese, lettuce and tomato	58104260.0
58104270	0	Chalupa_with_beans_and_sour_cream	Chalupa with beans and sour cream	58104270.0
58104280	0	Chalupa_with_beef_cheese_lettuce_tomato_and_sour_cream_Chalupa_Supreme_	Chalupa with beef, cheese, lettuce, tomato and sour cream (Chalupa Supreme)	58104280.0
58104290	0	Chalupa_with_beef_cheese_lettuce_tomato_and_salsa_Chalupa_Baja_	Chalupa with beef, cheese, lettuce, tomato and salsa (Chalupa Baja)	58104290.0
58104310	0	Chalupa_with_beans_chicken_cheese_lettuce_and_tomato	Chalupa with beans, chicken, cheese, lettuce and tomato	58104310.0
58104320	0	Chalupa_with_chicken_cheese_lettuce_tomato_and_sour_cream_Chalupa_Supreme_	Chalupa with chicken, cheese, lettuce, tomato and sour cream (Chalupa Supreme)	58104320.0
58104340	0	Chalupa_with_chicken_cheese_lettuce_tomato_and_salsa_Chalupa_Baja_	Chalupa with chicken, cheese, lettuce, tomato and salsa (Chalupa Baja)	58104340.0
58104450	0	Chimichanga_with_beef	Chimichanga, with beef	58104450.0
58104500	0	Chimichanga_with_beef_beans_and_cheese	Chimichanga, with beef, beans, and cheese	58104500.0
58104510	0	Chimichanga_with_beef_and_cheese	Chimichanga, with beef and cheese	58104510.0
58104520	0	Chimichanga_with_beans_and_cheese	Chimichanga, with beans and cheese	58104520.0
58104530	0	Chimichanga_with_chicken_beans_and_cheese	Chimichanga, with chicken, beans and cheese	58104530.0
58104535	0	Chimichanga_with_beef_cheese_and_sour_cream	Chimichanga, with beef, cheese and sour cream	58104535.0
58104540	0	Chimichanga_with_beans_cheese_and_sour_cream	Chimichanga, with beans, cheese and sour cream	58104540.0
58104550	0	Chimichanga_with_chicken_beans_cheese_and_sour_cream	Chimichanga, with chicken, beans, cheese and sour cream	58104550.0
58104600	0	Chimichanga_with_beef_and_rice	Chimichanga, with beef and rice	58104600.0
58104710	0	Quesadilla_cheese	Quesadilla, cheese	58104710.0
58104720	0	Quesadilla_cheese_fast_food_	Quesadilla, cheese (fast food)	58104720.0
58104730	0	Quesadilla_beef_and_cheese	Quesadilla, beef and cheese	58104730.0
58104740	0	Quesadilla_chicken_and_cheese	Quesadilla, chicken and cheese	58104740.0
58104745	0	Quesadilla_chicken_fast_food_	Quesadilla, chicken (fast food)	58104745.0
58104750	0	Quesadilla_vegetables_and_cheese	Quesadilla, vegetables and cheese	58104750.0
58104760	0	Quesadilla_beef_vegetables_and_cheese	Quesadilla, beef, vegetables and cheese	58104760.0
58104770	0	Quesadilla_chicken_vegetables_and_cheese	Quesadilla, chicken, vegetables and cheese	58104770.0
58104800	0	Taquitos_with_cheese	Taquitos, with cheese	58104800.0
58104820	0	Taquitos_with_beef_and_cheese	Taquitos, with beef and cheese	58104820.0
58104830	0	Taquitos_with_chicken_and_cheese	Taquitos, with chicken and cheese	58104830.0
58104900	0	Taquitos_with_egg	Taquitos, with egg	58104900.0
58104905	0	Taquitos_with_egg_and_bacon	Taquitos, with egg and bacon	58104905.0
58105000	0	Fajitas_chicken_and_vegetable	Fajitas, chicken and vegetable	58105000.0
58105050	0	Fajitas_beef_and_vegetable	Fajitas, beef and vegetable	58105050.0
58105075	0	Fajitas_vegetable	Fajitas, vegetable	58105075.0
58105100	0	Pupusa_cheese_filled	Pupusa, cheese-filled	58105100.0
58105105	0	Pupusa_bean_filled	Pupusa, bean-filled	58105105.0
58105110	0	Pupusa_meat_filled	Pupusa, meat-filled	58105110.0
58106200	0	Pizza_cheese_prepared_from_frozen_thin_crust	Pizza, cheese, prepared from frozen, thin crust	58106200.0
58106205	0	Pizza_cheese_prepared_from_frozen_thick_crust	Pizza, cheese, prepared from frozen, thick crust	58106205.0
58106220	0	Pizza_cheese_thin_crust	Pizza, cheese, thin crust	58106220.0
58106225	0	Pizza_cheese_regular_crust	Pizza, cheese, regular crust	58106225.0
58106230	0	Pizza_cheese_thick_crust	Pizza, cheese, thick crust	58106230.0
58106233	0	Pizza_cheese_stuffed_crust	Pizza, cheese, stuffed crust	58106233.0
58106250	0	Pizza_with_extra_cheese_thin_crust	Pizza, with extra cheese, thin crust	58106250.0
58106255	0	Pizza_with_extra_cheese_regular_crust	Pizza, with extra cheese, regular crust	58106255.0
58106260	0	Pizza_with_extra_cheese_thick_crust	Pizza, with extra cheese, thick crust	58106260.0
58106300	0	Pizza_with_vegetables_prepared_from_frozen_thin_crust	Pizza, with vegetables, prepared from frozen, thin crust	58106300.0
58106305	0	Pizza_with_vegetables_prepared_from_frozen_thick_crust	Pizza, with vegetables, prepared from frozen, thick crust	58106305.0
58106320	0	Pizza_with_vegetables_thin_crust	Pizza, with vegetables, thin crust	58106320.0
58106325	0	Pizza_with_vegetables_regular_crust	Pizza, with vegetables, regular crust	58106325.0
58106330	0	Pizza_with_vegetables_thick_crust	Pizza, with vegetables, thick crust	58106330.0
58106345	0	Pizza_with_extra_vegetables_thin_crust_Veggie_Lovers_Vegi_Feast_	Pizza, with extra vegetables, thin crust (Veggie Lovers, Vegi Feast)	58106345.0
58106347	0	Pizza_with_extra_vegetables_regular_crust_Veggie_Lovers_Vegi_Feast_	Pizza, with  extra vegetables, regular crust (Veggie Lovers, Vegi Feast)	58106347.0
58106350	0	Pizza_with_extra_vegetables_thick_crust_Veggie_Lovers_Vegi_Feast_	Pizza, with  extra vegetables, thick crust (Veggie Lovers, Vegi Feast)	58106350.0
58106358	0	Pizza_with_pineapple_thin_crust	Pizza, with pineapple, thin crust	58106358.0
58106359	0	Pizza_with_pineapple_regular_crust	Pizza, with pineapple, regular crust	58106359.0
58106360	0	Pizza_with_pineapple_thick_crust	Pizza, with pineapple thick crust	58106360.0
58106411	0	Pizza_with_chicken_thin_crust	Pizza, with chicken, thin crust	58106411.0
58106412	0	Pizza_with_chicken_regular_crust	Pizza, with chicken, regular crust	58106412.0
58106413	0	Pizza_with_chicken_thick_crust	Pizza, with chicken, thick crust	58106413.0
58106441	0	Pizza_with_chicken_and_vegetables_thin_crust	Pizza, with chicken and vegetables, thin crust	58106441.0
58106442	0	Pizza_with_chicken_and_vegetables_regular_crust	Pizza, with chicken and vegetables, regular crust	58106442.0
58106443	0	Pizza_with_chicken_and_vegetables_thick_crust	Pizza, with chicken and vegetables, thick crust	58106443.0
58106461	0	Pizza_with_chicken_and_pineapple_thin_crust	Pizza, with chicken and pineapple, thin crust	58106461.0
58106462	0	Pizza_with_chicken_and_pineapple_regular_crust	Pizza, with chicken and pineapple, regular crust	58106462.0
58106463	0	Pizza_with_chicken_and_pineapple_thick_crust	Pizza, with chicken and pineapple, thick crust	58106463.0
58106500	0	Pizza_with_meat_prepared_from_frozen_thin_crust	Pizza, with meat, prepared from frozen, thin crust	58106500.0
58106505	0	Pizza_with_meat_prepared_from_frozen_thick_crust	Pizza, with meat, prepared from frozen, thick crust	58106505.0
58106550	0	Pizza_with_pepperoni_thin_crust	Pizza, with pepperoni, thin crust	58106550.0
58106555	0	Pizza_with_pepperoni_regular_crust	Pizza, with pepperoni, regular crust	58106555.0
58106560	0	Pizza_with_pepperoni_thick_crust	Pizza, with pepperoni, thick crust	58106560.0
58106565	0	Pizza_with_pepperoni_stuffed_crust	Pizza, with pepperoni, stuffed crust	58106565.0
58106620	0	Pizza_with_meat_no_pepperoni_thin_crust	Pizza, with meat, no pepperoni, thin crust	58106620.0
58106625	0	Pizza_with_meat_no_pepperoni_regular_crust	Pizza, with meat, no pepperoni, regular crust	58106625.0
58106630	0	Pizza_with_meat_no_pepperoni_thick_crust	Pizza, with meat, no pepperoni, thick crust	58106630.0
58106650	0	Pizza_with_extra_meat_thin_crust_Meat_lovers_Meatzza_	Pizza, with extra meat, thin crust (Meat lovers, Meatzza)	58106650.0
58106655	0	Pizza_with_extra_meat_regular_crust_Meat_lovers_Meatzza_	Pizza, with extra meat, regular crust (Meat lovers, Meatzza)	58106655.0
58106660	0	Pizza_with_extra_meat_thick_crust_Meat_lovers_Meatzza_	Pizza, with extra meat, thick crust (Meat lovers, Meatzza)	58106660.0
58106700	0	Pizza_with_meat_and_vegetables_prepared_from_frozen_thin_crust	Pizza, with meat and vegetables, prepared from frozen, thin crust	58106700.0
58106705	0	Pizza_with_meat_and_vegetables_prepared_from_frozen_thick_crust	Pizza, with meat and vegetables, prepared from frozen, thick crust	58106705.0
58106720	0	Pizza_with_meat_and_vegetables_thin_crust	Pizza, with meat and vegetables, thin crust	58106720.0
58106725	0	Pizza_with_meat_and_vegetables_regular_crust	Pizza, with meat and vegetables, regular crust	58106725.0
58106730	0	Pizza_with_meat_and_vegetables_thick_crust	Pizza, with meat and vegetables, thick crust	58106730.0
58106733	0	Pizza_with_extra_meat_and_extra_vegetables_prepared_from_frozen_thin_crust	Pizza, with extra meat and extra vegetables, prepared from frozen, thin crust	58106733.0
58106734	0	Pizza_with_extra_meat_and_extra_vegetables_prepared_from_frozen_thick_crust	Pizza, with extra meat and extra vegetables, prepared from frozen, thick crust	58106734.0
58106736	0	Pizza_with_extra_meat_and_extra_vegetables_thin_crust_Supreme_Pizza_Extravaganzza_	Pizza, with extra meat and extra vegetables, thin crust (Supreme Pizza, Extravaganzza)	58106736.0
58106737	0	Pizza_with_extra_meat_and_extra_vegetables_thick_crust_Supreme_Pizza_Extravaganzza_	Pizza, with extra meat and extra vegetables, thick crust (Supreme Pizza, Extravaganzza)	58106737.0
58106738	0	Pizza_with_extra_meat_and_extra_vegetables_regular_crust_Supreme_Pizza_Extravaganzza_	Pizza, with extra meat and extra vegetables, regular crust (Supreme Pizza, Extravaganzza)	58106738.0
58106750	0	Pizza_with_ham_and_pineapple_thin_crust	Pizza, with ham and pineapple, thin crust	58106750.0
58106755	0	Pizza_with_ham_and_pineapple_regular_crust	Pizza, with ham and pineapple, regular crust	58106755.0
58106760	0	Pizza_with_ham_and_pineapple_thick_crust	Pizza, with ham and pineapple, thick crust	58106760.0
58106780	0	Pizza_with_meat_and_vegetables_prepared_from_frozen_lowfat_thin_crust	Pizza, with meat and vegetables, prepared from frozen, lowfat, thin crust	58106780.0
58106820	0	Pizza_with_beans_and_vegetables_thin_crust_Pizza_Hut_Taco_Pizza_	Pizza, with beans and vegetables, thin crust (Pizza Hut Taco Pizza)	58106820.0
58106825	0	Pizza_with_beans_and_vegetables_regular_crust_Pizza_Hut_Taco_Pizza_	Pizza, with beans and vegetables, regular crust (Pizza Hut Taco Pizza)	58106825.0
58106830	0	Pizza_with_beans_and_vegetables_thick_crust_Pizza_Hut_Taco_Pizza_	Pizza, with beans and vegetables, thick crust (Pizza Hut Taco Pizza)	58106830.0
58106910	0	Pizza_with_seafood_thin_crust	Pizza, with seafood, thin crust	58106910.0
58106915	0	Pizza_with_seafood_regular_crust	Pizza, with seafood, regular crust	58106915.0
58106920	0	Pizza_with_seafood_thick_crust	Pizza, with seafood, thick crust	58106920.0
58107050	0	Pizza_no_cheese_thin_crust	Pizza, no cheese, thin crust	58107050.0
58107060	0	Pizza_no_cheese_regular_crust	Pizza, no cheese, regular crust	58107060.0
58107100	0	Pizza_no_cheese_thick_crust	Pizza, no cheese, thick crust	58107100.0
58107220	0	Pizza_white_thin_crust	Pizza, white, thin crust	58107220.0
58107225	0	Pizza_white_regular_crust	Pizza, white, regular crust	58107225.0
58107230	0	Pizza_white_thick_crust	Pizza, white, thick crust	58107230.0
58108000	0	Calzone_with_cheese_meatless_stromboli_	Calzone, with cheese, meatless (stromboli)	58108000.0
58108010	0	Calzone_with_meat_and_cheese_stromboli_	Calzone, with meat and cheese (stromboli)	58108010.0
58108030	0	Panzerotti_with_meat_vegetables_and_cheese	Panzerotti, with meat, vegetables, and cheese	58108030.0
58108040	0	Panzerotti_with_vegetables_and_cheese	Panzerotti, with vegetables and cheese	58108040.0
58108050	0	Pizza_rolls	Pizza rolls	58108050.0
58109000	0	Italian_pie_meatless_Pizza_Hut_Priazzo_Florentine_	Italian pie, meatless (Pizza Hut Priazzo Florentine)	58109000.0
58109010	0	Italian_pie_with_meat_Pizza_Hut_Priazzo_	Italian pie with meat (Pizza Hut Priazzo)	58109010.0
58110110	0	Egg_roll_meatless_spring_roll_	Egg roll, meatless (spring roll)	58110110.0
58110120	0	Egg_roll_with_shrimp_spring_roll_	Egg roll, with shrimp (spring roll)	58110120.0
58110130	0	Egg_roll_with_beef_and_or_pork_spring_roll_	Egg roll, with beef and/or pork (spring roll)	58110130.0
58110170	0	Egg_roll_with_chicken_or_turkey_spring_roll_	Egg roll, with chicken or turkey (spring roll)	58110170.0
58110200	0	Summer_roll_with_meat_or_shrimp_vegetables_and_rice_paper_Vietnamese_Bo_Bia_Roll_	Summer roll with meat or shrimp, vegetables and rice paper (Vietnamese Bo Bia Roll)	58110200.0
58111110	0	Wonton_fried_meat_potsticker_	Wonton, fried, meat (potsticker)	58111110.0
58111120	0	Wonton_fried_vegetable_potsticker_	Wonton, fried, vegetable (potsticker)	58111120.0
58111130	0	Wonton_fried_meat_and_vegetable_potsticker_	Wonton, fried, meat and vegetable (potsticker)	58111130.0
58111200	0	Crab_Rangoon	Crab Rangoon	58111200.0
58112110	0	Dim_sum_meat_filled_egg_roll_type_	Dim sum, meat filled (egg roll-type)	58112110.0
58112510	0	Dumpling_steamed_filled_with_meat_poultry_or_seafood_dim_sum_	Dumpling, steamed, filled with meat, poultry, or seafood (dim sum)	58112510.0
58115110	0	Tamale_casserole_Puerto_Rican_style	Tamale casserole, Puerto Rican style	58115110.0
58116110	0	Meat_turnover_Puerto_Rican_style	Meat turnover, Puerto Rican style	58116110.0
58116115	0	Empanada_with_cheese_and_vegetables	Empanada, with cheese and vegetables	58116115.0
58116120	0	Empanada_with_meat_and_vegetables	Empanada, with meat and vegetables	58116120.0
58116130	0	Empanada_with_chicken_and_vegetables	Empanada, with chicken and vegetables	58116130.0
58116210	0	Meat_pie_Puerto_Rican_style	Meat pie, Puerto Rican style	58116210.0
58116310	0	Cheese_turnover_Puerto_Rican_style	Cheese turnover, Puerto Rican style	58116310.0
58117110	0	Cornmeal_fritter_Puerto_Rican_style	Cornmeal fritter, Puerto Rican style	58117110.0
58117210	0	Cornmeal_stick_Puerto_Rican_style	Cornmeal stick, Puerto Rican style	58117210.0
58117310	0	Kibbeh_beef_and_bulgur_	Kibbeh (beef and bulgur)	58117310.0
58117410	0	Codfish_fritter_Puerto_Rican_style	Codfish fritter, Puerto Rican style	58117410.0
58117510	0	Hayaca_hallaca_Puerto_Rican_style_with_pork_and_vegetables	Hayaca (hallaca), Puerto Rican style, with pork and vegetables	58117510.0
58118110	0	Tembleque_cornstarch_coconut_pudding_Puerto_Rican_style	Tembleque, cornstarch coconut pudding, Puerto Rican style	58118110.0
58118210	0	Harina_de_maiz_con_coco_cornmeal_coconut_pudding_Puerto_Rican_style	Harina de maiz con coco, cornmeal coconut pudding, Puerto Rican style	58118210.0
58120110	0	Crepe_filled_with_meat_fish_or_poultry_with_sauce	Crepe, filled with meat, fish, or poultry, with sauce	58120110.0
58120120	0	Crepe_filled_with_meat_fish_or_poultry_no_sauce	Crepe, filled with meat, fish or poultry, no sauce	58120120.0
58121510	0	Dumplings_beef_pierogi_	Dumplings, beef (pierogi)	58121510.0
58121610	0	Dumplings_potato_and_cheese_pierogi_	Dumplings, potato and cheese (pierogi)	58121610.0
58121620	0	Dumplings_vegetable_and_cheese_pierogi_	Dumplings, vegetable and cheese (pierogi)	58121620.0
58122210	0	Gnocchi_cheese	Gnocchi, cheese	58122210.0
58122220	0	Gnocchi_potato	Gnocchi, potato	58122220.0
58122250	0	Kishka_kishke_	Kishka (kishke)	58122250.0
58122310	0	Knish_potato_pastry_filled_with_potato_	Knish, potato (pastry filled with potato)	58122310.0
58122320	0	Knish_cheese_pastry_filled_with_cheese_	Knish, cheese (pastry filled with cheese)	58122320.0
58122330	0	Knish_meat_pastry_filled_with_meat_	Knish, meat (pastry filled with meat)	58122330.0
58123110	0	Manapua_sweet_bread_dough_filled_with_meat_steamed_	Manapua (sweet bread dough filled with meat, steamed )	58123110.0
58123120	0	Manapua_sweet_bread_dough_filled_with_bean_paste_steamed_	Manapua (sweet bread dough filled with bean paste, steamed )	58123120.0
58124210	0	Pastry_cheese_filled	Pastry, cheese-filled	58124210.0
58124250	0	Spanakopitta	Spanakopitta	58124250.0
58124500	0	Pastry_filled_with_potatoes_and_peas_fried_samosa_	Pastry, filled with potatoes and peas, fried (samosa)	58124500.0
58125110	0	Quiche_meat_poultry_or_fish_Quiche_Lorraine_	Quiche, meat, poultry or fish (Quiche Lorraine)	58125110.0
58125120	0	Quiche_spinach_meatless	Quiche, spinach, meatless	58125120.0
58125180	0	Quiche_cheese_meatless	Quiche, cheese, meatless	58125180.0
58126000	0	Bierock_turnover_filled_with_ground_beef_and_cabbage_mixture_	Bierock (turnover filled with ground beef and cabbage mixture)	58126000.0
58126110	0	Turnover_beef	Turnover, beef	58126110.0
58126120	0	Turnover_beef_and_gravy	Turnover, beef and gravy	58126120.0
58126130	0	Turnover_meat_and_cheese_Hot_Pockets_Ham_Cheddar_	Turnover, meat and cheese (Hot Pockets Ham & Cheddar)	58126130.0
58126140	0	Turnover_beef_beans_and_gravy	Turnover, beef, beans and gravy	58126140.0
58126150	0	Turnover_meat_cheese_and_tomato_sauce_Hot_Pockets_Meatballs_Mozzarella_	Turnover, meat, cheese and tomato sauce (Hot Pockets Meatballs & Mozzarella)	58126150.0
58126160	0	Turnover_cheese_and_tomato_sauce_Hot_Pockets_Pizza_	Turnover, cheese and tomato sauce (Hot Pockets Pizza)	58126160.0
58126170	0	Turnover_beef_and_vegetable	Turnover, beef and vegetable	58126170.0
58126180	0	Turnover_beef_and_potato	Turnover, beef and potato	58126180.0
58126270	0	Turnover_chicken_and_cheese_Hot_Pockets_Chicken_Broccoli_Cheddar_	Turnover, chicken and cheese (Hot Pockets Chicken, Broccoli & Cheddar)	58126270.0
58126280	0	Turnover_chicken_and_vegetable_lower_in_fat_Lean_Pockets_	Turnover, chicken and vegetable, lower in fat (Lean Pockets)	58126280.0
58126290	0	Turnover_meat_and_cheese_lower_in_fat_Lean_Pockets_	Turnover, meat and cheese, lower in fat (Lean Pockets)	58126290.0
58126300	0	Turnover_meat_cheese_and_tomato_sauce_lower_in_fat_Lean_Pockets_Pizza_	Turnover, meat, cheese and tomato sauce, lower in fat (Lean Pockets Pizza)	58126300.0
58126310	0	Turnover_chicken_and_gravy	Turnover, chicken and gravy	58126310.0
58126400	0	Turnover_ham_egg_and_cheese_Hot_Pockets_	Turnover, ham, egg and cheese (Hot Pockets)	58126400.0
58126410	0	Turnover_sausage_egg_and_cheese_lower_in_fat_Lean_Pockets_	Turnover, sausage, egg and cheese, lower in fat (Lean Pockets)	58126410.0
58127110	0	Vegetables_in_pastry	Vegetables in pastry	58127110.0
58127150	0	Vegetables_and_cheese_in_pastry	Vegetables and cheese in pastry	58127150.0
58127200	0	Croissant_sandwich_with_broccoli_and_cheese	Croissant sandwich, with broccoli and cheese	58127200.0
58127210	0	Croissant_sandwich_with_ham_and_cheese	Croissant sandwich, with ham and cheese	58127210.0
58127270	0	Croissant_sandwich_with_sausage_and_egg	Croissant sandwich, with sausage and egg	58127270.0
58127290	0	Croissant_sandwich_with_bacon_and_egg	Croissant sandwich, with bacon and egg	58127290.0
58127310	0	Croissant_sandwich_with_ham_egg_and_cheese	Croissant sandwich, with ham, egg, and cheese	58127310.0
58127330	0	Croissant_sandwich_with_sausage_egg_and_cheese	Croissant sandwich, with sausage, egg, and cheese	58127330.0
58127350	0	Croissant_sandwich_with_bacon_egg_and_cheese	Croissant sandwich, with bacon, egg, and cheese	58127350.0
58127500	0	Vegetable_submarine_sandwich_Veggie_Sub_	Vegetable submarine sandwich (Veggie Sub)	58127500.0
58128000	0	Biscuit_with_sausage_gravy	Biscuit with sausage gravy	58128000.0
58128110	0	Chicken_cornbread	Chicken cornbread	58128110.0
58128210	0	Dressing_stuffing_with_oysters	Dressing (stuffing) with oysters	58128210.0
58128220	0	Dressing_stuffing_with_chicken_or_turkey_and_vegetables	Dressing (stuffing) with chicken or turkey and vegetables	58128220.0
58128250	0	Dressing_stuffing_with_meat_sausage_and_vegetables	Dressing (stuffing) with meat (sausage) and vegetables	58128250.0
58130011	0	Lasagna_with_beef	Lasagna, with beef	58130011.0
58130013	0	Lasagna_with_beef_canned_Chef_Boyardee_	Lasagna, with beef, canned (Chef Boyardee)	58130013.0
58130020	0	Lasagna_with_beef_and_spinach	Lasagna, with beef and spinach	58130020.0
58130140	0	Lasagna_with_chicken_or_turkey	Lasagna, with chicken or turkey	58130140.0
58130150	0	Lasagna_with_chicken_or_turkey_and_spinach	Lasagna, with chicken or turkey, and spinach	58130150.0
58130310	0	Lasagna_meatless	Lasagna, meatless	58130310.0
58130320	0	Lasagna_meatless_with_vegetables_vegetarian_lasagna_	Lasagna, meatless, with vegetables (vegetarian lasagna)	58130320.0
58130610	0	Lasagna_with_meat_whole_wheat_noodles	Lasagna with meat, whole wheat noodles	58130610.0
58130810	0	Lasagna_meatless_whole_wheat_noodles	Lasagna, meatless, whole wheat noodles	58130810.0
58130910	0	Lasagna_with_meat_spinach_noodles	Lasagna with meat, spinach noodles	58130910.0
58130950	0	Lasagna_meatless_spinach_noodles	Lasagna, meatless, spinach noodles	58130950.0
58131310	0	Ravioli_meat_filled_no_sauce	Ravioli, meat filled, no sauce	58131310.0
58131320	0	Ravioli_meat_filled_with_tomato_sauce_or_meat_sauce	Ravioli, meat filled, with tomato sauce or meat sauce	58131320.0
58131323	0	Ravioli_meat_filled_with_tomato_sauce_or_meat_sauce_canned_Chef_Boyardee_	Ravioli, meat filled, with tomato sauce or meat sauce, canned (Chef Boyardee)	58131323.0
58131330	0	Ravioli_meat_filled_with_cream_sauce	Ravioli, meat filled, with cream sauce	58131330.0
58131510	0	Ravioli_cheese_filled_no_sauce	Ravioli, cheese filled, no sauce	58131510.0
58131520	0	Ravioli_cheese_filled_with_tomato_sauce	Ravioli, cheese filled, with tomato sauce	58131520.0
58131523	0	Ravioli_cheese_filled_with_tomato_sauce_canned_Chef_Boyardee_	Ravioli, cheese filled, with tomato sauce, canned (Chef Boyardee)	58131523.0
58131530	0	Ravioli_cheese_filled_with_meat_sauce	Ravioli, cheese filled, with meat sauce	58131530.0
58131535	0	Ravioli_cheese_filled_with_cream_sauce	Ravioli, cheese filled, with cream sauce	58131535.0
58131590	0	Ravioli_cheese_and_spinach_filled_no_sauce	Ravioli, cheese and spinach filled, no sauce	58131590.0
58131600	0	Ravioli_cheese_and_spinach_filled_with_cream_sauce	Ravioli, cheese and spinach filled, with cream sauce	58131600.0
58131610	0	Ravioli_cheese_and_spinach_filled_with_tomato_sauce	Ravioli, cheese and spinach filled, with tomato sauce	58131610.0
58132110	0	Spaghetti_with_tomato_sauce_meatless	Spaghetti with tomato sauce, meatless	58132110.0
58132113	0	Pasta_with_tomato_sauce_and_cheese_canned_SpaghettiOs_	Pasta with tomato sauce and cheese, canned (SpaghettiOs)	58132113.0
58132310	0	Spaghetti_and_meatballs_tomato_sauce_white_noodles_oil_added	Spaghetti and meatballs, tomato sauce, white noodles, oil added	58132310.0
58132310	207656	Spaghetti_and_meatballs_tomato_sauce_white_noodles_no_fat_added	Spaghetti and meatballs, tomato sauce, white noodles, no fat added	58132310.207656
58132313	0	Spaghetti_and_meatballs_canned_Spaghetti_Os_	Spaghetti and meatballs, canned (Spaghetti-Os)	58132313.0
58132340	0	Spaghetti_tomato_sauce_white_noodles_oil_added	Spaghetti, tomato sauce, white noodles, oil added	58132340.0
58132340	207655	Spaghetti_tomato_sauce_white_noodles_no_fat_added	Spaghetti, tomato sauce, white noodles, no fat added	58132340.207655
58132350	0	Spaghetti_tomato_sauce_whole_wheat_noodles_oil_added	Spaghetti, tomato sauce, whole wheat noodles, oil added	58132350.0
58132350	207688	Spaghetti_tomato_sauce_whole_wheat_noodles_no_fat_added	Spaghetti, tomato sauce, whole wheat noodles, no fat added	58132350.207688
58132360	0	Spaghetti_and_meatballs_tomato_sauce_whole_wheat_noodles_oil_added	Spaghetti and meatballs, tomato sauce, whole wheat noodles, oil added	58132360.0
58132360	207657	Spaghetti_and_meatballs_tomato_sauce_whole_wheat_noodles_no_fat_added	Spaghetti and meatballs, tomato sauce, whole wheat noodles, no fat added	58132360.207657
58132450	0	Spaghetti_tomato_sauce_spinach_noodles_oil_added	Spaghetti, tomato sauce, spinach noodles, oil added	58132450.0
58132460	0	Spaghetti_and_meatballs_tomato_sauce_spinach_noodles_oil_added	Spaghetti and meatballs, tomato sauce, spinach noodles, oil added	58132460.0
58132460	207784	Spaghetti_and_meatballs_tomato_sauce_spinach_noodles_no_fat_added	Spaghetti and meatballs, tomato sauce, spinach noodles, no fat added	58132460.207784
58132710	0	Spaghetti_tomato_sauce_with_hotdogs_oil_added	Spaghetti, tomato sauce, with hotdogs, oil added	58132710.0
58132713	0	Spaghetti_and_hotdogs_canned_Spaghetti_Os_	Spaghetti and hotdogs, canned (Spaghetti-Os)	58132713.0
58132810	0	Spaghetti_red_clam_sauce	Spaghetti, red clam sauce	58132810.0
58132820	0	Spaghetti_white_clam_sauce	Spaghetti, white clam sauce	58132820.0
58132910	0	Spaghetti_tomato_sauce_with_chicken_oil_added	Spaghetti, tomato sauce, with chicken, oil added	58132910.0
58132910	207677	Spaghetti_tomato_sauce_with_chicken_no_fat_added	Spaghetti, tomato sauce, with chicken, no fat added	58132910.207677
58133110	0	Manicotti_cheese_filled_no_sauce	Manicotti, cheese filled, no sauce	58133110.0
58133120	0	Manicotti_cheese_filled_with_tomato_sauce_meatless	Manicotti, cheese filled, with tomato sauce, meatless	58133120.0
58133130	0	Manicotti_cheese_filled_with_meat_sauce	Manicotti, cheese filled, with meat sauce	58133130.0
58133140	0	Manicotti_vegetable_and_cheese_filled_with_tomato_sauce_meatless	Manicotti, vegetable  and cheese filled, with tomato sauce, meatless	58133140.0
58134110	0	Stuffed_shells_cheese_filled_no_sauce	Stuffed shells, cheese filled, no sauce	58134110.0
58134120	0	Stuffed_shells_cheese_filled_with_tomato_sauce_meatless	Stuffed shells, cheese filled, with tomato sauce, meatless	58134120.0
58134130	0	Stuffed_shells_cheese_filled_with_meat_sauce	Stuffed shells, cheese filled, with meat sauce	58134130.0
58134160	0	Stuffed_shells_cheese_and_spinach_filled_no_sauce	Stuffed shells, cheese  and spinach  filled, no sauce	58134160.0
58134210	0	Stuffed_shells_with_chicken_with_tomato_sauce	Stuffed shells, with chicken, with tomato sauce	58134210.0
58134310	0	Stuffed_shells_with_fish_and_or_shellfish_with_tomato_sauce	Stuffed shells, with fish and/or shellfish, with tomato sauce	58134310.0
58134610	0	Tortellini_meat_filled_with_tomato_sauce	Tortellini, meat filled, with tomato sauce	58134610.0
58134613	0	Tortellini_meat_filled_with_tomato_sauce_canned	Tortellini, meat filled, with tomato sauce, canned	58134613.0
58134620	0	Tortellini_cheese_filled_meatless_with_tomato_sauce	Tortellini, cheese filled, meatless, with tomato sauce	58134620.0
58134623	0	Tortellini_cheese_filled_meatless_with_tomato_sauce_canned	Tortellini, cheese filled, meatless, with tomato sauce, canned	58134623.0
58134630	0	Tortellini_cheese_filled_meatless_with_vegetables_and_vinaigrette_dressing_Stouffer_s_Cheese_Tortellini_Vinaigrette_	Tortellini, cheese filled, meatless, with vegetables and vinaigrette dressing (Stouffer's Cheese Tortellini Vinaigrette )	58134630.0
58134640	0	Tortellini_cheese_filled_meatless_with_vinaigrette_dressing	Tortellini, cheese filled, meatless, with vinaigrette dressing	58134640.0
58134650	0	Tortellini_meat_filled_no_sauce	Tortellini, meat filled, no sauce	58134650.0
58134660	0	Tortellini_cheese_filled_with_cream_sauce	Tortellini, cheese filled, with cream sauce	58134660.0
58134680	0	Tortellini_cheese_filled_no_sauce	Tortellini, cheese filled, no sauce	58134680.0
58134710	0	Tortellini_spinach_filled_with_tomato_sauce	Tortellini, spinach filled, with tomato sauce	58134710.0
58134720	0	Tortellini_spinach_filled_no_sauce	Tortellini, spinach filled, no sauce	58134720.0
58134810	0	Cannelloni_cheese_and_spinach_filled_no_sauce	Cannelloni, cheese  and spinach filled, no sauce	58134810.0
58135110	0	Chow_fun_noodles_with_pork_and_vegetables	Chow fun noodles, with pork and vegetables	58135110.0
58135120	0	Chow_fun_noodles_with_vegetables_meatless	Chow fun noodles, with vegetables, meatless	58135120.0
58136120	0	Lo_mein_meatless	Lo mein, meatless	58136120.0
58136130	0	Lo_mein_with_shrimp	Lo mein, with shrimp	58136130.0
58136140	0	Lo_mein_with_pork	Lo mein, with pork	58136140.0
58136150	0	Lo_mein_with_beef	Lo mein, with beef	58136150.0
58136160	0	Lo_mein_with_chicken	Lo mein, with chicken	58136160.0
58137220	0	Pad_Thai_meatless	Pad Thai, meatless	58137220.0
58137230	0	Pad_Thai_with_chicken	Pad Thai, with chicken	58137230.0
58137240	0	Pad_Thai_with_seafood	Pad Thai, with seafood	58137240.0
58137250	0	Pad_Thai_with_beef	Pad Thai, with beef	58137250.0
58145110	0	Macaroni_and_cheese_made_with_margarine	Macaroni and cheese, made with margarine	58145110.0
58145110	100067	Macaroni_and_cheese_made_with_butter	Macaroni and cheese, made with butter	58145110.100067
58145110	201287	Macaroni_and_cheese_made_without_fat	Macaroni and cheese, made without fat	58145110.201287
58145110	205484	Macaroni_and_cheese_made_with_vegetable_oil	Macaroni and cheese, made with vegetable oil	58145110.205484
58145112	0	Macaroni_and_cheese_made_from_packaged_mix	Macaroni and cheese, made from packaged mix	58145112.0
58145113	0	Macaroni_and_cheese_canned	Macaroni and cheese, canned	58145113.0
58145117	0	Macaroni_and_cheese_Easy_Mac_type	Macaroni and cheese, Easy Mac type	58145117.0
58145119	0	Macaroni_and_cheese_made_from_packaged_mix_reduced_fat	Macaroni and cheese, made from packaged mix, reduced fat	58145119.0
58145120	0	Macaroni_and_cheese_with_tuna_Tuna_Helper_	Macaroni and cheese, with tuna (Tuna Helper)	58145120.0
58145130	0	Macaroni_and_cheese_with_beef_Hamburger_Helper_	Macaroni and cheese, with beef (Hamburger Helper)	58145130.0
58145140	0	Macaroni_and_cheese_with_tomato	Macaroni and cheese, with tomato	58145140.0
58145150	0	Macaroni_and_cheese_with_pork_or_ham	Macaroni and cheese, with pork or ham	58145150.0
58145160	0	Macaroni_and_cheese_with_hotdogs	Macaroni and cheese, with hotdogs	58145160.0
58145170	0	Macaroni_and_cheese_made_with_egg_and_margarine	Macaroni and cheese, made with egg and margarine	58145170.0
58145170	205041	Macaroni_and_cheese_made_with_egg_and_butter	Macaroni and cheese, made with egg and butter	58145170.205041
58145170	205124	Macaroni_and_cheese_made_with_egg_without_fat	Macaroni and cheese, made with egg, without fat	58145170.205124
58145170	205266	Macaroni_and_cheese_made_with_egg_and_vegetable_oil	Macaroni and cheese, made with egg and vegetable oil	58145170.205266
58145190	0	Macaroni_and_cheese_with_chicken	Macaroni and cheese, with chicken	58145190.0
58146100	0	Pasta_with_tomato_sauce_meatless	Pasta with tomato sauce, meatless	58146100.0
58146110	0	Pasta_with_meat_sauce	Pasta with meat sauce	58146110.0
58146120	0	Pasta_with_cheese_and_meat_sauce_Cannelloni_	Pasta with cheese and meat sauce (Cannelloni)	58146120.0
58146130	0	Pasta_with_carbonara_sauce	Pasta with carbonara sauce	58146130.0
58146150	0	Pasta_with_cheese_and_tomato_sauce_meatless	Pasta with cheese and tomato sauce, meatless	58146150.0
58146160	0	Pasta_with_vegetables_no_sauce_or_dressing	Pasta with vegetables, no sauce or dressing	58146160.0
58146200	0	Pasta_meat_filled_with_gravy_canned_Chef_Boyardee_Mini_Chicken_Ravioli_	Pasta, meat-filled, with gravy, canned (Chef Boyardee Mini Chicken Ravioli)	58146200.0
58146300	0	Pasta_whole_wheat_with_meat_sauce	Pasta, whole wheat, with meat sauce	58146300.0
58146310	0	Pasta_whole_wheat_with_tomato_sauce_meatless	Pasta, whole wheat, with tomato sauce, meatless	58146310.0
58147100	0	Pasta_with_pesto_sauce	Pasta with pesto sauce	58147100.0
58147110	0	Macaroni_or_noodles_with_beans_or_lentils_and_tomato_sauce	Macaroni or noodles with beans or lentils and tomato sauce	58147110.0
58147310	0	Macaroni_creamed_made_with_margarine	Macaroni, creamed, made with margarine	58147310.0
58147310	200861	Macaroni_creamed_made_with_butter	Macaroni, creamed, made with butter	58147310.200861
58147310	205583	Macaroni_creamed_made_with_sour_cream	Macaroni, creamed, made with sour cream	58147310.205583
58147310	205612	Macaroni_creamed_without_fat	Macaroni, creamed,without fat	58147310.205612
58147310	206280	Macaroni_creamed_made_with_vegetable_oil	Macaroni, creamed, made with vegetable oil	58147310.206280
58147330	0	Macaroni_creamed_with_cheese_made_with_margarine_Fettucine_Alfredo_	Macaroni, creamed, with cheese, made with margarine (Fettucine Alfredo)	58147330.0
58147330	101093	Macaroni_creamed_with_cheese_made_with_butter_Fettucine_Alfredo_	Macaroni, creamed, with cheese, made with butter (Fettucine Alfredo)	58147330.101093
58147330	205414	Macaroni_creamed_with_cheese_made_with_vegetable_oil_Fettucine_Alfredo_	Macaroni, creamed, with cheese, made with vegetable oil (Fettucine Alfredo)	58147330.205414
58147330	205708	Macaroni_creamed_with_cheese_made_without_fat_Fettucine_Alfredo_	Macaroni, creamed, with cheese, made without fat (Fettucine Alfredo)	58147330.205708
58147340	0	Fettucina_alfredo_with_tuna_Tuna_Helper_	Fettucina alfredo, with tuna (Tuna Helper)	58147340.0
58147350	0	Macaroni_creamed_with_vegetables	Macaroni, creamed, with vegetables	58147350.0
58147350	207012	Macaroni_creamed_with_vegetables_made_without_fat	Macaroni, creamed, with vegetables, made without fat	58147350.207012
58147510	0	Pasta_beef_or_chicken_flavored_made_with_margarine_Lipton_	Pasta, beef or chicken flavored, made with margarine (Lipton)	58147510.0
58147510	202009	Pasta_beef_or_chicken_flavored_made_with_butter_Lipton_	Pasta, beef or chicken flavored, made with butter (Lipton)	58147510.202009
58147510	205465	Pasta_beef_or_chicken_flavored_made_without_fat_Lipton_	Pasta, beef or chicken flavored, made without fat (Lipton)	58147510.205465
58147510	205914	Pasta_beef_or_chicken_flavored_made_with_vegetable_oil_Lipton_	Pasta, beef or chicken flavored, made with vegetable oil (Lipton)	58147510.205914
58148110	0	Pasta_salad_macaroni_salad_made_with_mayonnaise	Pasta salad (macaroni salad), made with mayonnaise	58148110.0
58148111	0	Pasta_salad_macaroni_salad_made_with_light_mayonnaise	Pasta salad (macaroni salad), made with light mayonnaise	58148111.0
58148112	0	Pasta_salad_macaroni_salad_made_with_mayonnaise_type_salad_dressing_Miracle_Whip_	Pasta salad (macaroni salad), made with mayonnaise-type salad dressing (Miracle Whip)	58148112.0
58148113	0	Pasta_salad_macaroni_salad_made_with_low_calorie_dressing_Miracle_Whip_Light_	Pasta salad (macaroni salad), made with low calorie dressing (Miracle Whip Light)	58148113.0
58148114	0	Pasta_salad_macaroni_salad_made_with_Italian_dressing	Pasta salad (macaroni salad), made with Italian dressing	58148114.0
58148115	0	Pasta_salad_macaroni_salad_made_with_light_Italian_dressing	Pasta salad (macaroni salad), made with light Italian dressing	58148115.0
58148116	0	Pasta_salad_macaroni_salad_made_with_creamy_dressing	Pasta salad (macaroni salad), made with creamy dressing	58148116.0
58148117	0	Pasta_salad_macaroni_salad_made_with_light_creamy_dressing	Pasta salad (macaroni salad), made with light creamy dressing	58148117.0
58148118	0	Pasta_salad_macaroni_salad_made_with_fat_free_dressing_Fat_Free_Miracle_Whip_	Pasta salad (macaroni salad), made with fat free dressing (Fat Free Miracle Whip)	58148118.0
58148120	0	Pasta_salad_macaroni_salad_with_egg_made_with_mayonnaise	Pasta salad (macaroni salad), with egg, made with mayonnaise	58148120.0
58148120	101354	Pasta_salad_macaroni_salad_with_egg_made_with_light_mayonnaise	Pasta salad (macaroni salad), with egg, made with light mayonnaise	58148120.101354
58148120	202619	Pasta_salad_macaroni_salad_with_egg_made_with_low_calorie_dressing_Miracle_Whip_Light_	Pasta salad (macaroni salad), with egg, made with low calorie dressing (Miracle Whip Light)	58148120.202619
58148120	205747	Pasta_salad_macaroni_salad_with_egg_made_with_mayonnaise_type_dressing_Miracle_Whip_	Pasta salad (macaroni salad), with egg, made with mayonnaise-type dressing (Miracle Whip)	58148120.205747
58148130	0	Pasta_salad_macaroni_salad_with_tuna_made_with_mayonnaise	Pasta salad (macaroni salad), with tuna, made with mayonnaise	58148130.0
58148130	101228	MPasta_salad_macaroni_salad_with_tuna_made_with_light_mayonnaise	MPasta salad (macaroni salad), with tuna, made with light mayonnaise	58148130.101228
58148130	202491	Pasta_salad_macaroni_salad_with_tuna_with_low_calorie_dressing_Miracle_Whip_Light_	Pasta salad (macaroni salad), with tuna, with low calorie dressing (Miracle Whip Light)	58148130.202491
58148130	205741	Pasta_salad_macaroni_salad_with_tuna_made_with_mayonnaise_type_dressing_Miracle_Whip_	Pasta salad (macaroni salad), with tuna, made with mayonnaise-type dressing (Miracle Whip)	58148130.205741
58148140	0	Pasta_salad_macaroni_salad_with_crab	Pasta salad (macaroni salad), with crab	58148140.0
58148150	0	Pasta_salad_macaroni_salad_with_shrimp	Pasta salad (macaroni salad), with shrimp	58148150.0
58148160	0	Pasta_salad_macaroni_salad_with_tuna_and_egg	Pasta salad (macaroni salad), with tuna and egg	58148160.0
58148170	0	Pasta_salad_macaroni_salad_with_chicken	Pasta salad (macaroni salad), with chicken	58148170.0
58148180	0	Pasta_salad_macaroni_salad_with_cheese_made_with_mayonnaise	Pasta salad (macaroni salad), with cheese, made with mayonnaise	58148180.0
58148180	205650	Pasta_salad_macaroni_salad_with_cheese_made_with_Italian_dressing	Pasta salad (macaroni salad), with cheese, made with Italian dressing	58148180.205650
58148550	0	Pasta_salad_macaroni_salad_with_ham_made_with_italian_dressing	Pasta salad (macaroni salad), with ham, made with italian dressing	58148550.0
58148550	206754	Pasta_salad_macaroni_salad_with_ham_made_with_mayonnaise	Pasta salad (macaroni salad), with ham, made with mayonnaise	58148550.206754
58149110	0	Noodle_pudding	Noodle pudding	58149110.0
58149210	0	Somen_salad_with_noodles_lettuce_egg_fish_and_pork	Somen salad with noodles, lettuce, egg, fish, and pork	58149210.0
58150100	0	Bibimbap_Korean_rice_dish_	Bibimbap (Korean rice dish)	58150100.0
58150110	0	Fried_rice_meatless	Fried rice, meatless	58150110.0
58150320	0	Fried_rice_with_chicken	Fried rice, with chicken	58150320.0
58150330	0	Fried_rice_with_pork	Fried rice, with pork	58150330.0
58150340	0	Fried_rice_with_beef	Fried rice, with beef	58150340.0
58150510	0	Fried_rice_with_shrimp	Fried rice, with shrimp	58150510.0
58150520	0	Tteokbokki_dukboki_Korean_soft_rice_cakes_in_sauce_	Tteokbokki (dukboki) (Korean soft rice cakes in sauce)	58150520.0
58151110	0	Sushi_without_vegetables_or_seafood	Sushi, without vegetables or seafood	58151110.0
58151120	0	Sushi_with_vegetables_no_seafood	Sushi, with vegetables, no seafood	58151120.0
58151130	0	Sushi_with_vegetables_and_seafood	Sushi, with vegetables and seafood	58151130.0
58151140	0	Sushi_with_vegetables_rolled_in_seaweed	Sushi, with vegetables, rolled in seaweed	58151140.0
58151150	0	Sushi_with_seafood_no_vegetables	Sushi, with seafood, no vegetables	58151150.0
58151160	0	Sushi_with_egg_no_vegetables_or_seafood_rolled_in_seaweed	Sushi, with egg, no vegetables or seafood, rolled in seaweed	58151160.0
58155310	0	Paella_with_meat_Spanish_style	Paella with meat, Spanish style	58155310.0
58155320	0	Paella_with_seafood_Puerto_Rican_style	Paella with seafood, Puerto Rican style	58155320.0
58156610	0	Pigeon_pea_asopao	Pigeon pea asopao	58156610.0
58160000	0	Vegetable_biryani	Vegetable biryani	58160000.0
58160110	0	Rice_and_beans_cooked_with_margarine	Rice and beans, cooked with margarine	58160110.0
58160110	202997	Rice_and_beans_cooked_without_fat	Rice and beans, cooked without fat	58160110.202997
58160110	203294	Rice_and_beans_cooked_with_butter	Rice and beans, cooked with butter	58160110.203294
58160110	204880	Rice_and_beans_cooked_with_vegetable_oil	Rice and beans, cooked with vegetable oil	58160110.204880
58160110	206069	Rice_and_beans_cooked_with_animal_fat	Rice and beans, cooked with animal fat	58160110.206069
58160110	207646	Rice_and_beans_cooked_with_shortening	Rice and beans, cooked with shortening	58160110.207646
58160120	205046	Rice_and_beans_with_tomatoes_cooked_with_vegetable_oil	Rice and beans, with tomatoes, cooked with vegetable oil	58160120.205046
58160120	205830	Rice_and_beans_with_tomatoes_cooked_without_fat	Rice and beans, with tomatoes, cooked without fat	58160120.205830
58160120	207230	Rice_and_beans_with_tomatoes_cooked_with_animal_fat	Rice and beans, with tomatoes, cooked with animal fat	58160120.207230
58160130	0	Rice_and_beans_with_chicken_cooked_with_vegetable_oil	Rice and beans, with chicken, cooked with vegetable oil	58160130.0
58160135	0	Rice_and_beans_with_beef_cooked_with_vegetable_oil	Rice and beans, with beef, cooked with vegetable oil	58160135.0
58160140	0	Rice_and_beans_with_pork_cooked_with_vegetable_oil	Rice and beans, with pork, cooked with vegetable oil	58160140.0
58160140	206858	Rice_and_beans_with_pork_cooked_without_fat	Rice and beans, with pork, cooked without fat	58160140.206858
58160140	207149	Rice_and_beans_with_pork_cooked_with_animal_fat	Rice and beans, with pork, cooked with animal fat	58160140.207149
58160150	0	Red_beans_and_rice_cooked_with_vegetable_oil	Red beans and rice, cooked with vegetable oil	58160150.0
58160150	203010	Red_beans_and_rice_cooked_without_fat	Red beans and rice, cooked without fat	58160150.203010
58160160	0	Hopping_John_blackeye_peas_and_rice_	Hopping John (blackeye peas and rice)	58160160.0
58160202	0	Rice_and_vegetables_no_sauce_cooked_without_fat	Rice and vegetables, no sauce, cooked without fat	58160202.0
58160204	0	Rice_and_vegetables_no_sauce_cooked_with_margarine	Rice and vegetables, no sauce, cooked with margarine	58160204.0
58160220	0	Rice_and_vegetables_in_a_tomato_based_sauce	Rice and vegetables, in a tomato-based sauce	58160220.0
58160805	0	Rice_with_lentils_white_rice_cooked_with_vegetable_oil	Rice with lentils, white rice, cooked with vegetable oil	58160805.0
58160810	0	Rice_with_lentils_white_rice_no_fat_added	Rice with lentils, white rice, no fat added	58160810.0
58161110	0	Rice_casserole_with_cheese	Rice casserole with cheese	58161110.0
58161120	0	Brown_rice_casserole_with_cheese	Brown rice casserole with cheese	58161120.0
58161200	0	Rice_cooked_with_coconut_milk	Rice, cooked with coconut milk	58161200.0
58161300	0	Rice_and_tomato_sauce_cooked_with_margarine	Rice and tomato sauce, cooked with margarine	58161300.0
58161300	100214	Rice_and_tomato_sauce_cooked_without_fat	Rice and tomato sauce, cooked without fat	58161300.100214
58161300	200211	Rice_and_tomato_sauce_cooked_with_vegetable_oil	Rice and tomato sauce, cooked with vegetable oil	58161300.200211
58161310	203490	Rice_brown_with_tomato_sauce_cooked_without_fat	Rice, brown with tomato sauce, cooked without fat	58161310.203490
58161310	203773	Rice_brown_with_tomato_sauce_cooked_with_vegetable_oil	Rice, brown with tomato sauce, cooked with vegetable oil	58161310.203773
58161320	0	Brown_rice_and_beans_cooked_with_vegetable_oil	Brown rice and beans, cooked with vegetable oil	58161320.0
58161320	207527	Brown_rice_and_beans_cooked_without_fat	Brown rice and beans, cooked without fat	58161320.207527
58161325	0	Brown_rice_and_beans_with_tomatoes_cooked_with_vegetable_oil	Brown rice and beans, with tomatoes, cooked with vegetable oil	58161325.0
58161325	207605	Brown_rice_and_beans_with_tomatoes_cooked_without_fat	Brown rice and beans, with tomatoes, cooked without fat	58161325.207605
58161402	0	Rice_brown_with_vegetables_no_sauce_cooked_without_fat	Rice, brown with vegetables, no sauce, cooked without fat	58161402.0
58161404	0	Rice_brown_with_vegetables_no_sauce_cooked_with_margarine	Rice, brown with vegetables, no sauce, cooked with margarine	58161404.0
58161510	0	Grape_leaves_stuffed_with_rice	Grape leaves stuffed with rice	58161510.0
58161710	0	Rice_croquette	Rice croquette	58161710.0
58162090	0	Stuffed_pepper_with_meat	Stuffed pepper, with meat	58162090.0
58162110	0	Stuffed_pepper_with_rice_and_meat	Stuffed pepper, with rice and meat	58162110.0
58162120	0	Stuffed_pepper_with_rice_meatless	Stuffed pepper, with rice, meatless	58162120.0
58162310	0	Rice_pilaf_cooked_with_vegetable_oil	Rice pilaf, cooked with vegetable oil	58162310.0
58162310	100991	Rice_pilaf_cooked_without_fat	Rice pilaf, cooked without fat	58162310.100991
58163130	0	Dirty_rice_cooked_with_butter	Dirty rice, cooked with butter	58163130.0
58163130	205412	Dirty_rice_cooked_with_vegetable_oil	Dirty rice, cooked with vegetable oil	58163130.205412
58163130	206554	Dirty_rice_cooked_without_fat	Dirty rice, cooked without fat	58163130.206554
58163310	0	Flavored_rice_mix_cooked_with_margarine_Uncle_Ben_s_	Flavored rice mix, cooked with margarine (Uncle Ben's)	58163310.0
58163310	203023	Flavored_rice_mix_cooked_without_fat_Uncle_Ben_s_	Flavored rice mix, cooked without fat (Uncle Ben's)	58163310.203023
58163330	0	Flavored_rice_mix_with_cheese_rice_au_gratin_cooked_with_margarine	Flavored rice mix with cheese (rice au gratin), cooked with margarine	58163330.0
58163330	204859	Flavored_rice_mix_with_cheese_rice_au_gratin_cooked_without_fat	Flavored rice mix with cheese (rice au gratin), cooked without fat	58163330.204859
58163360	0	Flavored_rice_mix_brown_and_wild_cooked_with_margarine	Flavored rice mix, brown and wild, cooked with margarine	58163360.0
58163360	202875	Flavored_rice_mix_brown_and_wild_cooked_without_fat	Flavored rice mix, brown and wild, cooked without fat	58163360.202875
58163380	0	Flavored_rice_and_pasta_mix_cooked_with_margarine_Rice_a_roni_Lipton_	Flavored rice and pasta mix, cooked with margarine (Rice-a-roni, Lipton)	58163380.0
58163380	100105	Flavored_rice_and_pasta_mix_cooked_with_butter_Rice_a_roni_Lipton_	Flavored rice and pasta mix, cooked with butter (Rice-a-roni, Lipton)	58163380.100105
58163380	202867	Flavored_rice_and_pasta_mix_cooked_without_fat_Rice_a_roni_Lipton_	Flavored rice and pasta mix, cooked without fat (Rice-a-roni, Lipton)	58163380.202867
58163380	205154	Flavored_rice_and_pasta_mix_cooked_with_vegetable_oil_Rice_a_roni_Lipton_	Flavored rice and pasta mix, cooked with vegetable oil (Rice-a-roni, Lipton)	58163380.205154
58163400	0	Flavored_rice_and_pasta_mix_reduced_sodium_cooked_with_margarine_Rice_a_roni_Lipton_	Flavored rice and pasta mix, reduced sodium, cooked with margarine (Rice-a-roni, Lipton)	58163400.0
58163410	0	Spanish_rice_cooked_with_vegetable_oil	Spanish rice, cooked with vegetable oil	58163410.0
58163410	203507	Spanish_rice_cooked_with_margarine	Spanish rice, cooked with margarine	58163410.203507
58163410	205114	Spanish_rice_cooked_with_butter	Spanish rice, cooked with butter	58163410.205114
58163420	0	Spanish_rice_no_fat_added	Spanish rice, no fat added	58163420.0
58163450	0	Spanish_rice_with_ground_beef	Spanish rice, with ground beef	58163450.0
58164540	0	Rice_and_gravy_white_rice	Rice and gravy, white rice	58164540.0
58164840	0	Rice_and_gravy_brown_rice	Rice and gravy, brown rice	58164840.0
58175110	0	Tabbouleh_bulgar_with_tomatoes_and_parsley_	Tabbouleh (bulgar with tomatoes and parsley)	58175110.0
58200100	0	Wrap_sandwich_filled_with_chicken_vegetables_and_rice	Wrap sandwich, filled with chicken, vegetables, and rice	58200100.0
58200200	0	Wrap_sandwich_filled_with_vegetables_and_rice_vegetarian_wrap_	Wrap sandwich, filled with vegetables and rice (vegetarian wrap)	58200200.0
58200250	0	Wrap_sandwich_filled_with_vegetables_vegetarian_wrap_	Wrap sandwich, filled with vegetables (vegetarian wrap)	58200250.0
58200300	0	Wrap_sandwich_filled_with_chicken_vegetables_rice_and_cheese	Wrap sandwich, filled with chicken, vegetables, rice, and cheese	58200300.0
58301020	0	Lasagna_with_cheese_and_sauce_diet_frozen_meal_	Lasagna with cheese and sauce (diet frozen meal)	58301020.0
58301050	0	Lasagna_with_cheese_and_meat_sauce_diet_frozen_meal_	Lasagna with cheese and meat sauce (diet frozen meal)	58301050.0
58301080	0	Lasagna_with_cheese_and_meat_sauce_reduced_fat_and_sodium_diet_frozen_meal_	Lasagna with cheese and meat sauce, reduced fat and sodium (diet frozen meal)	58301080.0
58301110	0	Vegetable_lasagna_frozen_meal_	Vegetable lasagna (frozen meal)	58301110.0
58301150	0	Zucchini_lasagna_diet_frozen_meal_	Zucchini lasagna (diet frozen meal)	58301150.0
58302000	0	Macaroni_and_cheese_diet_frozen_meal_	Macaroni and cheese (diet frozen meal)	58302000.0
58302050	0	Beef_and_noodles_with_meat_sauce_and_cheese_diet_frozen_meal_	Beef and noodles with meat sauce and cheese (diet frozen meal)	58302050.0
58302060	0	Spaghetti_with_beef_in_tomato_based_sauce_lowfat_reduced_sodium_diet_frozen_meal_	Spaghetti with beef in tomato-based sauce, lowfat, reduced sodium (diet frozen meal)	58302060.0
58302080	0	Noodles_with_vegetables_in_tomato_based_sauce_diet_frozen_meal_	Noodles with vegetables in tomato-based sauce (diet frozen meal)	58302080.0
58303100	0	Rice_with_broccoli_cheese_sauce_frozen_side_dish_	Rice, with broccoli, cheese sauce (frozen side dish)	58303100.0
58304020	0	Spaghetti_and_meatballs_with_tomato_sauce_sliced_apples_bread_frozen_meal_	Spaghetti and meatballs with tomato sauce, sliced apples, bread (frozen meal)	58304020.0
58304050	0	Spaghetti_with_meat_and_mushroom_sauce_diet_frozen_meal_	Spaghetti with meat and mushroom sauce (diet frozen meal)	58304050.0
58304060	0	Spaghetti_with_meat_sauce_diet_frozen_meal_	Spaghetti with meat sauce (diet frozen meal)	58304060.0
58304200	0	Ravioli_cheese_filled_with_tomato_sauce_diet_frozen_meal_	Ravioli, cheese-filled, with tomato sauce (diet frozen meal)	58304200.0
58304220	0	Rigatoni_with_meat_sauce_and_cheese_diet_frozen_meal_	Rigatoni with meat sauce and cheese (diet frozen meal)	58304220.0
58304230	0	Ravioli_cheese_filled_with_vegetable_and_fruit_frozen_meal_	Ravioli, cheese-filled, with vegetable and fruit (frozen meal)	58304230.0
58304250	0	Manicotti_cheese_filled_with_tomato_sauce_diet_frozen_meal_	Manicotti, cheese-filled, with tomato sauce (diet frozen meal)	58304250.0
58304300	0	Cannelloni_cheese_filled_with_tomato_sauce_diet_frozen_meal_	Cannelloni, cheese-filled, with tomato sauce (diet frozen meal)	58304300.0
58304400	0	Linguini_with_vegetables_and_seafood_in_white_wine_sauce_diet_frozen_meal_	Linguini with vegetables and seafood in white wine sauce (diet frozen meal)	58304400.0
58305250	0	Pasta_with_vegetable_and_cheese_sauce_diet_frozen_meal_	Pasta with vegetable and cheese sauce (diet frozen meal)	58305250.0
58306020	0	Beef_enchilada_chili_gravy_rice_refried_beans_frozen_meal_	Beef enchilada, chili gravy, rice, refried beans (frozen meal)	58306020.0
58306070	0	Cheese_enchilada_frozen_meal_	Cheese enchilada (frozen meal)	58306070.0
58306100	0	Chicken_enchilada_diet_frozen_meal_	Chicken enchilada (diet frozen meal)	58306100.0
58306200	0	Chicken_fajitas_diet_frozen_meal_	Chicken fajitas (diet frozen meal)	58306200.0
58306500	0	Chicken_burritos_diet_frozen_meal_	Chicken burritos (diet frozen meal)	58306500.0
58310210	0	Sausage_and_french_toast_frozen_meal_	Sausage and french toast (frozen meal)	58310210.0
58310310	0	Pancakes_and_sausage_frozen_meal_	Pancakes and sausage (frozen meal)	58310310.0
58401010	0	Barley_soup	Barley soup	58401010.0
58402010	0	Beef_noodle_soup	Beef noodle soup	58402010.0
58402020	0	Beef_dumpling_soup_homemade	Beef dumpling soup, homemade	58402020.0
58402030	0	Beef_rice_soup	Beef rice soup	58402030.0
58402100	0	Beef_noodle_soup_home_recipe	Beef noodle soup, home recipe	58402100.0
58403010	0	Chicken_noodle_soup	Chicken noodle soup	58403010.0
58403030	0	Chicken_noodle_soup_canned_low_sodium_ready_to_serve	Chicken noodle soup, canned, low sodium, ready-to-serve	58403030.0
58403040	0	Chicken_noodle_soup_home_recipe	Chicken noodle soup, home recipe	58403040.0
58403050	0	Chicken_noodle_soup_cream_of	Chicken noodle soup, cream of	58403050.0
58403060	0	Chicken_noodle_soup_canned_reduced_sodium_ready_to_serve	Chicken noodle soup, canned, reduced sodium, ready-to-serve	58403060.0
58404010	0	Chicken_rice_soup	Chicken rice soup	58404010.0
58404030	0	Chicken_or_turkey_rice_soup_home_recipe	Chicken or turkey rice soup, home recipe	58404030.0
58404040	0	Chicken_rice_soup_canned_reduced_sodium_prepared_with_water_or_ready_to_serve	Chicken rice soup, canned, reduced sodium, prepared with water or ready-to-serve	58404040.0
58404050	0	Chicken_and_rice_soup_canned_reduced_sodium_prepared_with_milk	Chicken and rice soup, canned, reduced sodium, prepared with milk	58404050.0
58404500	0	Matzo_ball_soup	Matzo ball soup	58404500.0
58404510	0	Chicken_soup_with_dumplings_and_potatoes	Chicken soup with dumplings and potatoes	58404510.0
58404520	0	Chicken_soup_with_dumplings	Chicken soup with dumplings	58404520.0
58406010	0	Turkey_noodle_soup	Turkey noodle soup	58406010.0
58406020	0	Turkey_noodle_soup_home_recipe	Turkey noodle soup, home recipe	58406020.0
58407010	0	Noodle_soup_instant	Noodle soup, instant	58407010.0
58407030	0	Soup_mostly_noodles_Ramen_Cup_Noodles_	Soup, mostly noodles (Ramen, Cup Noodles)	58407030.0
58407035	0	Soup_mostly_noodles_reduced_fat_reduced_sodium_Ramen_	Soup, mostly noodles, reduced fat, reduced sodium (Ramen)	58407035.0
58407050	0	Noodle_soup_instant_with_egg_shrimp_or_chicken	Noodle soup, instant, with egg, shrimp or chicken	58407050.0
58408010	0	Won_ton_wonton_soup	Won ton (wonton) soup	58408010.0
58408500	0	Noodle_soup_with_vegetables_Asian_style	Noodle soup with vegetables, Asian style	58408500.0
58409000	0	Fish_ball_noodle_soup_with_shrimp_and_Chinese_broccoli	Fish ball noodle soup, with shrimp and Chinese broccoli	58409000.0
58421080	0	Tortilla_soup_Mexican_style	Tortilla soup, Mexican style	58421080.0
59003000	0	Seitan_fried	Seitan, fried	59003000.0
59999998	0	Quinoa_dry	Quinoa, dry	59999998.0
59999999	0	Quinoa_cooked_no_fat_or_salt_added_	Quinoa, cooked (no fat or salt added)	59999999.0
61100500	0	Calamondin_raw	Calamondin, raw	61100500.0
61101010	0	Grapefruit_raw	Grapefruit, raw	61101010.0
61101220	0	Grapefruit_canned_or_frozen_unsweetened	Grapefruit, canned or frozen, unsweetened	61101220.0
61101230	0	Grapefruit_canned_or_frozen_in_light_syrup	Grapefruit, canned or frozen, in light syrup	61101230.0
61104010	0	Grapefruit_and_orange_sections_raw	Grapefruit and orange sections, raw	61104010.0
61104220	0	Grapefruit_orange_sections_cooked_canned_or_frozen_unsweetened	Grapefruit & orange sections, cooked, canned, or frozen, unsweetened	61104220.0
61104230	0	Grapefruit_orange_sections_cooked_canned_or_frozen_in_light_syrup	Grapefruit & orange sections, cooked, canned, or frozen, in light syrup	61104230.0
61110010	0	Kumquat_raw	Kumquat, raw	61110010.0
61110230	0	Kumquats_cooked_or_canned_in_syrup	Kumquats, cooked or canned, in syrup	61110230.0
61113010	0	Lemon_raw	Lemon, raw	61113010.0
61113020	0	Lemon_peel	Lemon peel	61113020.0
61113500	0	Lemon_pie_filling	Lemon pie filling	61113500.0
61116010	0	Lime_raw	Lime, raw	61116010.0
61116050	0	Lime_peel	Lime peel	61116050.0
61119010	0	Orange_raw	Orange, raw	61119010.0
61119020	0	Oranges_sections_canned_juice_pack	Oranges, sections, canned, juice pack	61119020.0
61119100	0	Orange_peel	Orange peel	61119100.0
61122320	0	Orange_mandarin_canned_or_frozen_juice_pack	Orange, mandarin, canned or frozen, juice pack	61122320.0
61122330	0	Oranges_mandarin_canned_or_frozen_in_light_syrup	Oranges, mandarin, canned or frozen, in light syrup	61122330.0
61122350	0	Oranges_mandarin_canned_or_frozen_drained	Oranges, mandarin, canned or frozen, drained	61122350.0
61125000	0	Tangelo_raw	Tangelo, raw	61125000.0
61125010	0	Tangerine_raw	Tangerine, raw	61125010.0
61201010	0	Grapefruit_juice_freshly_squeezed	Grapefruit juice, freshly squeezed	61201010.0
61201220	0	Grapefruit_juice_canned_bottled_or_in_a_carton	Grapefruit juice, canned, bottled or in a carton	61201220.0
61201620	0	Grapefruit_juice_frozen_reconstituted_with_water_	Grapefruit juice, frozen (reconstituted with water)	61201620.0
61204010	0	Lemon_juice_freshly_squeezed	Lemon juice, freshly squeezed	61204010.0
61204200	0	Lemon_juice_canned_or_bottled	Lemon juice, canned or bottled	61204200.0
61204600	0	Lemon_juice_frozen	Lemon juice, frozen	61204600.0
61207010	0	Lime_juice_freshly_squeezed	Lime juice, freshly squeezed	61207010.0
61207200	0	Lime_juice_canned_or_bottled	Lime juice, canned or bottled	61207200.0
61207600	0	Lime_juice_frozen	Lime juice, frozen	61207600.0
61210010	0	Orange_juice_freshly_squeezed	Orange juice, freshly squeezed	61210010.0
61210220	0	Orange_juice_carton_can_or_bottle	Orange juice, carton, can, or bottle	61210220.0
61210250	0	Orange_juice_calcium_added_carton_can_or_bottle	Orange juice, calcium added, carton, can, or bottle	61210250.0
61210620	0	Orange_juice_frozen_reconstituted_with_water_	Orange juice, frozen (reconstituted with water)	61210620.0
61210720	0	Orange_juice_frozen_not_reconstituted	Orange juice, frozen, not reconstituted	61210720.0
61210820	0	Orange_juice_frozen_calcium_added_reconstituted_with_water_	Orange juice, frozen, calcium added (reconstituted with water)	61210820.0
61213220	0	Tangerine_juice_canned	Tangerine juice, canned	61213220.0
61213620	0	Tangerine_juice_frozen_reconstituted_with_water_	Tangerine juice, frozen (reconstituted with water)	61213620.0
61213800	0	Fruit_juice_blend_including_citrus_100_juice	Fruit juice blend, including citrus, 100% juice	61213800.0
61213900	0	Fruit_juice_blend_including_citrus_100_juice_with_calcium_added	Fruit juice blend, including citrus, 100% juice, with calcium added	61213900.0
62101050	0	Fruit_mix_dried_apples_apricots_dates_papaya_peaches_pears_pineapples_prunes_raisins_	Fruit mix, dried (apples, apricots, dates, papaya, peaches, pears, pineapples, prunes, raisins)	62101050.0
62101100	0	Apple_dried_uncooked	Apple, dried, uncooked	62101100.0
62101150	0	Apples_dried_uncooked_low_sodium	Apples, dried, uncooked, low sodium	62101150.0
62101220	0	Apple_dried_cooked_unsweetened	Apple, dried, cooked, unsweetened	62101220.0
62101230	0	Apples_dried_cooked_with_sugar	Apples, dried, cooked, with sugar	62101230.0
62101300	0	Apple_chips	Apple chips	62101300.0
62104100	0	Apricots_dried_uncooked	Apricots, dried, uncooked	62104100.0
62104220	0	Apricots_dried_cooked_unsweetened	Apricots, dried, cooked, unsweetened	62104220.0
62104230	0	Apricot_dried_cooked_with_sugar	Apricot, dried, cooked, with sugar	62104230.0
62105000	0	Blueberries_dried	Blueberries, dried	62105000.0
62107100	0	Banana_flakes_dehydrated	Banana flakes, dehydrated	62107100.0
62107200	0	Banana_chips	Banana chips	62107200.0
62108100	0	Currants_dried	Currants, dried	62108100.0
62109100	0	Cranberries_dried	Cranberries, dried	62109100.0
62110100	0	Date	Date	62110100.0
62113100	0	Fig_dried_uncooked	Fig, dried, uncooked	62113100.0
62113220	0	Fig_dried_cooked_unsweetened	Fig, dried, cooked, unsweetened	62113220.0
62113230	0	Figs_dried_cooked_with_sugar	Figs, dried, cooked, with sugar	62113230.0
62114000	0	Lychee_dried_lychee_nuts_	Lychee, dried (lychee nuts)	62114000.0
62114050	0	Mango_dried	Mango, dried	62114050.0
62114110	0	Papaya_dried	Papaya, dried	62114110.0
62116100	0	Peach_dried_uncooked	Peach, dried, uncooked	62116100.0
62116220	0	Peaches_dried_cooked_unsweetened	Peaches, dried, cooked, unsweetened	62116220.0
62116230	0	Peach_dried_cooked_with_sugar	Peach, dried, cooked, with sugar	62116230.0
62119100	0	Pear_dried_uncooked	Pear, dried, uncooked	62119100.0
62119220	0	Pear_dried_cooked_unsweetened	Pear, dried, cooked, unsweetened	62119220.0
62119230	0	Pears_dried_cooked_with_sugar	Pears, dried, cooked, with sugar	62119230.0
62120100	0	Pineapples_dried	Pineapples, dried	62120100.0
62121100	0	Plum_dried_salted_crack_seed_	Plum, dried, salted (crack seed)	62121100.0
62122100	0	Prunes_dried_uncooked	Prunes, dried, uncooked	62122100.0
62122220	0	Prunes_dried_cooked_unsweetened	Prunes, dried, cooked, unsweetened	62122220.0
62122230	0	Prune_dried_cooked_with_sugar	Prune, dried, cooked, with sugar	62122230.0
62125100	0	Raisins	Raisins	62125100.0
62125110	0	Raisin_cooked	Raisin, cooked	62125110.0
62126000	0	Tamarind_pulp_dried_sweetened	Tamarind pulp, dried, sweetened	62126000.0
62199999	0	Allspice	Allspice	62199999.0
63101000	0	Apples_raw	Apples, raw	63101000.0
63101120	0	Apple_stewed_unsweetened	Apple, stewed, unsweetened	63101120.0
63101130	0	Apples_stewed_with_sugar	Apples, stewed, with sugar	63101130.0
63101140	0	Apple_stewed_with_low_calorie_sweetener	Apple, stewed, with low calorie sweetener	63101140.0
63101150	0	Applesauce_with_strawberry	Applesauce, with strawberry	63101150.0
63101210	0	Apples_cooked_or_canned_with_syrup	Apples, cooked or canned, with syrup	63101210.0
63101320	0	Apples_baked_unsweetened	Apples, baked, unsweetened	63101320.0
63101330	0	Apple_baked_with_sugar	Apple, baked, with sugar	63101330.0
63101410	0	Apple_rings_fried	Apple rings, fried	63101410.0
63101420	0	Apple_pickled	Apple, pickled	63101420.0
63101500	0	Apple_fried_with_margarine	Apple, fried, with margarine	63101500.0
63101500	201120	Apples_fried_with_butter	Apples, fried, with butter	63101500.201120
63101500	203478	Apple_fried_with_vegetable_oil	Apple, fried, with vegetable oil	63101500.203478
63103010	0	Apricots_raw	Apricots, raw	63103010.0
63103120	0	Apricot_cooked_or_canned_unsweetened	Apricot, cooked or canned, unsweetened	63103120.0
63103130	0	Apricots_cooked_or_canned_in_heavy_syrup	Apricots, cooked or canned, in heavy syrup	63103130.0
63103140	0	Apricot_cooked_or_canned_in_light_syrup	Apricot, cooked or canned, in light syrup	63103140.0
63103150	0	Apricots_cooked_or_canned_drained_solids	Apricots, cooked or canned, drained solids	63103150.0
63103170	0	Apricot_cooked_or_canned_juice_pack	Apricot, cooked or canned, juice pack	63103170.0
63105010	0	Avocado_raw	Avocado, raw	63105010.0
63107010	0	Banana_raw	Banana, raw	63107010.0
63107070	0	Bananas_Chinese_raw	Bananas, Chinese, raw	63107070.0
63107080	0	Banana_red_raw	Banana, red, raw	63107080.0
63107090	0	Banana_red_fried	Banana, red, fried	63107090.0
63107110	0	Banana_baked	Banana, baked	63107110.0
63107210	0	Banana_ripe_fried_with_vegetable_oil	Banana, ripe, fried, with vegetable oil	63107210.0
63107210	206743	Bananas_ripe_fried_with_butter	Bananas, ripe, fried, with butter	63107210.206743
63107310	0	Banana_ripe_boiled	Banana, ripe, boiled	63107310.0
63107410	0	Bananas_batter_dipped_fried	Bananas, batter-dipped, fried	63107410.0
63109010	0	Cantaloupe_raw	Cantaloupe, raw	63109010.0
63109610	0	Cantaloupe_frozen_balls_	Cantaloupe, frozen (balls)	63109610.0
63109700	0	Carambola_starfruit_raw	Carambola (starfruit), raw	63109700.0
63109750	0	Carambola_starfruit_cooked_with_sugar	Carambola (starfruit), cooked, with sugar	63109750.0
63110010	0	Cassaba_melon_raw	Cassaba melon, raw	63110010.0
63111010	0	Cherries_maraschino	Cherries, maraschino	63111010.0
63113010	0	Cherries_sour_red_raw	Cherries, sour, red, raw	63113010.0
63113030	0	Cherry_pie_filling	Cherry pie filling	63113030.0
63113050	0	Cherry_pie_filling_low_calorie	Cherry pie filling, low calorie	63113050.0
63113110	0	Cherry_sour_red_cooked_unsweetened	Cherry, sour, red, cooked, unsweetened	63113110.0
63115010	0	Cherries_sweet_raw_Queen_Anne_Bing_	Cherries, sweet, raw (Queen Anne, Bing)	63115010.0
63115120	0	Cherry_sweet_cooked_unsweetened	Cherry, sweet, cooked, unsweetened	63115120.0
63115130	0	Cherries_sweet_cooked_or_canned_in_heavy_syrup	Cherries, sweet, cooked or canned, in heavy syrup	63115130.0
63115140	0	Cherry_sweet_cooked_or_canned_in_light_syrup	Cherry, sweet, cooked or canned, in light syrup	63115140.0
63115150	0	Cherries_sweet_cooked_or_canned_drained_solids	Cherries, sweet, cooked or canned, drained solids	63115150.0
63115170	0	Cherry_sweet_cooked_or_canned_juice_pack	Cherry, sweet, cooked or canned, juice pack	63115170.0
63115200	0	Cherries_frozen	Cherries, frozen	63115200.0
63115209	0	Cherries_dried	Cherries, dried	63115209.0
63117010	0	Currant_raw	Currant, raw	63117010.0
63119010	0	Fig_raw	Fig, raw	63119010.0
63119120	0	Figs_cooked_or_canned_unsweetened	Figs, cooked or canned, unsweetened	63119120.0
63119130	0	Fig_cooked_or_canned_in_heavy_syrup	Fig, cooked or canned, in heavy syrup	63119130.0
63119140	0	Figs_cooked_or_canned_in_light_syrup	Figs, cooked or canned, in light syrup	63119140.0
63123010	0	Grapes_raw	Grapes, raw	63123010.0
63123120	0	Grape_cooked_or_canned_unsweetened	Grape, cooked or canned, unsweetened	63123120.0
63123130	0	Grapes_cooked_or_canned_in_heavy_syrup	Grapes, cooked or canned, in heavy syrup	63123130.0
63125010	0	Guava_raw	Guava, raw	63125010.0
63125100	0	Guava_shell_canned_in_heavy_syrup	Guava shell, canned in heavy syrup	63125100.0
63126010	0	Juneberries_raw	Juneberries, raw	63126010.0
63126500	0	Kiwi_fruit_raw	Kiwi fruit, raw	63126500.0
63126510	0	Lychee_raw	Lychee, raw	63126510.0
63126600	0	Lychee_cooked_or_canned_in_sugar_or_syrup	Lychee, cooked or canned, in sugar or syrup	63126600.0
63127010	0	Honeydew_melon_raw	Honeydew melon, raw	63127010.0
63127610	0	Honeydew_frozen_balls_	Honeydew, frozen (balls)	63127610.0
63129010	0	Mangos_raw	Mangos, raw	63129010.0
63129020	0	Mango_pickled	Mango, pickled	63129020.0
63129030	0	Mangos_cooked	Mangos, cooked	63129030.0
63131010	0	Nectarines_raw	Nectarines, raw	63131010.0
63131110	0	Nectarines_cooked	Nectarines, cooked	63131110.0
63133010	0	Papaya_raw	Papaya, raw	63133010.0
63133050	0	Papaya_green_cooked	Papaya, green, cooked	63133050.0
63133100	0	Papaya_cooked_or_canned_in_sugar_or_syrup	Papaya, cooked or canned, in sugar or syrup	63133100.0
63134010	0	Passion_fruit_raw	Passion fruit, raw	63134010.0
63135010	0	Peaches_raw	Peaches, raw	63135010.0
63135120	0	Peach_cooked_or_canned_unsweetened	Peach, cooked or canned, unsweetened	63135120.0
63135130	0	Peaches_cooked_or_canned_in_heavy_syrup	Peaches, cooked or canned, in heavy syrup	63135130.0
63135140	0	Peach_cooked_or_canned_in_light_or_medium_syrup	Peach, cooked or canned, in light or medium syrup	63135140.0
63135150	0	Peaches_cooked_or_canned_drained_solids	Peaches, cooked or canned, drained solids	63135150.0
63135170	0	Peach_cooked_or_canned_juice_pack	Peach, cooked or canned, juice pack	63135170.0
63135620	0	Peaches_frozen_unsweetened	Peaches, frozen, unsweetened	63135620.0
63135630	0	Peach_frozen_with_sugar	Peach, frozen, with sugar	63135630.0
63135650	0	Peaches_pickled	Peaches, pickled	63135650.0
63135660	0	Peaches_spiced	Peaches, spiced	63135660.0
63137010	0	Pear_raw	Pear, raw	63137010.0
63137050	0	Pears_Japanese_raw	Pears, Japanese, raw	63137050.0
63137120	0	Pear_cooked_or_canned_unsweetened	Pear, cooked or canned, unsweetened	63137120.0
63137130	0	Pears_cooked_or_canned_in_heavy_syrup	Pears, cooked or canned, in heavy syrup	63137130.0
63137140	0	Pear_cooked_or_canned_in_light_syrup	Pear, cooked or canned, in light syrup	63137140.0
63137150	0	Pears_cooked_or_canned_drained_solids	Pears, cooked or canned, drained solids	63137150.0
63137170	0	Pears_cooked_or_canned_juice_pack	Pears, cooked or canned, juice pack	63137170.0
63139010	0	Persimmon_raw	Persimmon, raw	63139010.0
63141010	0	Pineapple_raw	Pineapple, raw	63141010.0
63141120	0	Pineapple_cooked_or_canned_unsweetened	Pineapple, cooked or canned, unsweetened	63141120.0
63141130	0	Pineapples_cooked_or_canned_in_heavy_syrup	Pineapples, cooked or canned, in heavy syrup	63141130.0
63141140	0	Pineapple_cooked_or_canned_in_light_syrup	Pineapple, cooked or canned, in light syrup	63141140.0
63141150	0	Pineapple_cooked_or_canned_drained_solids	Pineapple, cooked or canned, drained solids	63141150.0
63141170	0	Pineapple_cooked_or_canned_juice_pack	Pineapple, cooked or canned, juice pack	63141170.0
63143010	0	Plums_raw	Plums, raw	63143010.0
63143120	0	Plum_cooked_or_canned_unsweetened	Plum, cooked or canned, unsweetened	63143120.0
63143130	0	Plums_cooked_or_canned_in_heavy_syrup	Plums, cooked or canned, in heavy syrup	63143130.0
63143140	0	Plum_cooked_or_canned_in_light_syrup	Plum, cooked or canned, in light syrup	63143140.0
63143150	0	Plums_cooked_or_canned_drained_solids	Plums, cooked or canned, drained solids	63143150.0
63143170	0	Plums_cooked_or_canned_juice_pack	Plums, cooked or canned, juice pack	63143170.0
63143650	0	Plum_pickled	Plum, pickled	63143650.0
63145010	0	Pomegranate_raw	Pomegranate, raw	63145010.0
63147010	0	Rhubarb_raw	Rhubarb, raw	63147010.0
63147120	0	Rhubarb_cooked_or_canned_unsweetened	Rhubarb, cooked or canned, unsweetened	63147120.0
63147130	0	Rhubarb_cooked_or_canned_in_heavy_syrup	Rhubarb, cooked or canned, in heavy syrup	63147130.0
63147140	0	Rhubarb_cooked_or_canned_in_light_syrup	Rhubarb, cooked or canned, in light syrup	63147140.0
63147150	0	Rhubarb_cooked_or_canned_drained_solids	Rhubarb, cooked or canned, drained solids	63147150.0
63147620	0	Rhubarb_frozen_with_sugar	Rhubarb, frozen, with sugar	63147620.0
63148750	0	Tamarind_raw	Tamarind, raw	63148750.0
63149010	0	Watermelon_raw	Watermelon, raw	63149010.0
63201010	0	Blackberries_raw	Blackberries, raw	63201010.0
63201130	0	Blackberry_cooked_or_canned_in_heavy_syrup	Blackberry, cooked or canned, in heavy syrup	63201130.0
63201600	0	Blackberries_frozen	Blackberries, frozen	63201600.0
63203010	0	Blueberries_raw	Blueberries, raw	63203010.0
63203120	0	Blueberry_cooked_or_canned_unsweetened	Blueberry, cooked or canned, unsweetened	63203120.0
63203125	0	Blueberries_cooked_or_canned_in_light_syrup	Blueberries, cooked or canned, in light syrup	63203125.0
63203130	0	Blueberries_cooked_or_canned_in_heavy_syrup	Blueberries, cooked or canned, in heavy syrup	63203130.0
63203550	0	Blueberries_frozen_sweetened	Blueberries, frozen, sweetened	63203550.0
63203600	0	Blueberry_frozen_unsweetened	Blueberry, frozen, unsweetened	63203600.0
63203700	0	Blueberry_pie_filling	Blueberry pie filling	63203700.0
63205010	0	Boysenberries_raw	Boysenberries, raw	63205010.0
63205600	0	Boysenberry_frozen	Boysenberry, frozen	63205600.0
63207010	0	Cranberry_raw	Cranberry, raw	63207010.0
63207110	0	Cranberries_cooked_or_canned	Cranberries, cooked or canned	63207110.0
63208000	0	Dewberries_raw	Dewberries, raw	63208000.0
63214000	0	Huckleberry_raw	Huckleberry, raw	63214000.0
63215010	0	Loganberry_raw	Loganberry, raw	63215010.0
63215600	0	Loganberry_frozen	Loganberry, frozen	63215600.0
63217010	0	Mulberries_raw	Mulberries, raw	63217010.0
63219010	0	Raspberries_black_raw	Raspberries, black, raw	63219010.0
63219020	0	Raspberries_red_raw	Raspberries, red, raw	63219020.0
63219120	0	Raspberry_cooked_or_canned_unsweetened	Raspberry, cooked or canned, unsweetened	63219120.0
63219130	0	Raspberries_cooked_or_canned_in_heavy_syrup	Raspberries, cooked or canned, in heavy syrup	63219130.0
63219610	0	Raspberries_frozen_unsweetened	Raspberries, frozen, unsweetened	63219610.0
63219620	0	Raspberry_frozen_with_sugar	Raspberry, frozen, with sugar	63219620.0
63223020	0	Strawberry_raw	Strawberry, raw	63223020.0
63223030	0	Strawberries_raw_with_sugar	Strawberries, raw, with sugar	63223030.0
63223120	0	Strawberry_cooked_or_canned_unsweetened	Strawberry, cooked or canned, unsweetened	63223120.0
63223130	0	Strawberries_cooked_or_canned_in_syrup	Strawberries, cooked or canned, in syrup	63223130.0
63223610	0	Strawberry_frozen_unsweetened	Strawberry, frozen, unsweetened	63223610.0
63223620	0	Strawberries_frozen_with_sugar	Strawberries, frozen, with sugar	63223620.0
63224000	0	Youngberries_raw	Youngberries, raw	63224000.0
63301010	0	Ambrosia_mixed_fruit_salad_with_coconut_	Ambrosia (mixed fruit salad with coconut)	63301010.0
63307010	0	Cranberry_orange_relish_uncooked	Cranberry-orange relish, uncooked	63307010.0
63307100	0	Cranberry_raspberry_Sauce	Cranberry-raspberry Sauce	63307100.0
63311000	0	Fruit_salad_fresh_no_citrus_fruits_no_dressing	Fruit salad, fresh, (no citrus fruits), no dressing	63311000.0
63311050	0	Fruit_salad_fresh_with_citrus_fruits_no_dressing	Fruit salad, fresh, (with citrus fruits), no dressing	63311050.0
63311080	0	Fruit_cocktail_or_mix_frozen	Fruit cocktail or mix, frozen	63311080.0
63311120	0	Fruit_cocktail_cooked_or_canned_unsweetened	Fruit cocktail, cooked or canned, unsweetened	63311120.0
63311130	0	Fruit_cocktail_cooked_or_canned_in_heavy_syrup	Fruit cocktail, cooked or canned, in heavy syrup	63311130.0
63311140	0	Fruit_cocktail_cooked_or_canned_in_light_syrup	Fruit cocktail, cooked or canned, in light syrup	63311140.0
63311145	0	Tropical_fruit_cocktail_cooked_or_canned_in_light_syrup	Tropical fruit cocktail, cooked or canned, in light syrup	63311145.0
63311150	0	Fruit_cocktail_cooked_or_canned_drained_solids	Fruit cocktail, cooked or canned, drained solids	63311150.0
63311170	0	Fruit_cocktail_cooked_or_canned_juice_pack	Fruit cocktail, cooked or canned, juice pack	63311170.0
63320100	0	Fruit_salad_Puerto_Rican_style_bananas_papayas_oranges_etc_	Fruit salad, Puerto Rican style (bananas, papayas, oranges, etc.)	63320100.0
63401010	0	Waldorf_salad	Waldorf salad	63401010.0
63401010	202263	Apple_salad_with_light_mayonnaise_type_dressing_miracle_whip_light_	Apple salad, with light mayonnaise-type dressing (miracle whip light)	63401010.202263
63401010	206449	Apple_salad_with_sour_cream_dressing	Apple salad, with sour cream dressing	63401010.206449
63401010	206845	Apple_salad_with_low_calorie_mayonnaise_dressing	Apple salad, with low calorie mayonnaise dressing	63401010.206845
63401010	207020	Apple_salad_with_creamy_dressing_ranch_	Apple salad, with creamy dressing (ranch)	63401010.207020
63401010	207113	Apple_salad_with_fat_free_sour_cream_dressing	Apple salad, with fat free sour cream dressing	63401010.207113
63401015	0	Apple_and_grape_salad_with_yogurt_and_walnuts	Apple and grape salad with yogurt and walnuts	63401015.0
63401020	0	Apple_and_cabbage_salad_with_mayonnaise_dressing	Apple and cabbage salad, with mayonnaise dressing	63401020.0
63401020	100944	Apple_and_cabbage_salad_with_vinegar_and_sugar_dressing	Apple and cabbage salad, with vinegar and sugar dressing	63401020.100944
63401030	0	Apple_and_fruit_salad_with_cream_dressing	Apple and fruit salad with cream dressing	63401030.0
63401060	0	Apple_candied	Apple, candied	63401060.0
63401070	0	Strawberry_chocolate_covered	Strawberry, chocolate covered	63401070.0
63401990	0	Banana_chocolate_covered_with_nuts	Banana, chocolate-covered with nuts	63401990.0
63402010	0	Banana_whip	Banana whip	63402010.0
63402030	0	Prune_whip	Prune whip	63402030.0
63402045	0	Banana_dwarf_fried_Puerto_Rican_style	Banana, dwarf, fried Puerto Rican style	63402045.0
63402050	0	Banana_dwarf_fried_with_cheese_Puerto_Rican_style	Banana, dwarf, fried with cheese Puerto Rican style	63402050.0
63402950	0	Fruit_salad_with_mayonnaise_dressing	Fruit salad, with mayonnaise dressing	63402950.0
63402950	100632	Fruit_salad_with_mayonnaise_type_salad_dressing_miracle_whip_	Fruit salad, with mayonnaise-type salad dressing (miracle whip)	63402950.100632
63402950	205745	Fruit_salad_with_fat_free_mayonnaise_type_dressing_miracle_whip_free_	Fruit salad, with fat free mayonnaise-type dressing (miracle whip free)	63402950.205745
63402960	0	Fruit_salad_with_cream	Fruit salad, with cream	63402960.0
63402960	206632	Fruit_salad_with_yogurt	Fruit salad, with yogurt	63402960.206632
63402960	206904	Fruit_salad_with_sour_cream	Fruit salad, with sour cream	63402960.206904
63402960	207197	Fruit_salad_no_citrus_fruits_with_whipped_cream	Fruit salad, (no citrus fruits), with whipped cream	63402960.207197
63402980	0	Fruit_salad_with_marshmallows	Fruit salad, with marshmallows	63402980.0
63402990	0	Fruit_salad_with_citrus_fruits_with_pudding	Fruit salad (with citrus fruits), with pudding	63402990.0
63403000	0	Fruit_salad_no_citrus_fruits_with_pudding	Fruit salad (no citrus fruits), with pudding	63403000.0
63403020	0	Fruit_salad_with_citrus_fruits_with_whipped_cream	Fruit salad (with citrus fruits), with whipped cream	63403020.0
63403100	0	Fruit_dessert_with_cream_and_or_pudding_and_nuts	Fruit dessert with cream and/or pudding and nuts	63403100.0
63403150	0	Lime_souffle	Lime souffle	63403150.0
63409010	0	Guacamole	Guacamole	63409010.0
63409020	0	Chutney	Chutney	63409020.0
63411010	0	Cranberry_salad_congealed	Cranberry salad, congealed	63411010.0
63412010	0	Pear_salad_with_dressing	Pear salad with dressing	63412010.0
63413010	0	Pineapple_salad_with_mayonnaise_dressing	Pineapple salad, with mayonnaise dressing	63413010.0
63413020	0	Pineapple_salad_with_cream_cheese	Pineapple salad, with cream cheese	63413020.0
63415000	0	Soup_sour_cherry	Soup, sour cherry	63415000.0
63415100	0	Soup_fruit_strawberry_watermelon_etc_	Soup, fruit (strawberry, watermelon, etc.)	63415100.0
63420100	0	Fruit_juice_bar_frozen_orange_flavor	Fruit juice bar, frozen, orange flavor	63420100.0
63420110	0	Fruit_juice_bar_frozen_all_flavors_except_orange_	Fruit juice bar, frozen, all flavors (except orange)	63420110.0
63420200	0	Fruit_juice_popsicle_with_low_calorie_sweetener	Fruit juice popsicle, with low calorie sweetener	63420200.0
63430100	0	Sorbet_fruit_noncitrus_flavor_strawberry_raspberry_	Sorbet, fruit, noncitrus flavor (strawberry, raspberry)	63430100.0
63430110	0	Sorbet_fruit_citrus_flavor_orange_lemon_	Sorbet, fruit, citrus flavor (orange, lemon)	63430110.0
63430500	0	Fruit_juice_bar_with_cream_frozen	Fruit juice bar with cream, frozen	63430500.0
64100110	0	Fruit_juice_blend_100_juice	Fruit juice blend, 100% juice	64100110.0
64100200	0	Fruit_juice_blend_with_cranberry_100_juice	Fruit juice blend, with cranberry, 100% juice	64100200.0
64101010	0	Apple_cider	Apple cider	64101010.0
64104010	0	Apple_juice	Apple juice	64104010.0
64104600	0	Blackberry_juice	Blackberry juice	64104600.0
64105400	0	Cranberry_juice_100_not_a_blend	Cranberry juice, 100%, not a blend	64105400.0
64116020	0	Grape_juice	Grape juice	64116020.0
64120010	0	Papaya_juice	Papaya juice	64120010.0
64121000	0	Passion_fruit_juice	Passion fruit juice	64121000.0
64124020	0	Pineapple_juice	Pineapple juice	64124020.0
64126000	0	Pomegranate_juice	Pomegranate juice	64126000.0
64132010	0	Prune_juice	Prune juice	64132010.0
64132500	0	Strawberry_juice	Strawberry juice	64132500.0
64133100	0	Watermelon_juice	Watermelon juice	64133100.0
64134000	0	Fruit_smoothie_fruit_or_fruit_juice_only_no_dairy_products_	Fruit smoothie, fruit or fruit juice only (no dairy products)	64134000.0
64201010	0	Apricot_nectar	Apricot nectar	64201010.0
64201500	0	Banana_nectar	Banana nectar	64201500.0
64202010	0	Cantaloupe_nectar	Cantaloupe nectar	64202010.0
64203020	0	Guava_nectar	Guava nectar	64203020.0
64204010	0	Mango_nectar	Mango nectar	64204010.0
64205010	0	Peach_nectar	Peach nectar	64205010.0
64210010	0	Papaya_nectar	Papaya nectar	64210010.0
64213010	0	Passion_fruit_nectar	Passion fruit nectar	64213010.0
64215010	0	Pear_nectar	Pear nectar	64215010.0
64221010	0	Soursop_nectar	Soursop nectar	64221010.0
64401000	0	Vinegar_distilled	Vinegar, distilled	64401000.0
64401500	0	Vinegar_white_wine	Vinegar, white wine	64401500.0
64401998	0	Vinegar_cider	Vinegar, cider	64401998.0
64401999	0	Vinegar_balsamic	Vinegar, balsamic	64401999.0
71001000	0	Potatoes_raw	Potatoes, raw	71001000.0
71002000	0	Potato_red_raw	Potato, red, raw	71002000.0
71050000	0	Potato_dry_powdered_not_reconstituted	Potato, dry, powdered, not reconstituted	71050000.0
71101000	0	Potatoes_baked_with_salt_peel_not_eaten	Potatoes, baked (with salt), peel not eaten	71101000.0
71101000	900000	Potatoes_baked_no_salt_added_peel_not_eaten	Potatoes, baked (no salt added), peel not eaten	71101000.900000
71101110	0	Potato_baked_with_salt_peel_eaten	Potato, baked (with salt), peel eaten	71101110.0
71101110	900000	Potatoes_baked_no_salt_added_peel_eaten	Potatoes, baked (no salt added), peel eaten	71101110.900000
71101120	0	Potatoes_baked_with_salt_peel_eaten_fat_added_in_cooking	Potatoes, baked (with salt), peel eaten, fat added in cooking	71101120.0
71101150	0	Potato_skins_baked_no_fat_added	Potato skins, baked, no fat added	71101150.0
71103010	0	Potatoes_boiled_with_salt_no_fat_added_	Potatoes, boiled (with salt, no fat added)	71103010.0
71103010	900000	Potato_boiled_no_salt_or_fat_added_	Potato, boiled (no salt or fat added)	71103010.900000
71103020	0	Potatoes_boiled_with_salt_and_margarine_	Potatoes, boiled (with salt and margarine)	71103020.0
71103110	0	Potato_boiled_with_salt_peel_not_eaten	Potato, boiled (with salt), peel not eaten	71103110.0
71103120	0	Potatoes_boiled_with_salt_peel_not_eaten_fat_added_in_cooking	Potatoes, boiled (with salt), peel not eaten, fat added in cooking	71103120.0
71103210	0	Potato_canned_low_sodium_no_fat_added	Potato, canned, low sodium, no fat added	71103210.0
71103220	0	Potatoes_canned_low_sodium_fat_added_in_cooking	Potatoes, canned, low sodium, fat added in cooking	71103220.0
71103229	0	Potato_canned	Potato, canned	71103229.0
71104010	0	Potatoes_roasted_with_salt_no_fat_added_	Potatoes, roasted (with salt, no fat added)	71104010.0
71104010	900000	Potato_roasted_no_salt_or_fat_added_	Potato, roasted (no salt or fat added)	71104010.900000
71104020	0	Potato_roasted_with_salt_and_vegetable_oil_	Potato, roasted (with salt and vegetable oil)	71104020.0
71106000	0	Potatoes_stewed_Puerto_Rican_style	Potatoes, stewed Puerto Rican style	71106000.0
71201015	0	Potato_chips_regular	Potato chips, regular	71201015.0
71201020	0	Potato_chips_ruffle_ripple_or_crinkle_cut	Potato chips, ruffle, ripple, or crinkle cut	71201020.0
71201050	0	Potato_chips_reduced_fat	Potato chips, reduced fat	71201050.0
71201080	0	Potato_chips_fat_free	Potato chips, fat-free	71201080.0
71201090	0	Potato_chips_fat_free_made_with_Olean_Ruffle_s_Light_	Potato chips, fat-free, made with Olean (Ruffle's Light)	71201090.0
71201100	0	Potato_chips_restructured_Pringles_	Potato chips, restructured (Pringles)	71201100.0
71201200	0	Potato_chips_restructured_reduced_fat_and_reduced_sodium_Pringles_	Potato chips, restructured, reduced-fat and reduced-sodium (Pringles)	71201200.0
71201210	0	Potato_chips_restructured_fat_free_made_with_Olean_Pringles_	Potato chips, restructured, fat free, made with Olean (Pringles)	71201210.0
71201250	0	Potato_chips_restructured_baked_Baked_Lay_s_	Potato chips, restructured, baked (Baked Lay's)	71201250.0
71202000	0	Potato_chips_unsalted	Potato chips, unsalted	71202000.0
71202100	0	Potato_chips_unsalted_reduced_fat	Potato chips, unsalted, reduced fat	71202100.0
71202500	0	Potato_chips_lightly_salted	Potato chips, lightly salted	71202500.0
71205000	0	Potato_sticks	Potato sticks	71205000.0
71211000	0	Potato_skin_chips	Potato skin chips	71211000.0
71220000	0	Vegetable_chips	Vegetable chips	71220000.0
71301020	0	Potato_cooked_with_cheese_sauce_au_gratin_	Potato, cooked, with cheese sauce (au gratin)	71301020.0
71301020	100531	Potatoes_cooked_with_cheese_sauce_au_gratin_no_fat_added	Potatoes, cooked, with cheese sauce (au gratin), no fat added	71301020.100531
71301120	0	Potato_cooked_with_ham_and_cheese_sauce_au_gratin_	Potato, cooked, with ham and cheese sauce (au gratin)	71301120.0
71305010	0	Potatoes_scalloped_with_margarine	Potatoes, scalloped, with margarine	71305010.0
71305010	202394	Potato_scalloped_no_fat_added	Potato, scalloped, no fat added	71305010.202394
71305110	0	Potatoes_scalloped_with_ham_with_margarine	Potatoes, scalloped, with ham, with margarine	71305110.0
71305110	205276	Potato_scalloped_with_ham_no_fat_added	Potato, scalloped, with ham, no fat added	71305110.205276
71401010	0	French_fries_fresh_deep_fried	French fries, fresh, deep fried	71401010.0
71401015	0	French_fries_fresh_oven_baked	French fries, fresh, oven baked	71401015.0
71401020	0	French_fries_frozen_oven_baked	French fries, frozen, oven baked	71401020.0
71401030	0	French_fries_frozen_deep_fried_fast_food_fries_	French fries, frozen, deep fried (fast food fries)	71401030.0
71402040	0	French_fries_breaded_or_battered	French fries, breaded or battered	71402040.0
71402500	0	Cheese_fries	Cheese fries	71402500.0
71402505	0	Cheese_fries_with_bacon	Cheese fries, with bacon	71402505.0
71402510	0	Chili_cheese_fries	Chili cheese fries	71402510.0
71402520	0	French_fries_with_chili	French fries, with chili	71402520.0
71403000	0	Home_fries_with_vegetable_oil	Home fries, with vegetable oil	71403000.0
71403000	100014	Home_fries_no_fat_added	Home fries, no fat added	71403000.100014
71403500	0	Home_fries_with_peppers_and_onions_with_vegetable_oil	Home fries, with peppers and onions, with vegetable oil	71403500.0
71403500	206641	Home_fries_with_peppers_and_onions_no_fat_added	Home fries, with  peppers and onions, no fat added	71403500.206641
71405010	0	Hash_browns_fresh_potatoes	Hash browns, fresh potatoes	71405010.0
71405020	0	Hash_browns_frozen_potatoes	Hash browns, frozen potatoes	71405020.0
71405028	0	Hash_browns_refrigerated_unprepared	Hash browns, refrigerated, unprepared	71405028.0
71405029	0	Hash_browns_frozen_unprepared	Hash browns, frozen, unprepared	71405029.0
71405030	0	Hash_browns_dry_mix_cooked	Hash browns, dry mix, cooked	71405030.0
71405100	0	Hash_browns_with_cheese	Hash browns, with cheese	71405100.0
71410000	0	Potato_skins_fried	Potato skins, fried	71410000.0
71410500	0	Potato_skins_fried_with_cheese	Potato skins, fried, with cheese	71410500.0
71411000	0	Potato_skins_fried_with_cheese_and_bacon	Potato skins, fried, with cheese and bacon	71411000.0
71501010	0	Potatoes_mashed_with_milk	Potatoes, mashed, with milk	71501010.0
71501015	0	Mashed_potatoes_with_milk_and_sour_cream_or_cream_cheese	Mashed potatoes, with milk, and sour cream or cream cheese	71501015.0
71501020	0	Potatoes_mashed_with_milk_and_margarine_or_butter	Potatoes, mashed, with milk and margarine or butter	71501020.0
71501025	0	Mashed_potatoes_with_milk_margarine_or_butter_and_sour_cream_or_cream_cheese	Mashed potatoes, with milk, margarine or butter, and sour cream or cream cheese	71501025.0
71501030	0	Potatoes_mashed_with_margarine	Potatoes, mashed, with margarine	71501030.0
71501040	0	Potato_instant_mashed_with_milk_and_margarine_or_butter	Potato, instant, mashed, with milk and margarine or butter	71501040.0
71501040	206077	Potatoes_instant_mashed_with_milk_and_sour_cream	Potatoes, instant, mashed, with milk and sour cream	71501040.206077
71501050	0	Potato_mashed_with_milk_margarine_or_butter_and_cheese	Potato, mashed, with milk, margarine or butter, and cheese	71501050.0
71501055	0	Mashed_potatoes_with_sour_cream_or_cream_cheese_and_margarine_or_butter	Mashed potatoes, with sour cream or cream cheese and margarine or butter	71501055.0
71501060	0	Potato_instant_mashed_with_milk_margarine_or_butter_and_egg	Potato, instant, mashed, with milk, margarine or butter, and egg	71501060.0
71501070	0	Potatoes_instant_mashed_with_milk_margarine_or_butter_egg_and_cheese	Potatoes, instant, mashed, with milk, margarine or butter, egg and cheese	71501070.0
71501080	0	Potato_mashed_no_milk_or_fat_added	Potato, mashed, no milk or fat added	71501080.0
71501090	0	Potatoes_instant_mashed_with_milk_no_fat_added	Potatoes, instant, mashed, with milk, no fat added	71501090.0
71501200	0	Potato_complete_instant_mix_mashed_with_water	Potato, complete instant mix, mashed, with water	71501200.0
71503010	0	Potato_patty	Potato patty	71503010.0
71505000	0	Potato_puffs_Tater_Tots_	Potato puffs (Tater Tots)	71505000.0
71507005	0	Potato_baked_stuffed_with_butter_or_margarine_peel_not_eaten	Potato, baked, stuffed with butter or margarine, peel not eaten	71507005.0
71507010	0	Potatoes_baked_stuffed_with_sour_cream_peel_not_eaten	Potatoes, baked, stuffed with sour cream, peel not eaten	71507010.0
71507020	0	Potato_baked_stuffed_with_cheese_peel_not_eaten	Potato, baked, stuffed with cheese, peel not eaten	71507020.0
71507030	0	Potatoes_baked_stuffed_with_chili_peel_not_eaten	Potatoes, baked, stuffed with chili, peel not eaten	71507030.0
71507040	0	Potato_baked_stuffed_with_broccoli_and_cheese_sauce_peel_not_eaten	Potato, baked, stuffed with broccoli and cheese sauce, peel not eaten	71507040.0
71507100	0	Potato_baked_stuffed_with_chicken_broccoli_and_cheese_peel_not_eaten	Potato, baked, stuffed, with chicken, broccoli, and cheese, peel not eaten	71507100.0
71508005	0	Potatoes_baked_stuffed_with_butter_or_margarine_peel_eaten	Potatoes, baked, stuffed with butter or margarine, peel eaten	71508005.0
71508010	0	Potato_baked_stuffed_with_sour_cream_peel_eaten	Potato, baked, stuffed with sour cream, peel eaten	71508010.0
71508020	0	Potatoes_baked_stuffed_with_cheese_peel_eaten	Potatoes, baked, stuffed with cheese, peel eaten	71508020.0
71508030	0	Potato_baked_stuffed_with_chili_peel_eaten	Potato, baked, stuffed with chili, peel eaten	71508030.0
71508040	0	Potatoes_baked_stuffed_with_broccoli_and_cheese_sauce_peel_eaten	Potatoes, baked, stuffed with broccoli and cheese sauce, peel eaten	71508040.0
71508060	0	Potato_baked_stuffed_with_bacon_and_cheese_peel_eaten	Potato, baked, stuffed with bacon and cheese, peel eaten	71508060.0
71508070	0	Potatoes_baked_stuffed_with_bacon_and_cheese_peel_not_eaten	Potatoes, baked, stuffed with bacon and cheese, peel not eaten	71508070.0
71508100	0	Potatoes_baked_stuffed_with_chicken_broccoli_and_cheese_peel_eaten	Potatoes, baked, stuffed, with chicken, broccoli, and cheese, peel eaten	71508100.0
71601010	0	Potato_salad_with_egg_with_mayonnaise	Potato salad, with egg, with mayonnaise	71601010.0
71601010	205655	Potato_salad_with_egg_no_dressing	Potato salad, with egg, no dressing	71601010.205655
71601015	0	Potato_salad_with_egg_with_light_mayonnaise	Potato salad, with egg, with light mayonnaise	71601015.0
71601020	0	Potato_salad_with_egg_with_mayonnaise_type_dressing_Miracle_Whip_	Potato salad, with egg, with mayonnaise-type dressing (Miracle Whip)	71601020.0
71601025	0	Potato_salad_with_egg_with_light_mayonnaise_type_dressing_Miracle_Whip_Light_	Potato salad, with egg, with light mayonnaise-type dressing (Miracle Whip Light)	71601025.0
71601030	0	Potato_salad_with_egg_with_creamy_dressing_Ranch_dressing_	Potato salad, with egg, with creamy dressing (Ranch dressing)	71601030.0
71601035	0	Potato_salad_with_egg_with_light_creamy_dressing_Ranch_dressing_	Potato salad, with egg, with light creamy dressing (Ranch dressing)	71601035.0
71601040	0	Potato_salad_with_egg_with_Italian_dressing	Potato salad, with egg, with Italian dressing	71601040.0
71601045	0	Potato_salad_with_egg_with_light_Italian_dressing	Potato salad, with egg, with light Italian dressing	71601045.0
71601050	0	Potato_salad_with_egg_with_any_type_of_fat_free_dressing	Potato salad, with egg, with any type of fat free dressing	71601050.0
71602010	0	Potato_salad_German_style	Potato salad, German style	71602010.0
71603010	0	Potato_salad_with_mayonnaise	Potato salad, with mayonnaise	71603010.0
71603010	200320	Potato_salad_with_fat_free_mayonnaise_type_dressing_Miracle_Whip_Free_	Potato salad, with fat-free mayonnaise-type dressing (Miracle Whip Free)	71603010.200320
71603010	205479	Potato_salad_no_dressing	Potato salad, no dressing	71603010.205479
71603010	205918	Potato_salad_with_sour_cream	Potato salad, with sour cream	71603010.205918
71603015	0	Potato_salad_with_light_mayonnaise	Potato salad, with light mayonnaise	71603015.0
71603020	0	Potato_salad_with_mayonnaise_type_dressing_Miracle_Whip_	Potato salad, with mayonnaise-type dressing (Miracle Whip)	71603020.0
71603025	0	Potato_salad_with_light_mayonnaise_type_dressing_Miracle_Whip_Light_	Potato salad, with light mayonnaise-type dressing (Miracle Whip Light)	71603025.0
71603030	0	Potato_salad_with_creamy_dressing_Ranch_dressing_	Potato salad, with creamy dressing (Ranch dressing)	71603030.0
71603035	0	Potato_salad_with_light_creamy_dressing_Ranch_dressing_	Potato salad, with light creamy dressing (Ranch dressing)	71603035.0
71603040	0	Potato_salad_with_Italian_dressing	Potato salad, with Italian dressing	71603040.0
71603045	0	Potato_salad_with_light_Italian_dressing	Potato salad, with light Italian dressing	71603045.0
71603050	0	Potato_salad_with_any_type_of_fat_free_dressing	Potato salad, with any type of fat free dressing	71603050.0
71701000	0	Potato_pancake	Potato pancake	71701000.0
71703000	0	Potato_stewed_Mexican_style	Potato, stewed, Mexican style	71703000.0
71703040	0	Potatoes_stewed_with_Tomatoes_Mexican_style	Potatoes, stewed with Tomatoes, Mexican style	71703040.0
71704000	0	Potato_stewed_with_Tomatoes_with_vegetable_oil	Potato, stewed with Tomatoes, with vegetable oil	71704000.0
71704000	203049	Potatoes_stewed_with_Tomatoes_no_fat_added	Potatoes, stewed with Tomatoes, no fat added	71704000.203049
71704000	204525	Potato_stewed_with_Tomatoes_with_butter	Potato, stewed with Tomatoes, with butter	71704000.204525
71801010	0	Potato_soup_cream_of_prepared_with_milk	Potato soup, cream of, prepared with milk	71801010.0
71801020	0	Potato_soup_prepared_with_water	Potato soup, prepared with water	71801020.0
71801040	0	Potato_soup_instant_made_from_dry_mix	Potato soup, instant, made from dry mix	71801040.0
71801100	0	Potato_and_cheese_soup	Potato and cheese soup	71801100.0
71802010	0	Macaroni_and_potato_soup	Macaroni and potato soup	71802010.0
71803010	0	Potato_chowder	Potato chowder	71803010.0
71851010	0	Plantain_soup_Puerto_Rican_style	Plantain soup, Puerto Rican style	71851010.0
71899999	0	Cream_of_potato_soup_canned_condensed	Cream of potato soup, canned, condensed	71899999.0
71901010	0	Plantain_green_boiled_with_salt_no_fat_added_	Plantain, green, boiled (with salt, no fat added)	71901010.0
71901110	0	Plantains_green_fried_Puerto_Rican_style	Plantains, green, fried, Puerto Rican style	71901110.0
71905000	0	Plantain_ripe_raw	Plantain, ripe, raw	71905000.0
71905010	0	Plantains_ripe_boiled_with_salt_no_fat_added_	Plantains, ripe, boiled (with salt, no fat added)	71905010.0
71905110	0	Plantain_ripe_fried_Puerto_Rican_style	Plantain, ripe, fried, Puerto Rican style	71905110.0
71905120	0	Plantains_ripe_rolled_in_flour_fried	Plantains, ripe, rolled in flour, fried	71905120.0
71905210	0	Plantains_ripe_candied_Puerto_Rican_style	Plantains, ripe, candied, Puerto Rican style	71905210.0
71905410	0	Plantain_chips	Plantain chips	71905410.0
71910110	0	Green_banana_boiled_with_salt_no_fat_added_	Green banana, boiled (with salt, no fat added)	71910110.0
71910210	0	Green_banana_fried	Green banana, fried	71910210.0
71910310	0	Green_banana_pickled_Puerto_Rican_style	Green banana, pickled, Puerto Rican style	71910310.0
71930100	0	Cassava_yuca_blanca_cooked_with_salt_no_fat_added_	Cassava (yuca blanca), cooked (with salt, no fat added)	71930100.0
71930100	900000	Cassava_yuca_blanca_cooked_no_salt_or_fat_added_	Cassava (yuca blanca), cooked (no salt or fat added)	71930100.900000
71930120	0	Cassava_yuca_blanca_cooked_with_salt_and_margarine_	Cassava (yuca blanca), cooked (with salt and margarine)	71930120.0
71930120	204620	Cassava_yuca_blanca_cooked_with_salt_and_vegetable_oil_	Cassava (yuca blanca), cooked (with salt and vegetable oil)	71930120.204620
71930120	206540	Cassava_yuca_blanca_cooked_with_salt_and_butter_	Cassava (yuca blanca), cooked (with salt and butter)	71930120.206540
71930120	206568	Cassava_yuca_blanca_cooked_fat_added_in_cooking	Cassava (yuca blanca), cooked, fat added in cooking	71930120.206568
71930200	0	Cassava_bread_casabe_	Cassava bread (casabe)	71930200.0
71931010	0	Cassava_with_creole_sauce_Puerto_Rican_style	Cassava with creole sauce, Puerto Rican style	71931010.0
71941120	0	Sweetpotato_white_Puerto_Rican_boiled_with_salt_no_fat_added_	Sweetpotato, white, Puerto Rican, boiled (with salt, no fat added)	71941120.0
71961010	0	Celeriac_cooked	Celeriac, cooked	71961010.0
71962010	0	Taro_Dasheen_boiled_with_salt_no_fat_added_	Taro (Dasheen), boiled (with salt, no fat added)	71962010.0
71962020	206868	Taro_Dasheen_fried_in_vegetable_oil	Taro (Dasheen), fried in vegetable oil	71962020.206868
71962040	0	Taro_Dasheen_baked_with_salt_no_fat_added_	Taro (Dasheen), baked (with salt, no fat added)	71962040.0
71970200	0	Fufu_African_	Fufu (African)	71970200.0
71980100	0	Poi	Poi	71980100.0
71980200	0	Taro_chips	Taro chips	71980200.0
72101100	0	Beet_greens_raw	Beet greens, raw	72101100.0
72101210	0	Beet_greens_cooked_with_salt_no_fat_added_	Beet greens, cooked (with salt, no fat added)	72101210.0
72101210	900000	Beet_greens_cooked_no_salt_or_fat_added_	Beet greens, cooked (no salt or fat added)	72101210.900000
72101220	0	Beet_greens_cooked_with_salt_and_margarine_	Beet greens, cooked (with salt and margarine)	72101220.0
72101220	205607	Beet_greens_cooked_with_salt_and_butter_	Beet greens, cooked (with salt and butter)	72101220.205607
72101220	206365	Beet_greens_cooked_with_salt_and_pork_fat_	Beet greens, cooked (with salt and pork fat)	72101220.206365
72103000	0	Broccoli_rabe_raw	Broccoli rabe, raw	72103000.0
72103020	0	Broccoli_rabe_cooked_with_salt_no_fat_added	Broccoli rabe cooked (with salt), no fat added	72103020.0
72103030	0	Broccoli_rabe_cooked_with_salt_fat_added_in_cooking	Broccoli rabe, cooked (with salt), fat added in cooking	72103030.0
72104100	0	Swiss_chard_raw	Swiss chard, raw	72104100.0
72104210	0	Swiss_chard_cooked_with_salt_no_fat_added_	Swiss chard, cooked (with salt, no fat added)	72104210.0
72104210	900000	Swiss_chard_cooked_no_salt_or_fat_added_	Swiss chard, cooked (no salt or fat added)	72104210.900000
72104220	0	Swiss_chard_cooked_with_salt_and_margarine_	Swiss chard, cooked (with salt and margarine)	72104220.0
72104220	205757	Swiss_chard_cooked_with_salt_and_vegetable_oil_	Swiss chard, cooked (with salt and vegetable oil)	72104220.205757
72107100	0	Collards_raw	Collards, raw	72107100.0
72107211	0	Collards_fresh_cooked_with_salt_no_fat_added_	Collards, fresh, cooked (with salt, no fat added)	72107211.0
72107211	900000	Collards_fresh_cooked_no_salt_or_fat_added_	Collards, fresh, cooked (no salt or fat added)	72107211.900000
72107212	0	Collards_frozen_cooked_with_salt_no_fat_added_	Collards, frozen, cooked (with salt, no fat added)	72107212.0
72107213	0	Collards_canned_cooked_no_fat_added	Collards, canned, cooked, no fat added	72107213.0
72107221	0	Collards_fresh_cooked_with_salt_and_margarine_	Collards, fresh, cooked (with salt and margarine)	72107221.0
72107221	101304	Collards_fresh_cooked_with_salt_and_vegetable_shortening_	Collards, fresh, cooked (with salt and vegetable shortening)	72107221.101304
72107221	205060	Collards_fresh_cooked_with_salt_and_pork_fat_	Collards, fresh, cooked (with salt and pork fat)	72107221.205060
72107221	205540	Collards_fresh_cooked_with_salt_and_vegetable_oil_	Collards, fresh, cooked (with salt and vegetable oil)	72107221.205540
72107221	206631	Collards_fresh_cooked_with_salt_and_butter_	Collards, fresh, cooked (with salt and butter)	72107221.206631
72107222	0	Collards_frozen_cooked_with_salt_and_fat_	Collards, frozen, cooked (with salt and fat)	72107222.0
72107223	0	Collards_canned_cooked_with_margarine	Collards, canned, cooked with margarine	72107223.0
72107223	205829	Collards_canned_cooked_with_vegetable_oil	Collards, canned, cooked with vegetable oil	72107223.205829
72107223	206070	Collards_canned_cooked_with_pork_fat	Collards, canned, cooked with pork fat	72107223.206070
72110100	0	Cress_raw	Cress, raw	72110100.0
72110211	0	Cress_fresh_cooked_with_salt_no_fat_added_	Cress, fresh, cooked (with salt, no fat added)	72110211.0
72110211	900000	Cress_fresh_cooked_no_salt_or_fat_added_	Cress, fresh, cooked (no salt or fat added)	72110211.900000
72110213	0	Cress_canned_cooked_with_salt_no_fat_added_	Cress, canned, cooked (with salt, no fat added)	72110213.0
72110221	0	Cress_fresh_cooked_with_salt_and_margarine_	Cress, fresh, cooked (with salt and margarine)	72110221.0
72110223	0	Cress_canned_cooked_with_salt_and_fat_	Cress, canned, cooked (with salt and fat)	72110223.0
72113100	0	Dandelion_greens_raw	Dandelion greens, raw	72113100.0
72113210	0	Dandelion_greens_cooked_with_salt_no_fat_added_	Dandelion greens, cooked (with salt, no fat added)	72113210.0
72113210	900000	Dandelion_greens_cooked_no_salt_or_fat_added_	Dandelion greens, cooked (no salt or fat added)	72113210.900000
72113220	0	Dandelion_greens_cooked_with_salt_no_fat_added_	Dandelion greens, cooked (with salt, no fat added)	72113220.0
72116000	0	Endive_raw	Endive, raw	72116000.0
72116140	0	Salad_Caesar_with_dressing	Salad, Caesar, with dressing	72116140.0
72116150	0	Salad_Caesar_no_dressing	Salad, Caesar, no dressing	72116150.0
72116210	0	Escarole_cooked_with_salt_no_fat_added_	Escarole, cooked (with salt, no fat added)	72116210.0
72116210	900000	Escarole_cooked_no_salt_or_fat_added_	Escarole, cooked (no salt or fat added)	72116210.900000
72116220	0	Escarole_cooked_with_salt_and_fat_	Escarole, cooked (with salt and fat)	72116220.0
72116230	0	Escarole_creamed	Escarole, creamed	72116230.0
72118211	0	Greens_fresh_cooked_with_salt_no_fat_added_	Greens, fresh, cooked (with salt, no fat added)	72118211.0
72118212	0	Mixed_greens_frozen_cooked_with_salt_no_fat_added_	Mixed greens, frozen, cooked (with salt, no fat added)	72118212.0
72118213	0	Mixed_greens_canned_cooked_with_salt_no_fat_added_	Mixed greens, canned, cooked (with salt, no fat added)	72118213.0
72118221	0	Greens_fresh_cooked_with_salt_and_margarine_	Greens, fresh, cooked (with salt and margarine)	72118221.0
72118221	202128	Greens_fresh_cooked_with_salt_and_vegetable_oil_	Greens, fresh, cooked (with salt and vegetable oil)	72118221.202128
72118221	206263	Greens_fresh_cooked_with_salt_and_animal_fat_	Greens, fresh, cooked (with salt and animal fat)	72118221.206263
72118222	0	Mixed_greens_frozen_cooked_with_salt_and_fat_	Mixed greens, frozen, cooked (with salt and fat)	72118222.0
72118223	0	Mixed_greens_canned_cooked_with_salt_and_fat_	Mixed greens, canned, cooked (with salt and fat)	72118223.0
72118305	0	Chamnamul_Korean_leaf_vegetable_cooked_with_salt_no_fat_added_	Chamnamul (Korean leaf vegetable), cooked (with salt, no fat added)	72118305.0
72118310	0	Chamnamul_Korean_leaf_vegetable_cooked_with_salt_and_fat_	Chamnamul (Korean leaf vegetable), cooked (with salt and fat)	72118310.0
72119211	0	Kale_fresh_cooked_with_salt_no_fat_added_	Kale, fresh, cooked (with salt, no fat added)	72119211.0
72119211	900000	Kale_fresh_cooked_no_salt_or_fat_added_	Kale, fresh, cooked (no salt or fat added)	72119211.900000
72119212	0	Kale_frozen_cooked_with_salt_no_fat_added_	Kale, frozen, cooked (with salt, no fat added)	72119212.0
72119213	0	Kale_canned_cooked_no_fat_added	Kale, canned, cooked, no fat added	72119213.0
72119221	0	Kale_fresh_cooked_with_salt_and_fat_	Kale, fresh, cooked (with salt and fat)	72119221.0
72119221	100780	Kale_fresh_cooked_with_salt_and_vegetable_oil_	Kale, fresh, cooked (with salt and vegetable oil)	72119221.100780
72119221	203185	Kale_fresh_cooked_with_salt_and_butter_	Kale, fresh, cooked (with salt and butter)	72119221.203185
72119221	206033	Kale_fresh_cooked_with_salt_and_pork_fat_	Kale, fresh, cooked (with salt and pork fat)	72119221.206033
72119222	0	Kale_frozen_cooked_with_salt_and_fat_	Kale, frozen, cooked (with salt and fat)	72119222.0
72119223	0	Kale_canned_cooked_with_salt_and_fat_	Kale, canned, cooked (with salt and fat)	72119223.0
72119229	0	Kale_raw	Kale, raw	72119229.0
72120210	0	Lambsquarter_cooked_with_salt_no_fat_added_	Lambsquarter, cooked (with salt, no fat added)	72120210.0
72120220	0	Lambsquarter_cooked_with_salt_and_fat_	Lambsquarter, cooked (with salt and fat)	72120220.0
72121210	0	Mustard_cabbage_cooked_with_salt_no_fat_added_	Mustard cabbage, cooked (with salt, no fat added)	72121210.0
72121210	900000	Mustard_cabbage_cooked_no_salt_or_fat_added_	Mustard cabbage, cooked (no salt or fat added)	72121210.900000
72122100	0	Mustard_greens_raw	Mustard greens, raw	72122100.0
72122211	0	Mustard_greens_fresh_cooked_with_salt_no_fat_added_	Mustard greens, fresh, cooked (with salt, no fat added)	72122211.0
72122211	900000	Mustard_greens_fresh_cooked_no_salt_or_fat_added_	Mustard greens, fresh, cooked (no salt or fat added)	72122211.900000
72122212	0	Mustard_greens_frozen_cooked_with_salt_no_fat_added_	Mustard greens, frozen, cooked (with salt, no fat added)	72122212.0
72122213	0	Mustard_greens_canned_cooked_no_fat_added	Mustard greens, canned, cooked, no fat added	72122213.0
72122221	0	Mustard_greens_fresh_cooked_with_salt_and_margarine_	Mustard greens, fresh, cooked (with salt and margarine)	72122221.0
72122221	100779	Mustard_greens_fresh_cooked_with_salt_and_vegetable_oil_	Mustard greens, fresh, cooked (with salt and vegetable oil)	72122221.100779
72122221	205239	Mustard_greens_fresh_cooked_with_salt_and_animal_fat_	Mustard greens, fresh, cooked (with salt and animal fat)	72122221.205239
72122221	206935	Mustard_greens_fresh_cooked_with_salt_and_butter_	Mustard greens, fresh, cooked (with salt and butter)	72122221.206935
72122222	0	Mustard_greens_frozen_cooked_with_salt_and_fat_	Mustard greens, frozen, cooked (with salt and fat)	72122222.0
72122223	0	Mustard_greens_canned_cooked_with_margarine	Mustard greens, canned, cooked, with margarine	72122223.0
72122223	204189	Mustard_greens_canned_cooked_with_butter	Mustard greens, canned, cooked, with butter	72122223.204189
72122223	206037	Mustard_greens_canned_cooked_with_vegetable_oil	Mustard greens, canned, cooked, with vegetable oil	72122223.206037
72122223	206038	Mustard_greens_canned_cooked_with_animal_fat	Mustard greens, canned, cooked, with animal fat	72122223.206038
72123010	0	Poke_greens_cooked_with_salt_no_fat_added_	Poke greens, cooked (with salt, no fat added)	72123010.0
72123010	900000	Poke_greens_cooked_no_salt_or_fat_added_	Poke greens, cooked (no salt or fat added)	72123010.900000
72123020	0	Poke_greens_cooked_with_salt_and_fat_	Poke greens, cooked (with salt and fat)	72123020.0
72123020	100267	Poke_greens_cooked_with_salt_and_vegetable_oil_	Poke greens, cooked (with salt and vegetable oil)	72123020.100267
72123020	207069	Poke_greens_cooked_with_salt_and_pork_fat_	Poke greens, cooked (with salt and pork fat)	72123020.207069
72124100	0	Radicchio_raw	Radicchio, raw	72124100.0
72125100	0	Spinach_raw	Spinach, raw	72125100.0
72125211	0	Spinach_fresh_cooked_with_salt_no_fat_added_	Spinach, fresh, cooked (with salt, no fat added)	72125211.0
72125211	900000	Spinach_fresh_cooked_no_salt_or_fat_added_	Spinach, fresh, cooked (no salt or fat added)	72125211.900000
72125212	0	Spinach_frozen_cooked_with_salt_no_fat_added_	Spinach, frozen, cooked (with salt, no fat added)	72125212.0
72125212	900000	Spinach_frozen_cooked_no_salt_or_fat_added_	Spinach, frozen, cooked (no salt or fat added)	72125212.900000
72125213	0	Spinach_canned_cooked_no_fat_added	Spinach, canned, cooked, no fat added	72125213.0
72125221	0	Spinach_fresh_cooked_with_salt_and_margarine_	Spinach, fresh, cooked (with salt and margarine)	72125221.0
72125221	100767	Spinach_fresh_cooked_with_salt_and_vegetable_oil_	Spinach, fresh, cooked (with salt and vegetable oil)	72125221.100767
72125221	200172	Spinach_fresh_cooked_with_salt_and_butter_	Spinach, fresh, cooked (with salt and butter)	72125221.200172
72125221	206349	Spinach_fresh_cooked_with_salt_and_pork_fat_	Spinach, fresh, cooked (with salt and pork fat)	72125221.206349
72125222	0	Spinach_frozen_cooked_with_salt_and_margarine_	Spinach, frozen, cooked (with salt and margarine)	72125222.0
72125222	100028	Spinach_frozen_cooked_with_salt_and_butter_	Spinach, frozen, cooked (with salt and butter)	72125222.100028
72125222	202114	Spinach_frozen_cooked_with_salt_and_vegetable_oil_	Spinach, frozen, cooked (with salt and vegetable oil)	72125222.202114
72125222	203258	Spinach_frozen_cooked_with_salt_and_vegetable_shortening_	Spinach, frozen, cooked (with salt and vegetable shortening)	72125222.203258
72125222	205193	Spinach_frozen_cooked_with_salt_and_pork_fat_	Spinach, frozen, cooked (with salt and pork fat)	72125222.205193
72125223	0	Spinach_canned_cooked_with_margarine	Spinach, canned, cooked with margarine	72125223.0
72125223	202807	Spinach_canned_cooked_with_butter	Spinach, canned, cooked with butter	72125223.202807
72125223	206048	Spinach_canned_cooked_with_pork_fat	Spinach, canned, cooked with pork fat	72125223.206048
72125223	206459	Spinach_canned_cooked_with_vegetable_oil	Spinach, canned, cooked with vegetable oil	72125223.206459
72125231	0	Spinach_fresh_creamed	Spinach, fresh, creamed	72125231.0
72125232	0	Spinach_frozen_creamed	Spinach, frozen, creamed	72125232.0
72125233	0	Spinach_canned_creamed	Spinach, canned, creamed	72125233.0
72125240	0	Spinach_souffle	Spinach souffle	72125240.0
72125251	0	Spinach_fresh_cooked_with_cheese_sauce	Spinach, fresh, cooked, with cheese sauce	72125251.0
72125252	0	Spinach_frozen_cooked_with_cheese_sauce	Spinach,frozen, cooked, with cheese sauce	72125252.0
72125253	0	Spinach_canned_cooked_with_cheese_sauce	Spinach, canned, cooked, with cheese sauce	72125253.0
72125260	0	Spinach_and_cheese_casserole	Spinach and cheese casserole	72125260.0
72125310	0	Palak_paneer_Indian_stewed_spinach_and_cheese_	Palak paneer (Indian stewed spinach and cheese)	72125310.0
72125500	0	Saag_chana_Indian_stewed_spinach_and_chickpeas_	Saag chana (Indian stewed spinach and chickpeas)	72125500.0
72126000	0	Taro_leaves_cooked_with_salt_no_fat_added_	Taro leaves, cooked (with salt, no fat added)	72126000.0
72126000	900000	Taro_leaves_cooked_no_salt_or_fat_added_	Taro leaves, cooked (no salt or fat added)	72126000.900000
72127000	0	Thistle_leaves_cooked_with_salt_no_fat_added_	Thistle leaves, cooked (with salt, no fat added)	72127000.0
72128211	0	Turnip_greens_fresh_cooked_with_salt_no_fat_added_	Turnip greens, fresh, cooked (with salt, no fat added)	72128211.0
72128211	900000	Turnip_greens_fresh_cooked_no_salt_or_fat_added_	Turnip greens, fresh, cooked (no salt or fat added)	72128211.900000
72128212	0	Turnip_greens_frozen_cooked_with_salt_no_fat_added_	Turnip greens, frozen, cooked (with salt, no fat added)	72128212.0
72128212	900000	Turnip_greens_frozen_cooked_no_salt_or_fat_added_	Turnip greens, frozen, cooked (no salt or fat added)	72128212.900000
72128213	0	Turnip_greens_canned_cooked_no_fat_added	Turnip greens, canned, cooked, no fat added	72128213.0
72128221	0	Turnip_greens_fresh_cooked_with_salt_and_margarine_	Turnip greens, fresh, cooked (with salt and margarine)	72128221.0
72128221	100962	Turnip_greens_fresh_cooked_with_salt_and_vegetable_oil_	Turnip greens, fresh, cooked (with salt and vegetable oil)	72128221.100962
72128221	200453	Turnip_greens_fresh_cooked_with_salt_and_margarine_	Turnip greens, fresh, cooked (with salt and margarine)	72128221.200453
72128221	205727	Turnip_greens_fresh_cooked_with_salt_and_pork_fat_	Turnip greens, fresh, cooked (with salt and pork fat)	72128221.205727
72128222	0	Turnip_greens_frozen_cooked_with_salt_and_margarine_	Turnip greens, frozen, cooked (with salt and margarine)	72128222.0
72128222	202913	Turnip_greens_frozen_cooked_with_salt_and_vegetable_oil_	Turnip greens, frozen, cooked (with salt and vegetable oil)	72128222.202913
72128222	206198	Turnip_greens_frozen_cooked_with_salt_and_pork_fat_	Turnip greens, frozen, cooked (with salt and pork fat)	72128222.206198
72128223	0	Turnip_greens_canned_cooked_with_margarine	Turnip greens, canned, cooked with margarine	72128223.0
72128223	202778	Turnip_greens_canned_cooked_with_vegetable_oil	Turnip greens, canned, cooked with vegetable oil	72128223.202778
72128223	204188	Turnip_greens_canned_cooked_with_butter	Turnip greens, canned, cooked with butter	72128223.204188
72128223	206045	Turnip_greens_canned_cooked_with_pork_fat	Turnip greens, canned, cooked with pork fat	72128223.206045
72128411	0	Turnip_greens_and_roots_fresh_cooked_with_salt_no_fat_added_	Turnip greens and roots, fresh, cooked (with salt, no fat added)	72128411.0
72128412	0	Turnip_greens_and_roots_frozen_cooked_with_salt_no_fat_added_	Turnip greens and roots, frozen, cooked (with salt, no fat added)	72128412.0
72128413	0	Turnip_greens_and_roots_canned_cooked_with_salt_no_fat_added_	Turnip greens and roots, canned, cooked (with salt, no fat added)	72128413.0
72128421	0	Turnip_greens_and_roots_fresh_cooked_with_salt_and_fat_	Turnip greens and roots, fresh, cooked (with salt and fat)	72128421.0
72128422	0	Turnip_greens_and_roots_frozen_cooked_with_salt_and_fat_	Turnip greens and roots, frozen, cooked (with salt and fat)	72128422.0
72128423	0	Turnip_greens_and_roots_canned_cooked_with_salt_and_fat_	Turnip greens and roots, canned, cooked (with salt and fat)	72128423.0
72128510	0	Turnip_greens_canned_low_sodium_no_fat_added	Turnip greens, canned, low sodium, no fat added	72128510.0
72128520	0	Turnip_greens_canned_low_sodium_with_margarine	Turnip greens, canned, low sodium, with margarine	72128520.0
72128520	207074	Turnip_greens_canned_low_sodium_with_vegetable_oil	Turnip greens, canned, low sodium, with vegetable oil	72128520.207074
72130100	0	Watercress_raw	Watercress, raw	72130100.0
72130200	0	Watercress_cooked_with_salt_no_fat_added_	Watercress, cooked (with salt, no fat added)	72130200.0
72130200	900000	Watercress_cooked_no_salt_or_fat_added_	Watercress, cooked (no salt or fat added)	72130200.900000
72201100	0	Broccoli_raw	Broccoli, raw	72201100.0
72201211	0	Broccoli_fresh_cooked_with_salt_no_fat_added_	Broccoli, fresh, cooked (with salt, no fat added)	72201211.0
72201211	900000	Broccoli_fresh_cooked_no_salt_or_fat_added_	Broccoli, fresh, cooked (no salt or fat added)	72201211.900000
72201212	0	Broccoli_frozen_cooked_with_salt_no_fat_added_	Broccoli, frozen, cooked (with salt, no fat added)	72201212.0
72201212	900000	Broccoli_frozen_cooked_no_salt_or_fat_added_	Broccoli, frozen, cooked (no salt or fat added)	72201212.900000
72201221	0	Broccoli_fresh_cooked_with_salt_and_margarine_	Broccoli, fresh, cooked (with salt and margarine)	72201221.0
72201221	100033	Broccoli_fresh_cooked_with_salt_and_butter_	Broccoli, fresh, cooked (with salt and butter)	72201221.100033
72201221	200428	Broccoli_fresh_cooked_with_salt_and_vegetable_oil	Broccoli, fresh, cooked (with salt and vegetable oil	72201221.200428
72201222	0	Broccoli_frozen_cooked_with_salt_and_margarine_	Broccoli, frozen, cooked (with salt and margarine)	72201222.0
72201222	200439	Broccoli_frozen_cooked_with_salt_and_butter_	Broccoli, frozen, cooked (with salt and butter)	72201222.200439
72201222	202783	Broccoli_frozen_cooked_with_salt_and_vegetable_oil_	Broccoli, frozen, cooked (with salt and vegetable oil)	72201222.202783
72201231	0	Broccoli_fresh_cooked_with_cheese_sauce	Broccoli, fresh, cooked,  with cheese sauce	72201231.0
72201232	0	Broccoli_frozen_cooked_with_cheese_sauce	Broccoli, frozen, cooked,  with cheese sauce	72201232.0
72201241	0	Broccoli_fresh_cooked_with_cream_of_mushroom	Broccoli, fresh, cooked, with cream of mushroom	72201241.0
72201242	0	Broccoli_frozen_cooked_with_cream_of_mushroom	Broccoli, frozen, cooked, with cream of mushroom	72201242.0
72201251	0	Broccoli_fresh_cooked_with_cream_sauce	Broccoli, fresh, cooked, with cream sauce	72201251.0
72201252	0	Broccoli_frozen_cooked_with_cream_sauce	Broccoli, frozen, cooked, with cream sauce	72201252.0
72202010	0	Broccoli_casserole_broccoli_noodles_cream_sauce_	Broccoli casserole (broccoli, noodles, cream sauce)	72202010.0
72202020	0	Broccoli_casserole_broccoli_rice_cheese_and_cream_of_mushroom_	Broccoli casserole (broccoli, rice, cheese, and cream of mushroom)	72202020.0
72202030	0	Broccoli_batter_dipped_and_fried	Broccoli, batter-dipped and fried	72202030.0
72302000	0	Broccoli_soup_made_with_milk	Broccoli soup, made with milk	72302000.0
72302000	202861	Broccoli_soup_made_with_water	Broccoli soup, made with water	72302000.202861
72302100	0	Broccoli_cheese_soup_made_with_milk	Broccoli cheese soup, made with milk	72302100.0
72306000	0	Watercress_and_shrimp_soup	Watercress and shrimp soup	72306000.0
72307000	0	Spinach_soup	Spinach soup	72307000.0
72308000	0	Soup_leafy_greens_with_meat_Asian_style	Soup, leafy greens with meat, Asian style	72308000.0
72308500	0	Soup_leafy_greens_meatless_Asian_style	Soup, leafy greens, meatless, Asian style	72308500.0
73101010	0	Carrots_raw	Carrots, raw	73101010.0
73101019	0	Carrot_baby	Carrot, baby	73101019.0
73101110	0	Carrot_salad_mayonnaise_dressing	Carrot salad, mayonnaise dressing	73101110.0
73101210	0	Carrot_apple_salad_mayonnaise_dressing	Carrot-apple salad,  mayonnaise dressing	73101210.0
73102211	0	Carrots_fresh_cooked_with_salt_no_fat_added_	Carrots, fresh, cooked (with salt, no fat added)	73102211.0
73102211	900000	Carrot_fresh_cooked_no_salt_or_fat_added_	Carrot, fresh, cooked (no salt or fat added)	73102211.900000
73102212	0	Carrot_frozen_cooked_with_salt_no_fat_added_	Carrot, frozen, cooked (with salt, no fat added)	73102212.0
73102212	900000	Carrots_frozen_cooked_no_salt_or_fat_added_	Carrots, frozen, cooked (no salt or fat added)	73102212.900000
73102213	0	Carrots_canned_cooked_no_fat_added	Carrots, canned, cooked, no fat added	73102213.0
73102221	0	Carrots_fresh_cooked_with_salt_and_margarine_	Carrots, fresh, cooked (with salt and margarine)	73102221.0
73102221	100893	Carrot_fresh_cooked_with_salt_and_vegetable_oil_	Carrot, fresh, cooked (with salt and vegetable oil)	73102221.100893
73102221	200135	Carrots_fresh_cooked_with_salt_and_butter_	Carrots, fresh, cooked (with salt and butter)	73102221.200135
73102222	0	Carrots_frozen_cooked_with_salt_and_margarine_	Carrots, frozen, cooked (with salt and margarine)	73102222.0
73102222	200690	Carrot_frozen_cooked_with_salt_and_butter_	Carrot, frozen, cooked (with salt and butter)	73102222.200690
73102222	203014	Carrots_frozen_cooked_with_salt_and_vegetable_oil_	Carrots, frozen, cooked (with salt and vegetable oil)	73102222.203014
73102223	0	Carrots_canned_cooked_with_margarine	Carrots, canned, cooked with margarine	73102223.0
73102223	200521	Carrot_canned_cooked_with_butter	Carrot, canned, cooked with butter	73102223.200521
73102223	206135	Carrots_canned_cooked_with_vegetable_oil	Carrots, canned, cooked with vegetable oil	73102223.206135
73102231	0	Carrots_fresh_cooked_creamed	Carrots, fresh, cooked, creamed	73102231.0
73102232	0	Carrot_frozen_cooked_creamed	Carrot, frozen, cooked, creamed	73102232.0
73102233	0	Carrots_canned_cooked_creamed	Carrots, canned, cooked, creamed	73102233.0
73102241	0	Carrot_fresh_cooked_glazed_with_margarine	Carrot, fresh, cooked, glazed, with margarine	73102241.0
73102241	202781	Carrots_fresh_cooked_glazed_with_butter	Carrots, fresh, cooked, glazed, with butter	73102241.202781
73102241	203489	Carrot_fresh_cooked_glazed_no_fat_added	Carrot, fresh, cooked, glazed, no fat added	73102241.203489
73102242	0	Carrot_frozen_cooked_glazed_with_margarine	Carrot, frozen, cooked, glazed, with margarine	73102242.0
73102242	206653	Carrots_frozen_cooked_glazed_no_fat_added	Carrots, frozen, cooked, glazed, no fat added	73102242.206653
73102242	207108	Carrot_frozen_cooked_glazed_with_butter	Carrot, frozen, cooked, glazed, with butter	73102242.207108
73102243	0	Carrots_canned_cooked_glazed_with_margarine	Carrots, canned, cooked, glazed, with margarine	73102243.0
73102243	200364	Carrot_canned_cooked_glazed_with_butter	Carrot, canned, cooked, glazed, with butter	73102243.200364
73102243	203374	Carrots_canned_cooked_glazed_no_fat_added	Carrots, canned, cooked, glazed, no fat added	73102243.203374
73102251	0	Carrot_fresh_cooked_with_cheese_sauce	Carrot, fresh, cooked, with cheese sauce	73102251.0
73102252	0	Carrots_frozen_cooked_with_cheese_sauce	Carrots, frozen, cooked, with cheese sauce	73102252.0
73102253	0	Carrots_canned_cooked_with_cheese_sauce	Carrots, canned, cooked, with cheese sauce	73102253.0
73103010	0	Carrot_canned_low_sodium_no_fat_added	Carrot, canned, low sodium, no fat added	73103010.0
73103020	0	Carrots_canned_low_sodium_fat_added_in_cooking	Carrots, canned, low sodium, fat added in cooking	73103020.0
73105010	0	Carrot_juice	Carrot juice	73105010.0
73111031	0	Peas_and_carrots_fresh_creamed	Peas and carrots, fresh, creamed	73111031.0
73111032	0	Peas_and_carrots_frozen_creamed	Peas and carrots, frozen, creamed	73111032.0
73111033	0	Peas_and_carrots_canned_creamed	Peas and carrots, canned, creamed	73111033.0
73111211	0	Peas_and_carrots_fresh_cooked_with_salt_no_fat_added_	Peas and carrots, fresh, cooked (with salt, no fat added)	73111211.0
73111212	0	Peas_and_carrots_frozen_cooked_with_salt_no_fat_added_	Peas and carrots, frozen, cooked, (with salt, no fat added)	73111212.0
73111212	900000	Peas_and_carrots_frozen_cooked_no_salt_or_fat_added_	Peas and carrots, frozen, cooked, (no salt or fat added)	73111212.900000
73111213	0	Peas_and_carrots_canned_cooked_no_fat_added	Peas and carrots, canned, cooked, no fat added	73111213.0
73111221	0	Peas_and_carrots_fresh_cooked_with_salt_and_margarine_	Peas and carrots, fresh, cooked (with salt and margarine)	73111221.0
73111221	101207	Peas_and_carrots_fresh_cooked_with_salt_and_butter_	Peas and carrots, fresh, cooked (with salt and butter)	73111221.101207
73111221	205966	Peas_and_carrots_fresh_cooked_with_salt_and_vegetable_oil_	Peas and carrots, fresh, cooked (with salt and vegetable oil)	73111221.205966
73111222	0	Peas_and_carrots_frozen_cooked_with_salt_and_margarine_	Peas and carrots, frozen, cooked (with salt and margarine)	73111222.0
73111222	202026	Peas_and_carrots_frozen_cooked_with_salt_and_butter_	Peas and carrots, frozen, cooked (with salt and butter)	73111222.202026
73111222	206206	Peas_and_carrots_frozen_cooked_with_salt_and_vegetable_oil_	Peas and carrots, frozen, cooked (with salt and vegetable oil)	73111222.206206
73111223	0	Peas_and_carrots_canned_cooked_with_margarine	Peas and carrots, canned, cooked with margarine	73111223.0
73111223	202254	Peas_and_carrots_canned_cooked_with_butter	Peas and carrots, canned, cooked with butter	73111223.202254
73111260	0	Peas_and_carrots_canned_low_sodium_fat_added_in_cooking	Peas and carrots, canned, low sodium, fat added in cooking	73111260.0
73111270	0	Peas_and_carrots_canned_low_sodium_no_fat_added	Peas and carrots, canned, low sodium, no fat added	73111270.0
73112000	0	Carrot_chips_dried	Carrot chips, dried	73112000.0
73201011	0	Pumpkin_fresh_cooked_with_salt_no_fat_added_	Pumpkin, fresh, cooked (with salt, no fat added)	73201011.0
73201011	900000	Pumpkin_fresh_cooked_no_salt_or_fat_added_	Pumpkin, fresh, cooked (no salt or fat added)	73201011.900000
73201012	0	Pumpkin_frozen_cooked_with_salt_no_fat_added_	Pumpkin, frozen, cooked  (with salt, no fat added)	73201012.0
73201012	900000	Pumpkin_frozen_cooked_no_salt_or_fat_added_	Pumpkin, frozen, cooked  (no salt or fat added)	73201012.900000
73201013	0	Pumpkin_canned_cooked_no_fat_added	Pumpkin, canned, cooked, no fat added	73201013.0
73201021	0	Pumpkin_fresh_cooked_with_salt_and_fat_	Pumpkin, fresh, cooked (with salt and fat)	73201021.0
73201022	0	Pumpkin_frozen_cooked_with_salt_and_fat_	Pumpkin, frozen, cooked (with salt and fat)	73201022.0
73201023	0	Pumpkin_canned_cooked_with_salt_and_fat_	Pumpkin, canned, cooked (with salt and fat)	73201023.0
73210010	0	Calabaza_Spanish_pumpkin_cooked	Calabaza (Spanish pumpkin), cooked	73210010.0
73210110	0	Pumpkin_fritters_Puerto_Rican_style	Pumpkin fritters, Puerto Rican style	73210110.0
73299999	0	Pumpkin_pie_mix_canned	Pumpkin pie mix, canned	73299999.0
73301010	0	Squash_winter_mashed_with_salt_no_fat_or_sugar_added_	Squash, winter, mashed (with salt, no fat or sugar added)	73301010.0
73301010	900000	Squash_winter_mashed_no_salt_fat_or_sugar_added_	Squash, winter, mashed (no salt, fat, or sugar added)	73301010.900000
73301020	0	Squash_winter_mashed_with_salt_and_margarine_no_sugar_added_	Squash, winter, mashed (with salt and margarine, no sugar added)	73301020.0
73301020	101188	Squash_winter_mashed_with_salt_and_vegetable_oil_no_sugar_added_	Squash, winter, mashed (with salt and vegetable oil, no sugar added)	73301020.101188
73301020	200813	Squash_winter_mashed_with_salt_and_butter_no_sugar_added_	Squash, winter, mashed (with salt and butter, no sugar added)	73301020.200813
73301030	0	Squash_winter_mashed_with_salt_margarine_and_sugar_added_	Squash, winter, mashed (with salt, margarine, and sugar added)	73301030.0
73301030	101146	Squash_winter_mashed_with_salt_butter_and_sugar_added_	Squash, winter, mashed (with salt, butter, and sugar added)	73301030.101146
73302016	0	Squash_spaghetti_raw	Squash, spaghetti, raw	73302016.0
73302017	0	Squash_butternut_raw	Squash, butternut, raw	73302017.0
73302018	0	Squash_acorn_raw	Squash, acorn, raw	73302018.0
73302019	0	Squash_winter_raw	Squash, winter, raw	73302019.0
73303010	0	Squash_winter_baked_with_salt_no_fat_or_sugar_added_	Squash, winter, baked (with salt, no fat or sugar added)	73303010.0
73303010	900000	Squash_winter_baked_no_salt_fat_or_sugar_added_	Squash, winter, baked (no salt, fat, or sugar added)	73303010.900000
73303020	0	Squash_winter_baked_with_salt_and_margarine_no_sugar_added_	Squash, winter, baked (with salt and margarine, no sugar added)	73303020.0
73303020	100430	Squash_winter_baked_with_salt_and_butter_no_sugar_added_	Squash, winter, baked (with salt and butter, no sugar added)	73303020.100430
73303020	204949	Squash_winter_baked_with_salt_and_vegetable_oil_no_sugar_added_	Squash, winter, baked (with salt and vegetable oil, no sugar added)	73303020.204949
73303030	0	Squash_winter_baked_with_salt_margarine_and_sugar_added_	Squash, winter, baked (with salt, margarine, and sugar added)	73303030.0
73303030	201516	Squash_winter_baked_with_salt_butter_and_sugar_added_	Squash, winter, baked (with salt, butter, and sugar added)	73303030.201516
73303040	0	Squash_winter_baked_with_salt_and_sugar_no_fat_added_	Squash, winter, baked (with salt and sugar, no fat added)	73303040.0
73304010	0	Fried_squash_fritters	Fried squash fritters	73304010.0
73305020	0	Squash_winter_souffle	Squash, winter, souffle	73305020.0
73401500	0	Sweet_potato_raw	Sweet potato, raw	73401500.0
73402010	0	Sweet_potatoes_yams_baked_peel_eaten_with_salt_no_fat_added_	Sweet potatoes (yams), baked, peel eaten (with salt, no fat added)	73402010.0
73402010	900000	Sweet_potatoes_yams_baked_peel_eaten_no_salt_or_fat_added_	Sweet potatoes (yams), baked, peel eaten (no salt or fat added)	73402010.900000
73402020	0	Sweet_potatoes_yams_baked_peel_eaten_with_salt_and_fat_	Sweet potatoes (yams), baked, peel eaten (with salt and fat)	73402020.0
73403010	0	Sweet_potatoes_yams_baked_peel_not_eaten_with_salt_no_fat_added_	Sweet potatoes (yams), baked, peel not eaten (with salt, no fat added)	73403010.0
73403010	900000	Sweet_potatoes_yams_baked_peel_not_eaten_no_salt_or_fat_added_	Sweet potatoes (yams), baked, peel not eaten (no salt or fat added)	73403010.900000
73403020	0	Sweet_potatoes_yams_baked_peel_not_eaten_with_salt_and_fat_	Sweet potatoes (yams), baked, peel not eaten, (with salt and fat)	73403020.0
73405010	0	Sweet_potatoes_yams_boiled_without_peel_with_salt_no_fat_added_	Sweet potatoes (yams), boiled, without peel (with salt, no fat added)	73405010.0
73405010	900000	Sweet_potatoes_yams_boiled_without_peel_no_salt_or_fat_added_	Sweet potatoes (yams), boiled, without peel (no salt or fat added)	73405010.900000
73405020	0	Sweet_potatoes_yams_boiled_without_peel_with_salt_and_fat_	Sweet potatoes (yams), boiled, without peel (with salt and fat)	73405020.0
73405110	0	Sweet_potatoes_yams_boiled_with_peel_peel_not_eaten_with_salt_no_fat_added_	Sweet potatoes (yams), boiled with peel, peel not eaten (with salt, no fat added)	73405110.0
73405120	0	Sweet_potatoes_yams_boiled_with_peel_peel_not_eaten_with_salt_and_fat_	Sweet potatoes (yams), boiled with peel, peel not eaten (with salt and fat)	73405120.0
73406000	0	Sweet_potatoes_yams_candied_with_margarine	Sweet potatoes (yams), candied, with margarine	73406000.0
73406000	200329	Sweet_potatoes_yams_candied_with_butter	Sweet potatoes (yams), candied, with butter	73406000.200329
73406000	201103	Sweet_potatoes_yams_candied_no_fat_added	Sweet potatoes (yams), candied, no fat added	73406000.201103
73407010	0	Sweet_potatoes_yams_canned_without_syrup	Sweet potatoes (yams), canned without syrup	73407010.0
73407020	0	Sweet_potatoes_yams_canned_in_syrup	Sweet potatoes (yams), canned in syrup	73407020.0
73407030	0	Sweet_potatoes_yams_canned_in_syrup_with_fat_added	Sweet potatoes (yams), canned in syrup, with fat added	73407030.0
73409000	0	Sweet_potatoes_yams_mashed_with_salt_and_margarine_	Sweet potatoes (yams), mashed (with salt and margarine)	73409000.0
73409000	201590	Sweet_potatoes_yams_mashed_with_salt_no_fat_added_	Sweet potatoes (yams), mashed (with salt, no fat added)	73409000.201590
73409000	204911	Sweet_potatoes_yams_mashed_with_salt_and_butter_	Sweet potatoes (yams), mashed (with salt and butter)	73409000.204911
73410110	0	Sweet_potatoes_yams_fried	Sweet potatoes (yams), fried	73410110.0
73410110	101135	Sweet_potatoes_yams_fried_with_vegetable_oil	Sweet potatoes (yams), fried, with vegetable oil	73410110.101135
73410210	0	Sweet_potato_chips	Sweet potato, chips	73410210.0
73410300	0	Sweet_potato_fries	Sweet potato fries	73410300.0
73421000	0	Sweet_potato_yellow_cooked_with_salt_	Sweet potato, yellow, cooked (with salt)	73421000.0
73501000	0	Cream_of_carrot_soup	Cream of carrot soup	73501000.0
74101000	0	Tomatoes_raw	Tomatoes, raw	74101000.0
74101400	0	Tomatoes_cherry	Tomatoes, cherry	74101400.0
74101450	0	Tomato_grape	Tomato, grape	74101450.0
74102000	0	Tomato_green_raw	Tomato, green, raw	74102000.0
74202011	0	Tomatoes_from_fresh_broiled	Tomatoes, from fresh, broiled	74202011.0
74202051	0	Tomato_red_from_fresh_fried	Tomato, red, from fresh, fried	74202051.0
74203011	0	Tomatoes_fresh_scalloped	Tomatoes, fresh, scalloped	74203011.0
74204011	0	Tomato_fresh_stewed	Tomato, fresh, stewed	74204011.0
74204013	0	Tomatoes_canned_stewed	Tomatoes, canned, stewed	74204013.0
74204500	0	Tomato_canned_low_sodium	Tomato, canned, low sodium	74204500.0
74204599	0	Tomato_canned_diced	Tomato, canned, diced	74204599.0
74205010	207184	Tomatoes_green_fried_with_margarine	Tomatoes, green, fried, with margarine	74205010.207184
74205011	0	Tomato_green_cooked_with_vegetable_oil	Tomato, green, cooked, with vegetable oil	74205011.0
74205011	205507	Tomatoes_green_fried_with_pork_fat	Tomatoes, green, fried, with pork fat	74205011.205507
74205011	206374	Tomato_green_cooked_with_salt_no_fat_added_	Tomato, green, cooked (with salt, no fat added)	74205011.206374
74205020	0	Tomatoes_green_pickled	Tomatoes, green, pickled	74205020.0
74206000	0	Tomato_red_dried	Tomato, red, dried	74206000.0
74301100	0	Tomato_juice	Tomato juice	74301100.0
74301150	0	Tomato_juice_low_sodium	Tomato juice, low sodium	74301150.0
74302000	0	Tomato_juice_cocktail	Tomato juice cocktail	74302000.0
74303000	0	Tomato_and_vegetable_juice_V8_	Tomato and vegetable juice (V8)	74303000.0
74303100	0	Tomato_and_vegetable_juice_V8_low_sodium	Tomato and vegetable juice (V8), low sodium	74303100.0
74304000	0	Tomato_juice_with_clam_or_beef_juice	Tomato juice with clam or beef juice	74304000.0
74401010	0	Tomato_catsup_ketchup_	Tomato catsup (ketchup)	74401010.0
74401110	0	Tomato_catsup_low_sodium_ketchup_	Tomato catsup, low sodium (ketchup)	74401110.0
74402010	0	Tomato_chili_sauce_catsup_type_	Tomato chili sauce (catsup-type)	74402010.0
74402020	0	Sriracha_chili_sauce	Sriracha chili sauce	74402020.0
74402110	0	Salsa_red_uncooked	Salsa, red, uncooked	74402110.0
74402120	0	Pico_de_Gallo	Pico de Gallo	74402120.0
74402150	0	Salsa_red_cooked_ready_to_serve	Salsa, red, cooked, ready-to-serve	74402150.0
74402200	0	Salsa_red_cooked_homemade	Salsa, red, cooked, homemade	74402200.0
74402250	0	Enchilada_sauce_red	Enchilada sauce, red	74402250.0
74402260	0	Enchilada_sauce_green	Enchilada sauce, green	74402260.0
74402300	0	Salsa_made_with_mango	Salsa, made with mango	74402300.0
74402310	0	Green_Tomato_chile_sauce_raw_salsa_verde_	Green Tomato chile sauce, raw (salsa verde)	74402310.0
74402350	0	Green_Tomato_chile_sauce_cooked_salsa_verde_	Green Tomato chile sauce, cooked (salsa verde)	74402350.0
74403010	0	Tomato_sauce	Tomato sauce	74403010.0
74403050	0	Tomato_sauce_low_sodium	Tomato sauce, low sodium	74403050.0
74403110	0	Tomato_paste	Tomato paste	74403110.0
74403120	0	Tomato_puree	Tomato puree	74403120.0
74404010	0	Spaghetti_sauce_marinara_meatless	Spaghetti sauce (marinara), meatless	74404010.0
74404020	0	Spaghetti_sauce_with_vegetables_homemade_style	Spaghetti sauce, with vegetables, homemade-style	74404020.0
74404030	0	Spaghetti_sauce_with_meat	Spaghetti sauce, with meat	74404030.0
74404070	0	Spaghetti_sauce_marinara_meatless_low_sodium	Spaghetti sauce (marinara), meatless, low sodium	74404070.0
74404090	0	Vodka_flavored_pasta_sauce_made_with_tomatoes_and_cream	Vodka flavored pasta sauce made with tomatoes and cream	74404090.0
74404100	0	Tomato_paste_low_sodium	Tomato paste, low sodium	74404100.0
74405010	0	Tomato_relish	Tomato relish	74405010.0
74406010	0	Barbeque_bbq_sauce	Barbeque (bbq) sauce	74406010.0
74406050	0	Barbecue_bbq_sauce_low_sodium	Barbecue (bbq) sauce, low sodium	74406050.0
74406100	0	Steak_sauce_Tomatoes_based	Steak sauce, Tomatoes-based	74406100.0
74406200	0	Taco_sauce_red	Taco sauce, red	74406200.0
74406500	0	Cocktail_sauce	Cocktail sauce	74406500.0
74501010	0	Tomato_aspic	Tomato aspic	74501010.0
74502010	0	Tomatoes_and_lima_beans_cooked_with_salt_no_fat_added_	Tomatoes and lima beans, cooked (with salt, no fat added)	74502010.0
74503010	0	Tomatoes_and_corn_cooked_with_salt_no_fat_added_	Tomatoes and corn, cooked (with salt, no fat added)	74503010.0
74504010	0	Tomatoes_and_okra_cooked_with_salt_no_fat_added_	Tomatoes and okra, cooked (with salt, no fat added)	74504010.0
74504020	0	Tomatoes_and_okra_cooked_with_salt_and_fat_	Tomatoes and okra, cooked (with salt and fat)	74504020.0
74504110	0	Tomatoes_and_onion_cooked_with_salt_no_fat_added_	Tomatoes and onion, cooked (with salt, no fat added)	74504110.0
74504120	0	Tomatoes_and_onion_cooked_with_salt_and_margarine_	Tomatoes and onion, cooked (with salt and margarine)	74504120.0
74504120	100748	Tomatoes_and_onion_cooked_with_salt_and_vegetable_oil_	Tomatoes and onion, cooked (with salt and vegetable oil)	74504120.100748
74504120	205076	Tomatoes_and_onion_cooked_with_salt_and_pork_fat_	Tomatoes and onion, cooked (with salt and pork fat)	74504120.205076
74504120	206474	Tomatoes_and_onion_cooked_with_salt_and_butter_	Tomatoes and onion, cooked (with salt and butter)	74504120.206474
74505010	0	Tomatoes_with_corn_and_okra_cooked_with_salt_no_fat_added_	Tomatoes with corn and okra, cooked (with salt, no fat added)	74505010.0
74505020	0	Tomatoes_with_corn_and_okra_cooked_with_salt_and_margarine_	Tomatoes with corn and okra, cooked (with salt and margarine)	74505020.0
74505020	207030	Tomatoes_with_corn_and_okra_cooked_with_butter	Tomatoes with corn and okra, cooked with butter	74505020.207030
74506000	0	Tomato_and_cucumber_salad_with_oil_and_vinegar	Tomato and cucumber salad, with oil, and vinegar	74506000.0
74601010	0	Tomato_soup_cream_of_prepared_with_milk	Tomato soup, cream of, prepared with milk	74601010.0
74602010	0	Tomato_soup_prepared_with_water	Tomato soup, prepared with water	74602010.0
74602030	0	Tomato_soup_canned_undiluted	Tomato soup, canned, undiluted	74602030.0
74602050	0	Tomato_soup_instant_prepared_with_water	Tomato soup, instant, prepared with water	74602050.0
74602100	0	Tomato_soup_canned_low_sodium_ready_to_serve	Tomato soup, canned, low sodium, ready-to-serve	74602100.0
74602200	0	Tomato_soup_canned_reduced_sodium_prepared_with_water	Tomato soup, canned, reduced sodium, prepared with water	74602200.0
74602300	0	Tomato_soup_canned_reduced_sodium_prepared_with_milk	Tomato soup, canned, reduced sodium, prepared with milk	74602300.0
74603010	0	Tomato_beef_soup_prepared_with_water	Tomato beef soup, prepared with water	74603010.0
74604010	0	Tomato_beef_noodle_soup_prepared_with_water	Tomato beef noodle soup, prepared with water	74604010.0
74604100	0	Tomato_beef_rice_soup_prepared_with_water	Tomato beef rice soup, prepared with water	74604100.0
74604500	0	Tomato_noodle_soup_prepared_with_water	Tomato noodle soup, prepared with water	74604500.0
74604600	0	Tomato_noodle_soup_cream_of	Tomato noodle soup, cream of	74604600.0
74605000	0	Tomato_rice_soup_canned_undiluted	Tomato rice soup, canned, undiluted	74605000.0
74605010	0	Tomato_rice_soup_prepared_with_water	Tomato rice soup, prepared with water	74605010.0
74606010	0	Tomato_vegetable_soup_prepared_with_water	Tomato vegetable soup, prepared with water	74606010.0
74606020	0	Tomato_vegetable_soup_with_noodles_prepared_with_water	Tomato vegetable soup with noodles, prepared with water	74606020.0
74701000	0	Tomato_sandwich	Tomato sandwich	74701000.0
75100500	0	Alfalfa_sprouts_raw	Alfalfa sprouts, raw	75100500.0
75100750	0	Artichoke_Jerusalem_raw	Artichoke, Jerusalem, raw	75100750.0
75100800	0	Asparagus_raw	Asparagus, raw	75100800.0
75101000	0	Bean_sprouts_raw_soybean_or_mung_	Bean sprouts, raw (soybean or mung)	75101000.0
75101800	0	Beans_green_string_raw	Beans, green (string), raw	75101800.0
75102000	0	Beans_lima_raw	Beans, lima, raw	75102000.0
75102500	0	Beets_raw	Beets, raw	75102500.0
75102600	0	Broccoflower_raw	Broccoflower, raw	75102600.0
75102750	0	Brussels_sprouts_raw	Brussels sprouts, raw	75102750.0
75103000	0	Cabbage_green_raw	Cabbage, green, raw	75103000.0
75104000	0	Cabbage_Chinese_Bok_Choy_raw	Cabbage, Chinese (Bok Choy), raw	75104000.0
75105000	0	Cabbage_red_raw	Cabbage, red, raw	75105000.0
75105500	0	Cactus_raw	Cactus, raw	75105500.0
75106000	0	Cabbage_white_raw	Cabbage, white, raw	75106000.0
75107000	0	Cauliflower_raw	Cauliflower, raw	75107000.0
75109000	0	Celery_raw	Celery, raw	75109000.0
75109010	0	Fennel_bulb_raw	Fennel bulb, raw	75109010.0
75109500	0	Chives_raw	Chives, raw	75109500.0
75109550	0	Cilantro_raw	Cilantro, raw	75109550.0
75109560	0	Cilantro_dried	Cilantro, dried	75109560.0
75109600	0	Corn_raw	Corn, raw	75109600.0
75111000	0	Cucumber_raw	Cucumber, raw	75111000.0
75111200	0	Eggplant_raw	Eggplant, raw	75111200.0
75111500	0	Garlic_raw	Garlic, raw	75111500.0
75111800	0	Jicama_raw	Jicama, raw	75111800.0
75112000	0	Kohlrabi_raw	Kohlrabi, raw	75112000.0
75112500	0	Leek_raw	Leek, raw	75112500.0
75113000	0	Lettuce_iceberg_raw	Lettuce, iceberg, raw	75113000.0
75113060	0	Lettuce_butterhead_Boston_or_bibb_raw	Lettuce, butterhead (Boston or bibb), raw	75113060.0
75113070	0	Lettuce_green_or_red_leaf	Lettuce, green or red leaf	75113070.0
75113080	0	Lettuce_arugula_raw	Lettuce, arugula, raw	75113080.0
75114000	0	Lettuce_mixed_mixed_greens_salad_mix_spring_mix_raw	Lettuce, mixed (mixed greens, salad mix, spring mix), raw	75114000.0
75115000	0	Mushrooms_raw	Mushrooms, raw	75115000.0
75115008	0	Mushroom_portabella_grilled	Mushroom, portabella, grilled	75115008.0
75115009	0	Mushroom_portabella_raw	Mushroom, portabella, raw	75115009.0
75115500	0	Mushrooms_button	Mushrooms, button	75115500.0
75115550	0	Mushroom_cremini	Mushroom, cremini	75115550.0
75117010	0	Onions_green_raw	Onions, green, raw	75117010.0
75117020	0	Onion_raw	Onion, raw	75117020.0
75119000	0	Parsley_raw	Parsley, raw	75119000.0
75120000	0	Peas_green_raw	Peas, green, raw	75120000.0
75121000	0	Pepper_hot_chili_raw	Pepper, hot chili, raw	75121000.0
75121009	0	Chili_powder	Chili powder	75121009.0
75121400	0	Pepper_poblano_raw	Pepper, poblano, raw	75121400.0
75121500	0	Peppers_Serrano_raw	Peppers, Serrano, raw	75121500.0
75122100	0	Pepper_sweet_green_raw	Pepper, sweet, green, raw	75122100.0
75122200	0	Peppers_sweet_red_raw	Peppers, sweet, red, raw	75122200.0
75124000	0	Peppers_banana_raw	Peppers, banana, raw	75124000.0
75124099	0	Yellow_pepper_raw	Yellow pepper, raw	75124099.0
75125000	0	Radishes_raw	Radishes, raw	75125000.0
75127000	0	Rutabaga_raw	Rutabaga, raw	75127000.0
75127500	0	Seaweed_raw	Seaweed, raw	75127500.0
75127750	0	Snow_peas_sugar_snap_peas_raw	Snow peas (sugar snap peas), raw	75127750.0
75128000	0	Squash_yellow_raw	Squash, yellow, raw	75128000.0
75128010	0	Zucchini_raw	Zucchini, raw	75128010.0
75129000	0	Turnip_raw	Turnip, raw	75129000.0
75132000	0	Mixed_vegetable_juice_vegetables_other_than_Tomatoes_	Mixed vegetable juice (vegetables other than Tomatoes)	75132000.0
75132100	0	Celery_juice	Celery juice	75132100.0
75140500	0	Broccoli_salad_with_bacon_cheese_onion_and_dressing	Broccoli salad, with bacon, cheese, onion and dressing	75140500.0
75140510	0	Broccoli_slaw	Broccoli slaw	75140510.0
75140990	0	Coleslaw_cabbage_salad_from_fast_food_restaurant	Coleslaw (cabbage salad), from fast food/restaurant	75140990.0
75141000	0	Coleslaw_cabbage_salad_with_mayonnaise_dressing	Coleslaw (cabbage salad), with mayonnaise dressing	75141000.0
75141000	100440	Coleslaw_cabbage_salad_with_coleslaw_dressing	Coleslaw (cabbage salad), with coleslaw dressing	75141000.100440
75141000	100532	Coleslaw_cabbage_salad_with_vinegar_dressing	Coleslaw (cabbage salad), with vinegar dressing	75141000.100532
75141000	200310	Coleslaw_cabbage_salad_with_mayonnaise_type_dressing_Miracle_Whip_	Coleslaw (cabbage salad), with mayonnaise-type dressing (Miracle Whip)	75141000.200310
75141000	201852	Coleslaw_cabbage_salad_with_light_mayonnaise_dressing	Coleslaw (cabbage salad), with light mayonnaise dressing	75141000.201852
75141005	0	Coleslaw_cabbage_salad_with_light_coleslaw_dressing	Coleslaw (cabbage salad), with light coleslaw dressing	75141005.0
75141020	0	Coleslaw_cabbage_salad_with_Italian_dressing	Coleslaw (cabbage salad), with Italian dressing	75141020.0
75141025	0	Coleslaw_cabbage_salad_with_light_Italian_dressing	Coleslaw (cabbage salad), with light Italian dressing	75141025.0
75141030	0	Coleslaw_cabbage_salad_with_creamy_dressing_Ranch_dressing_	Coleslaw (cabbage salad), with creamy dressing (Ranch dressing)	75141030.0
75141035	0	Coleslaw_cabbage_salad_with_light_creamy_dressing_Ranch_dressing_	Coleslaw (cabbage salad), with light creamy dressing (Ranch dressing)	75141035.0
75141040	0	Coleslaw_cabbage_salad_with_any_type_of_fat_free_dressing	Coleslaw (cabbage salad), with any type of fat free dressing	75141040.0
75141100	0	Coleslaw_cabbage_salad_with_apples_and_raisins_with_mayonnaise_dressing	Coleslaw (cabbage salad), with apples and raisins, with mayonnaise dressing	75141100.0
75141100	206779	Coleslaw_cabbage_salad_with_apples_and_raisins_with_light_mayonnaise_type_dressing_Miracle_Whip_Light_	Coleslaw (cabbage salad), with apples and raisins, with light mayonnaise-type dressing (Miracle Whip Light)	75141100.206779
75141200	0	Coleslaw_cabbage_salad_with_pineapple_with_mayonnaise	Coleslaw (cabbage salad), with pineapple, with mayonnaise	75141200.0
75141200	206732	Coleslaw_cabbage_salad_with_pineapple_with_mayonnaise_type_dressing_Miracle_Whip_	Coleslaw (cabbage salad), with pineapple, with mayonnaise-type dressing (Miracle Whip)	75141200.206732
75141200	207092	Coleslaw_cabbage_salad_with_pineapple_with_light_mayonnaise_dressing	Coleslaw (cabbage salad), with pineapple, with light mayonnaise dressing	75141200.207092
75141300	0	Cabbage_salad_Chinese_with_carrots_ramen_noodles_sesame_seeds_and_dressing	Cabbage salad, Chinese, with carrots, ramen noodles, sesame seeds, and dressing	75141300.0
75142000	0	Cucumber_and_vegetable_namasu	Cucumber and vegetable namasu	75142000.0
75142500	0	Cucumber_salad_with_creamy_dressing	Cucumber salad, with creamy dressing	75142500.0
75142500	206821	Cucumber_salad_with_yogurt_dressing	Cucumber salad, with yogurt dressing	75142500.206821
75142500	207529	Cucumber_salad_with_French_dressing	Cucumber salad, with French dressing	75142500.207529
75142550	0	Cucumber_salad_with_oil_and_vinegar_dressing	Cucumber salad, with oil and vinegar dressing	75142550.0
75142600	0	Cucumber_salad_with_vinegar_dressing	Cucumber salad, with  vinegar dressing	75142600.0
75143000	0	Salad_garden_lettuce_tomato_carrots_no_dressing	Salad, garden, lettuce, tomato, carrots, no dressing	75143000.0
75143100	0	Salad_garden_avocado_lettuce_tomato_carrots_no_dressing	Salad, garden, avocado, lettuce, tomato, carrots, no dressing	75143100.0
75143200	0	Salad_garden_cheese_lettuce_tomato_carrots_no_dressing	Salad, garden, cheese, lettuce, tomato, carrots, no dressing	75143200.0
75143300	0	Salad_egg_lettuce_tomato_carrots_no_dressing	Salad, egg, lettuce, tomato, carrots, no dressing	75143300.0
75143350	0	Salad_egg_cheese_lettuce_tomato_carrots_no_dressing	Salad, egg, cheese, lettuce, tomato, carrots, no dressing	75143350.0
75144100	0	Salad_wilted_lettuce_with_bacon_dressing	Salad, wilted lettuce with bacon dressing	75144100.0
75145000	0	Seven_layer_salad_with_mayonnaise	Seven-layer salad, with mayonnaise	75145000.0
75145000	205912	Seven_layer_salad_with_mayonnaise_type_dressing_miracle_whip_	Seven-layer salad, with mayonnaise-type dressing (miracle whip)	75145000.205912
75146000	0	Salad_Greek_feta_cheese_olives_egg_lettuce_tomato_cucumber_onions	Salad, Greek, feta cheese, olives, egg, lettuce, tomato, cucumber, onions	75146000.0
75147000	0	Salad_spinach_egg_mushrooms_croutons_no_dressing	Salad, spinach, egg, mushrooms, croutons, no dressing	75147000.0
75148000	0	Salad_Cobb_grilled_chicken_bacon_egg_blue_cheese_avocado_tomato_Italian_dressing	Salad, Cobb, grilled chicken, bacon, egg, blue cheese, avocado, tomato, Italian dressing	75148000.0
75148010	0	Salad_Cobb_no_dressing	Salad, Cobb, no dressing	75148010.0
75159989	0	Sage	Sage	75159989.0
75159990	0	Capers	Capers	75159990.0
75159991	0	Mint_fresh	Mint, fresh	75159991.0
75159992	0	Wasabi	Wasabi	75159992.0
75159993	0	Turmeric	Turmeric	75159993.0
75159994	0	Thyme_dried	Thyme, dried	75159994.0
75159995	0	Thyme_fresh	Thyme, fresh	75159995.0
75159996	0	Tarragon	Tarragon	75159996.0
75159997	0	Shallots_raw	Shallots, raw	75159997.0
75159998	0	Dill_dried	Dill, dried	75159998.0
75159999	0	Dill_fresh	Dill, fresh	75159999.0
75200600	0	Algae_dried	Algae, dried	75200600.0
75200700	0	Aloe_vera_juice	Aloe vera juice	75200700.0
75201011	0	Artichoke_cooked_fresh_with_salt_no_fat_added_	Artichoke, cooked, fresh (with salt, no fat added)	75201011.0
75201011	900000	Artichoke_cooked_fresh_no_salt_or_fat_added_	Artichoke, cooked, fresh (no salt or fat added)	75201011.900000
75201012	0	Artichoke_cooked_frozen_with_salt_no_fat_added_	Artichoke, cooked, frozen (with salt, no fat added)	75201012.0
75201013	0	Artichoke_cooked_canned_no_fat_added_	Artichoke, cooked, canned (no fat added)	75201013.0
75201021	0	Artichoke_cooked_fresh_with_salt_and_margarine_	Artichoke, cooked, fresh (with salt and margarine)	75201021.0
75201021	206273	Artichoke_cooked_fresh_with_salt_and_butter_	Artichoke, cooked, fresh (with salt and butter)	75201021.206273
75201021	206492	Artichoke_cooked_fresh_with_salt_and_vegetable_oil_	Artichoke, cooked, fresh (with salt and vegetable oil)	75201021.206492
75201022	0	Artichoke_cooked_frozen_with_salt_and_margarine_	Artichoke, cooked, frozen (with salt and margarine)	75201022.0
75201023	0	Artichoke_cooked_canned_with_margarine_	Artichoke, cooked, canned (with margarine)	75201023.0
75201030	0	Artichoke_hearts_canned_in_oil	Artichoke hearts, canned in oil	75201030.0
75202011	0	Asparagus_cooked_fresh_with_salt_no_fat_added_	Asparagus, cooked, fresh (with salt, no fat added)	75202011.0
75202011	900000	Asparagus_cooked_fresh_no_salt_or_fat_added_	Asparagus, cooked, fresh (no salt or fat added)	75202011.900000
75202012	0	Asparagus_cooked_frozen_with_salt_no_fat_added_	Asparagus, cooked, frozen (with salt, no fat added)	75202012.0
75202013	0	Asparagus_cooked_canned_no_fat_added_	Asparagus, cooked, canned (no fat added)	75202013.0
75202021	0	Asparagus_cooked_fresh_with_salt_and_margarine_	Asparagus, cooked, fresh (with salt and margarine)	75202021.0
75202021	200394	Asparagus_cooked_fresh_with_salt_and_butter_	Asparagus, cooked, fresh (with salt and butter)	75202021.200394
75202021	205482	Asparagus_cooked_fresh_with_salt_and_vegetable_oil_	Asparagus, cooked, fresh (with salt and vegetable oil)	75202021.205482
75202022	0	Asparagus_cooked_frozen_with_salt_and_fat_	Asparagus, cooked, frozen (with salt and fat)	75202022.0
75202023	0	Asparagus_cooked_canned_fat_added_	Asparagus, cooked, canned (fat added)	75202023.0
75203000	0	Bamboo_shoots_cooked_with_salt_no_fat_added_	Bamboo shoots, cooked (with salt, no fat added)	75203000.0
75203020	0	Bamboo_shoots_cooked_with_salt_and_margarine_	Bamboo shoots, cooked (with salt and margarine)	75203020.0
75203020	100702	Bamboo_shoots_cooked_with_salt_and_vegetable_oil_	Bamboo shoots, cooked (with salt and vegetable oil)	75203020.100702
75204009	0	Lima_beans_frozen_no_salt_or_fat_added_	Lima beans, frozen (no salt or fat added)	75204009.0
75204012	0	Lima_beans_frozen_with_salt_no_fat_added_	Lima beans, frozen (with salt, no fat added)	75204012.0
75204021	0	Lime_beans_fresh_fat_added_in_cooking	Lime beans, fresh, fat added in cooking	75204021.0
75204022	0	Lima_beans_frozen_with_salt_and_margarine_	Lima beans, frozen (with salt and margarine)	75204022.0
75204022	200429	Lima_beans_frozen_with_salt_and_vegetable_oil_	Lima beans, frozen (with salt and vegetable oil)	75204022.200429
75204022	200524	Lima_beans_frozen_with_salt_and_butter_	Lima beans, frozen (with salt and butter)	75204022.200524
75204022	205844	Lima_beans_frozen_with_salt_and_pork_fat_	Lima beans, frozen (with salt and pork fat)	75204022.205844
75204110	0	Lima_beans_canned_low_sodium_no_fat_added_	Lima beans, canned, low sodium (no fat added)	75204110.0
75204120	0	Lima_beans_canned_low_sodium_fat_added_	Lima beans, canned, low sodium (fat added)	75204120.0
75204911	0	Lima_beans_baby_dry	Lima beans, baby, dry	75204911.0
75205021	0	Green_beans_fresh_cooked_with_salt_no_fat_added_	Green beans, fresh, cooked (with salt, no fat added)	75205021.0
75205021	900000	Green_beans_fresh_cooked_no_salt_or_fat_added_	Green beans, fresh, cooked (no salt or fat added)	75205021.900000
75205022	0	String_beans_frozen_cooked_with_salt_no_fat_added_	String beans, frozen, cooked (with salt, no fat added)	75205022.0
75205022	900000	Green_beans_frozen_cooked_no_salt_or_fat_added_	Green beans, frozen, cooked (no salt or fat added)	75205022.900000
75205023	0	Green_beans_canned_cooked_no_fat_added	Green beans, canned, cooked, no fat added	75205023.0
75205031	0	String_beans_fresh_cooked_with_salt_and_margarine_	String beans, fresh, cooked (with salt and margarine)	75205031.0
75205031	200225	Green_beans_fresh_cooked_with_salt_and_butter_	Green beans, fresh, cooked (with salt and butter)	75205031.200225
75205031	200494	String_beans_fresh_cooked_with_salt_and_vegetable_oil_	String beans, fresh, cooked (with salt and vegetable oil)	75205031.200494
75205031	205129	Green_beans_fresh_cooked_with_salt_and_pork_fat_	Green beans, fresh, cooked (with salt and pork fat)	75205031.205129
75205032	0	String_beans_frozen_cooked_with_salt_and_margarine_	String beans, frozen, cooked (with salt and margarine)	75205032.0
75205032	200698	Green_beans_frozen_cooked_with_salt_and_butter_	Green beans, frozen, cooked (with salt and butter)	75205032.200698
75205032	202107	String_beans_frozen_cooked_with_salt_and_vegetable_oil_	String beans, frozen, cooked (with salt and vegetable oil)	75205032.202107
75205032	205177	Green_beans_frozen_cooked_with_salt_and_pork_fat_	Green beans, frozen, cooked (with salt and pork fat)	75205032.205177
75205033	0	String_beans_canned_cooked_with_margarine	String beans, canned, cooked with margarine	75205033.0
75205033	100300	Green_beans_canned_cooked_with_vegetable_oil	Green beans, canned, cooked with vegetable oil	75205033.100300
75205033	200058	String_beans_canned_cooked_with_butter	String beans, canned, cooked with butter	75205033.200058
75205033	205043	Green_beans_canned_cooked_with_pork_fat	Green beans, canned, cooked, with pork fat	75205033.205043
75205120	0	String_beans_canned_low_sodium_no_fat_added	String beans, canned, low sodium, no fat added	75205120.0
75205130	0	Green_beans_canned_low_sodium_cooked_with_margarine	Green beans, canned, low sodium, cooked with margarine	75205130.0
75205130	100149	String_beans_canned_low_sodium_cooked_with_vegetable_oil	String beans, canned, low sodium, cooked with vegetable oil	75205130.100149
75205130	200982	Green_beans_canned_low_sodium_cooked_with_butter	Green beans, canned, low sodium, cooked with butter	75205130.200982
75206011	0	String_beans_yellow_fresh_cooked_with_salt_no_fat_added_	String beans, yellow, fresh, cooked (with salt, no fat added)	75206011.0
75206011	900000	String_beans_yellow_fresh_cooked_no_salt_or_fat_added_	String beans, yellow, fresh, cooked (no salt or fat added)	75206011.900000
75206012	0	String_beans_yellow_frozen_cooked_with_salt_no_fat_added_	String beans, yellow, frozen, cooked (with salt, no fat added)	75206012.0
75206012	900000	String_beans_yellow_frozen_cooked_no_salt_or_fat_added_	String beans, yellow, frozen, cooked (no salt or fat added)	75206012.900000
75206013	0	String_beans_yellow_canned_cooked_no_fat_added_	String beans, yellow, canned, cooked (no fat added)	75206013.0
75206021	0	String_beans_yellow_fresh_cooked_with_salt_and_margarine_	String beans, yellow, fresh, cooked (with salt and margarine)	75206021.0
75206021	205467	String_beans_yellow_fresh_cooked_with_salt_and_vegetable_oil_	String beans, yellow, fresh, cooked (with salt and vegetable oil)	75206021.205467
75206021	206690	String_beans_yellow_fresh_cooked_with_salt_and_butter_	String beans, yellow, fresh, cooked (with salt and butter)	75206021.206690
75206022	0	String_beans_yellow_frozen_cooked_with_salt_and_margarine_	String beans, yellow, frozen, cooked (with salt and margarine)	75206022.0
75206023	0	String_beans_yellow_canned_with_margarine_	String beans, yellow, canned (with margarine)	75206023.0
75207011	0	Bean_sprouts_fresh_cooked_with_salt_no_fat_added_	Bean sprouts, fresh, cooked (with salt, no fat added)	75207011.0
75207013	0	Bean_sprouts_canned_cooked_no_fat_added_	Bean sprouts, canned, cooked (no fat added)	75207013.0
75207021	0	Bean_sprouts_fresh_cooked_with_salt_and_fat_	Bean sprouts, fresh, cooked (with salt and fat)	75207021.0
75207023	0	Bean_sprouts_canned_cooked_with_fat_added_	Bean sprouts, canned, cooked (with fat added)	75207023.0
75208011	0	Beets_fresh_cooked_with_salt_no_fat_added_	Beets, fresh, cooked (with salt, no fat added)	75208011.0
75208011	900000	Beets_fresh_cooked_no_salt_or_fat_added_	Beets, fresh, cooked (no salt or fat added)	75208011.900000
75208012	0	Beets_frozen_cooked_with_salt_no_fat_added_	Beets, frozen, cooked (with salt, no fat added)	75208012.0
75208013	0	Beets_canned_cooked_no_fat_added_	Beets, canned, cooked (no fat added)	75208013.0
75208021	0	Beets_fresh_cooked_with_salt_and_fat_	Beets, fresh, cooked (with salt and fat)	75208021.0
75208021	206411	Beets_fresh_cooked_with_salt_and_vegetable_oil_	Beets, fresh, cooked (with salt and vegetable oil)	75208021.206411
75208021	206466	Beets_fresh_cooked_with_salt_and_butter_	Beets, fresh, cooked (with salt and butter)	75208021.206466
75208022	0	Beets_frozen_cooked_with_salt_and_fat_	Beets, frozen, cooked (with salt and fat)	75208022.0
75208023	0	Beets_canned_cooked_with_margarine_	Beets, canned, cooked (with margarine)	75208023.0
75208023	206136	Beets_canned_cooked_with_vegetable_oil_	Beets, canned, cooked (with vegetable oil)	75208023.206136
75208110	0	Beets_canned_low_sodium_no_fat_added_	Beets, canned, low sodium (no fat added)	75208110.0
75208120	0	Beets_canned_low_sodium_with_fat_	Beets, canned, low sodium (with fat)	75208120.0
75208300	0	Bitter_melon_cooked_with_salt_no_fat_added_	Bitter melon, cooked (with salt, no fat added)	75208300.0
75208300	900000	Bitter_melon_cooked_no_salt_or_fat_added_	Bitter melon, cooked (no salt or fat added)	75208300.900000
75208310	0	Bitter_melon_cooked_with_salt_and_margarine_	Bitter melon, cooked (with salt and margarine)	75208310.0
75208310	206738	Bitter_melon_cooked_with_salt_and_vegetable_oil_	Bitter melon, cooked (with salt and vegetable oil)	75208310.206738
75208500	0	Breadfruit_cooked_with_salt_no_fat_added_	Breadfruit, cooked (with salt, no fat added)	75208500.0
75208520	0	Breadfruit_fried	Breadfruit, fried	75208520.0
75208710	0	Broccoflower_cooked_with_salt_no_fat_added_	Broccoflower, cooked (with salt, no fat added)	75208710.0
75208710	900000	Broccoflower_cooked_no_salt_or_fat_added_	Broccoflower, cooked (no salt or fat added)	75208710.900000
75208720	0	Broccoflower_cooked_with_salt_and_margarine_	Broccoflower, cooked (with salt and margarine)	75208720.0
75208720	206893	Broccoflower_cooked_with_salt_and_vegetable_oil_	Broccoflower, cooked (with salt and vegetable oil)	75208720.206893
75209011	0	Brussels_sprouts_fresh_cooked_with_salt_no_fat_added_	Brussels sprouts, fresh, cooked (with salt, no fat added)	75209011.0
75209011	900000	Brussels_sprouts_fresh_cooked_no_salt_or_fat_added_	Brussels sprouts, fresh, cooked (no salt or fat added)	75209011.900000
75209012	0	Brussels_sprouts_frozen_cooked_with_salt_no_fat_added_	Brussels sprouts, frozen, cooked (with salt, no fat added)	75209012.0
75209012	900000	Brussels_sprouts_frozen_cooked_no_salt_or_fat_added_	Brussels sprouts, frozen, cooked (no salt or fat added)	75209012.900000
75209021	0	Brussels_sprouts_fresh_cooked_with_salt_and_margarine_	Brussels sprouts, fresh, cooked (with salt and margarine)	75209021.0
75209021	201523	Brussels_sprouts_fresh_cooked_with_salt_and_butter_	Brussels sprouts, fresh, cooked (with salt and butter)	75209021.201523
75209021	206535	Brussels_sprouts_fresh_cooked_with_salt_and_vegetable_oil_	Brussels sprouts, fresh, cooked (with salt and vegetable oil)	75209021.206535
75209022	0	Brussels_sprouts_frozen_cooked_with_salt_and_margarine_	Brussels sprouts, frozen, cooked (with salt and margarine)	75209022.0
75209022	101313	Brussels_sprouts_frozen_cooked_with_salt_and_vegetable_oil_	Brussels sprouts, frozen, cooked (with salt and vegetable oil)	75209022.101313
75209022	203013	Brussels_sprouts_frozen_cooked_with_salt_and_butter_	Brussels sprouts, frozen, cooked (with salt and butter)	75209022.203013
75209500	0	Burdock_cooked_with_salt_no_fat_added_	Burdock, cooked (with salt, no fat added)	75209500.0
75209500	900000	Burdock_cooked_no_salt_or_fat_added_	Burdock, cooked (no salt or fat added)	75209500.900000
75210010	0	Cabbage_Chinese_Bok_Choy_cooked_with_salt_no_fat_added_	Cabbage, Chinese (Bok Choy), cooked (with salt, no fat added)	75210010.0
75210010	900000	Cabbage_Chinese_Bok_Choy_cooked_no_salt_or_fat_added_	Cabbage, Chinese (Bok Choy), cooked (no salt or fat added)	75210010.900000
75210020	0	Cabbage_Chinese_Bok_Choy_cooked_with_salt_and_margarine_	Cabbage, Chinese (Bok Choy), cooked (with salt and margarine)	75210020.0
75210020	100360	Cabbage_Chinese_Bok_Choy_cooked_with_salt_and_vegetable_oil_	Cabbage, Chinese (Bok Choy), cooked (with salt and vegetable oil)	75210020.100360
75210020	200166	Cabbage_Chinese_Bok_Choy_cooked_with_salt_and_butter_	Cabbage, Chinese (Bok Choy), cooked (with salt and butter)	75210020.200166
75211020	0	Cabbage_green_cooked_with_salt_no_fat_added_	Cabbage, green, cooked (with salt, no fat added)	75211020.0
75211020	900000	Cabbage_green_cooked_no_salt_or_fat_added_	Cabbage, green, cooked (no salt or fat added)	75211020.900000
75211030	0	Cabbage_green_cooked_with_salt_and_margarine_	Cabbage, green, cooked (with salt and margarine)	75211030.0
75211030	200675	Cabbage_green_cooked_with_salt_and_vegetable_oil_	Cabbage, green, cooked (with salt and vegetable oil)	75211030.200675
75211030	200781	Cabbage_green_cooked_with_salt_and_butter_	Cabbage, green, cooked (with salt and butter)	75211030.200781
75211030	205042	Cabbage_green_cooked_with_salt_and_pork_fat_	Cabbage, green, cooked (with salt and pork fat)	75211030.205042
75212010	0	Cabbage_red_cooked_with_salt_no_fat_added_	Cabbage, red, cooked (with salt, no fat added)	75212010.0
75212010	900000	Cabbage_red_cooked_no_salt_or_fat_added_	Cabbage, red, cooked (no salt or fat added)	75212010.900000
75212020	0	Cabbage_red_cooked_wth_salt_and_fat_	Cabbage, red, cooked (wth salt and fat)	75212020.0
75213010	0	Cabbage_savoy_cooked_with_salt_no_fat_added_	Cabbage, savoy, cooked (with salt, no fat added)	75213010.0
75213020	0	Cabbage_savoy_cooked_with_salt_and_fat_	Cabbage, savoy, cooked (with salt and fat)	75213020.0
75213110	0	Cactus_cooked_with_salt_no_fat_added_	Cactus, cooked (with salt, no fat added)	75213110.0
75213110	900000	Cactus_cooked_no_salt_or_fat_added_	Cactus, cooked (no salt or fat added)	75213110.900000
75213120	203000	Cactus_cooked_with_salt_and_vegetable_oil_	Cactus, cooked (with salt and vegetable oil)	75213120.203000
75214011	0	Cauliflower_fresh_cooked_with_salt_no_fat_added_	Cauliflower, fresh, cooked (with salt, no fat added)	75214011.0
75214011	900000	Cauliflower_fresh_cooked_no_salt_or_fat_added_	Cauliflower, fresh, cooked (no salt or fat added)	75214011.900000
75214012	0	Cauliflower_frozen_cooked_with_salt_no_fat_added_	Cauliflower, frozen, cooked (with salt, no fat added)	75214012.0
75214012	900000	Cauliflower_frozen_cooked_no_salt_or_fat_added_	Cauliflower, frozen, cooked (no salt or fat added)	75214012.900000
75214013	0	Cauliflower_canned_cooked_no_fat_added_	Cauliflower, canned, cooked (no fat added)	75214013.0
75214021	0	Cauliflower_fresh_cooked_with_salt_and_margarine_	Cauliflower, fresh, cooked (with salt and margarine)	75214021.0
75214021	200629	Cauliflower_fresh_cooked_with_salt_and_butter_	Cauliflower, fresh, cooked (with salt and butter)	75214021.200629
75214021	203407	Cauliflower_fresh_cooked_with_salt_and_vegetable_oil_	Cauliflower, fresh, cooked (with salt and vegetable oil)	75214021.203407
75214022	0	Cauliflower_frozen_cooked_with_salt_and_margarine_	Cauliflower, frozen, cooked (with salt and margarine)	75214022.0
75214022	200441	Cauliflower_frozen_cooked_with_salt_and_butter_	Cauliflower, frozen, cooked (with salt and butter)	75214022.200441
75214022	206294	Cauliflower_frozen_cooked_with_salt_and_vegetable_oil_	Cauliflower, frozen, cooked (with salt and vegetable oil)	75214022.206294
75214023	0	Cauliflower_canned_cooked_with_fat_added_	Cauliflower, canned, cooked (with fat added)	75214023.0
75215010	0	Celery_cooked_with_salt_no_fat_added_	Celery, cooked (with salt, no fat added)	75215010.0
75215010	900000	Celery_cooked_no_salt_or_fat_added_	Celery, cooked (no salt or fat added)	75215010.900000
75215020	0	Celery_cooked_with_salt_and_margarine_	Celery, cooked (with salt and margarine)	75215020.0
75215020	100418	Celery_cooked_with_salt_and_butter_	Celery, cooked (with salt and butter)	75215020.100418
75215020	202812	Celery_cooked_with_salt_and_vegetable_oil_	Celery, cooked (with salt and vegetable oil)	75215020.202812
75215020	205255	Celery_cooked_with_salt_and_pork_fat_	Celery, cooked (with salt and pork fat)	75215020.205255
75215099	0	Green_chiles_canned	Green chiles, canned	75215099.0
75215110	0	Fennel_bulb_cooked_with_salt_no_fat_added_	Fennel bulb, cooked (with salt, no fat added)	75215110.0
75215110	900000	Fennel_bulb_cooked_no_salt_or_fat_added_	Fennel bulb, cooked (no salt or fat added)	75215110.900000
75215120	0	Fennel_bulb_cooked_with_salt_and_margarine_	Fennel bulb, cooked (with salt and margarine)	75215120.0
75215120	207156	Fennel_bulb_cooked_with_salt_and_vegetable_oil_	Fennel bulb, cooked (with salt and vegetable oil)	75215120.207156
75215500	0	Chives_dried_or_dehydrated	Chives, dried or dehydrated	75215500.0
75215510	0	Christophine_cooked_with_salt_no_fat_added_	Christophine, cooked (with salt, no fat added)	75215510.0
75216070	0	Corn_dried_cooked	Corn, dried, cooked	75216070.0
75216111	0	Corn_yellow_fresh_cooked_with_salt_no_fat_added_	Corn, yellow, fresh, cooked (with salt, no fat added)	75216111.0
75216111	900000	Corn_yellow_fresh_cooked_no_salt_or_fat_added_	Corn, yellow, fresh, cooked (no salt or fat added)	75216111.900000
75216112	0	Corn_yellow_frozen_cooked_with_salt_no_fat_added_	Corn, yellow, frozen, cooked (with salt, no fat added)	75216112.0
75216112	900000	Corn_yellow_frozen_cooked_no_salt_or_fat_added_	Corn, yellow, frozen, cooked (no salt or fat added)	75216112.900000
75216113	0	Corn_yellow_canned_cooked_no_fat_added	Corn, yellow, canned, cooked, no fat added	75216113.0
75216121	0	Corn_yellow_fresh_cooked_with_salt_and_margarine_	Corn, yellow, fresh, cooked (with salt and margarine)	75216121.0
75216121	200375	Corn_yellow_fresh_cooked_with_salt_and_butter_	Corn, yellow, fresh, cooked (with salt and butter)	75216121.200375
75216122	0	Corn_yellow_frozen_cooked_with_salt_and_margarine_	Corn, yellow, frozen, cooked (with salt and margarine)	75216122.0
75216122	100004	Corn_yellow_frozen_cooked_with_salt_and_butter_	Corn, yellow, frozen, cooked (with salt and butter)	75216122.100004
75216123	0	Corn_yellow_canned_cooked_with_margarine	Corn, yellow, canned, cooked with margarine	75216123.0
75216123	200240	Corn_yellow_canned_cooked_with_butter	Corn, yellow, canned, cooked with butter	75216123.200240
75216153	0	Corn_yellow_canned_cream_style	Corn, yellow, canned, cream style	75216153.0
75216171	0	Corn_yellow_and_white_fresh_cooked_with_salt_no_fat_added_	Corn, yellow and white, fresh, cooked (with salt, no fat added)	75216171.0
75216172	0	Corn_yellow_and_white_frozen_cooked_with_salt_no_fat_added_	Corn, yellow and white, frozen, cooked (with salt, no fat added)	75216172.0
75216173	0	Corn_yellow_and_white_canned_cooked_no_fat_added_	Corn, yellow and white, canned, cooked (no fat added)	75216173.0
75216181	0	Corn_yellow_and_white_fresh_cooked_with_salt_and_margarine_	Corn, yellow and white, fresh, cooked (with salt and margarine)	75216181.0
75216181	204569	Corn_yellow_and_white_fresh_cooked_with_salt_and_butter_	Corn, yellow and white, fresh, cooked (with salt and butter)	75216181.204569
75216182	0	Corn_yellow_and_white_frozen_cooked_with_salt_and_fat_added_	Corn, yellow and white, frozen, cooked (with salt and fat added)	75216182.0
75216183	0	Corn_yellow_and_white_canned_cooked_with_fat_added_	Corn, yellow and white, canned, cooked (with fat added)	75216183.0
75216211	0	Corn_white_fresh_cooked_with_salt_no_fat_added_	Corn, white, fresh, cooked (with salt, no fat added)	75216211.0
75216211	900000	Corn_white_fresh_cooked_no_salt_or_fat_added_	Corn, white, fresh, cooked (no salt or fat added)	75216211.900000
75216212	0	Corn_white_frozen_cooked_with_salt_no_fat_added_	Corn, white, frozen, cooked (with salt, no fat added)	75216212.0
75216212	900000	Corn_white_frozen_cooked_no_salt_or_fat_added_	Corn, white, frozen, cooked (no salt or fat added)	75216212.900000
75216213	0	Corn_white_canned_cooked_no_fat_added	Corn, white, canned, cooked, no fat added	75216213.0
75216221	0	Corn_white_fresh_cooked_with_salt_and_margarine_	Corn, white, fresh, cooked (with salt and margarine)	75216221.0
75216221	201115	Corn_white_fresh_cooked_with_salt_and_butter_	Corn, white, fresh, cooked (with salt and butter)	75216221.201115
75216222	0	Corn_white_frozen_cooked_with_salt_and_margarine_	Corn, white, frozen, cooked (with salt and margarine)	75216222.0
75216222	200220	Corn_white_frozen_cooked_with_salt_and_butter_	Corn, white, frozen, cooked (with salt and butter)	75216222.200220
75216223	0	Corn_white_canned_cooked_with_fat_added_	Corn, white, canned, cooked (with fat added)	75216223.0
75216253	0	Corn_white_canned_cream_style	Corn, white, canned, cream style	75216253.0
75216310	0	Corn_yellow_canned_low_sodium_no_fat_added	Corn, yellow, canned, low sodium, no fat added	75216310.0
75216320	0	Corn_yellow_canned_low_sodium_cooked_with_margarine	Corn, yellow, canned, low sodium, cooked with margarine	75216320.0
75216320	100585	Corn_yellow_canned_low_sodium_cooked_with_butter	Corn, yellow, canned, low sodium, cooked with butter	75216320.100585
75216710	0	Cucumber_cooked_with_salt_no_fat_added_	Cucumber, cooked (with salt, no fat added)	75216710.0
75216710	900000	Cucumber_cooked_no_salt_or_fat_added_	Cucumber, cooked (no salt or fat added)	75216710.900000
75216999	0	Corn_yellow_canned_cream_style_low_sodium	Corn, yellow, canned, cream style, low sodium	75216999.0
75217010	0	Eggplant_cooked_with_salt_no_fat_added_	Eggplant, cooked (with salt, no fat added)	75217010.0
75217010	900000	Eggplant_cooked_no_salt_or_fat_added_	Eggplant, cooked (no salt or fat added)	75217010.900000
75217020	0	Eggplant_cooked_with_salt_and_margarine_	Eggplant, cooked (with salt and margarine)	75217020.0
75217020	200927	Eggplant_cooked_with_salt_and_butter_	Eggplant, cooked (with salt and butter)	75217020.200927
75217020	201257	Eggplant_cooked_with_salt_and_vegetable_oil_	Eggplant, cooked (with salt and vegetable oil)	75217020.201257
75217300	0	Squash_blossoms_flowers_cooked_with_salt_no_fat_added_	Squash blossoms (flowers), cooked (with salt, no fat added)	75217300.0
75217400	0	Garlic_cooked	Garlic, cooked	75217400.0
75217500	0	Hominy_canned_cooked_no_fat_added_	Hominy, canned, cooked (no fat added)	75217500.0
75217520	0	Hominy_canned_cooked_with_margarine_	Hominy, canned, cooked (with margarine)	75217520.0
75218010	0	Kohlrabi_cooked_with_salt_no_fat_added_	Kohlrabi, cooked (with salt, no fat added)	75218010.0
75218010	900000	Kohlrabi_cooked_no_salt_or_fat_added_	Kohlrabi, cooked (no salt or fat added)	75218010.900000
75218500	0	Lotus_root_cooked_with_salt_no_fat_added_	Lotus root, cooked (with salt, no fat added)	75218500.0
75218500	900000	Lotus_root_cooked_no_salt_or_fat_added_	Lotus root, cooked (no salt or fat added)	75218500.900000
75219011	0	Mushrooms_fresh_cooked_with_salt_no_fat_added_	Mushrooms, fresh, cooked (with salt, no fat added)	75219011.0
75219011	900000	Mushrooms_fresh_cooked_no_salt_or_fat_added_	Mushrooms, fresh, cooked (no salt or fat added)	75219011.900000
75219012	0	Mushrooms_frozen_cooked_with_salt_no_fat_added_	Mushrooms, frozen, cooked (with salt, no fat added)	75219012.0
75219013	0	Mushrooms_canned_cooked_no_fat_added	Mushrooms, canned, cooked, no fat added	75219013.0
75219021	0	Mushrooms_fresh_cooked_with_salt_and_margarine_	Mushrooms, fresh, cooked (with salt and margarine)	75219021.0
75219021	200157	Mushrooms_fresh_cooked_with_salt_and_vegetable_oil_	Mushrooms, fresh, cooked (with salt and vegetable oil)	75219021.200157
75219021	201333	Mushrooms_fresh_cooked_with_salt_and_butter_	Mushrooms, fresh, cooked (with salt and butter)	75219021.201333
75219022	0	Mushrooms_frozen_cooked_with_salt_and_fat_	Mushrooms, frozen, cooked (with salt and fat)	75219022.0
75219023	0	Mushrooms_canned_cooked_with_margarine	Mushrooms, canned, cooked with margarine	75219023.0
75219023	100361	Mushrooms_canned_cooked_with_vegetable_oil	Mushrooms, canned, cooked with vegetable oil	75219023.100361
75219023	204919	Mushrooms_canned_cooked_with_butter	Mushrooms, canned, cooked with butter	75219023.204919
75219100	0	Mushrooms_shiitake_cooked_from_dried	Mushrooms, shiitake, cooked from dried	75219100.0
75219200	0	Mushrooms_shiitake	Mushrooms, shiitake	75219200.0
75220011	0	Okra_fresh_cooked_with_salt_no_fat_added_	Okra, fresh, cooked (with salt, no fat added)	75220011.0
75220011	900000	Okra_fresh_cooked_no_salt_or_fat_added_	Okra, fresh, cooked (no salt or fat added)	75220011.900000
75220012	0	Okra_frozen_cooked_with_salt_no_fat_added_	Okra, frozen, cooked (with salt, no fat added)	75220012.0
75220012	900000	Okra_frozen_cooked_no_salt_or_fat_added_	Okra, frozen, cooked (no salt or fat added)	75220012.900000
75220013	0	Okra_canned_cooked_no_fat_added_	Okra, canned, cooked (no fat added)	75220013.0
75220021	0	Okra_fresh_cooked_with_salt_and_margarine_	Okra, fresh, cooked (with salt and margarine)	75220021.0
75220021	200885	Okra_fresh_cooked_with_salt_and_vegetable_oil_	Okra, fresh, cooked (with salt and vegetable oil)	75220021.200885
75220021	206489	Okra_fresh_cooked_with_salt_and_pork_fat_	Okra, fresh, cooked (with salt and pork fat)	75220021.206489
75220022	0	Okra_frozen_cooked_with_salt_and_margarine_	Okra, frozen, cooked (with salt and margarine)	75220022.0
75220022	206016	Okra_frozen_cooked_with_salt_and_pork_fat_	Okra, frozen, cooked (with salt and pork fat)	75220022.206016
75220023	0	Okra_canned_cooked_with_fat_added_	Okra, canned, cooked (with fat added)	75220023.0
75220050	0	Lettuce_cooked_with_salt_no_fat_added_	Lettuce, cooked (with salt, no fat added)	75220050.0
75220050	900000	Lettuce_cooked_no_salt_or_fat_added_	Lettuce, cooked (no salt or fat added)	75220050.900000
75220100	0	Luffa_Chinese_okra_cooked_with_salt_no_fat_added_	Luffa (Chinese okra), cooked (with salt, no fat added)	75220100.0
75220100	900000	Luffa_Chinese_okra_cooked_no_salt_or_fat_added_	Luffa (Chinese okra), cooked (no salt or fat added)	75220100.900000
75221011	0	Onions_fresh_cooked_with_salt_no_fat_added_	Onions,  fresh, cooked (with salt, no fat added)	75221011.0
75221011	900000	Onion_fresh_cooked_no_salt_or_fat_added_	Onion,  fresh, cooked (no salt or fat added)	75221011.900000
75221012	0	Onion_frozen_cooked_with_salt_no_fat_added_	Onion,  frozen, cooked (with salt, no fat added)	75221012.0
75221012	900000	Onions_frozen_cooked_no_salt_or_fat_added_	Onions, frozen, cooked (no salt or fat added)	75221012.900000
75221021	0	Onions_fresh_cooked_with_salt_and_margarine_	Onions,  fresh, cooked (with salt and margarine)	75221021.0
75221021	200316	Onion_fresh_cooked_with_salt_and_butter_	Onion,  fresh, cooked (with salt and butter)	75221021.200316
75221021	201147	Onion_fresh_cooked_with_salt_and_vegetable_oil_	Onion,  fresh, cooked (with salt and vegetable oil)	75221021.201147
75221031	0	Onions_pearl_fresh_cooked_with_salt_no_fat_added_	Onions, pearl, fresh, cooked (with salt, no fat added)	75221031.0
75221032	0	Onion_pearl_frozen_cooked_with_salt_no_fat_added_	Onion, pearl, frozen, cooked (with salt, no fat added)	75221032.0
75221032	900000	Onions_pearl_frozen_cooked_no_salt_or_fat_added_	Onions, pearl, frozen, cooked (no salt or fat added)	75221032.900000
75221033	0	Onions_pearl_canned_cooked	Onions, pearl, canned, cooked	75221033.0
75221051	0	Onion_green_fresh_cooked_with_salt_no_fat_added_	Onion, green, fresh, cooked (with salt, no fat added)	75221051.0
75221061	0	Onions_green_fresh_cooked_with_salt_and_margarine_	Onions, green, fresh, cooked (with salt and margarine)	75221061.0
75221061	100896	Onion_green_fresh_cooked_with_salt_and_vegetable_oil_	Onion, green, fresh, cooked (with salt and vegetable oil)	75221061.100896
75221061	202938	Onions_green_fresh_cooked_with_salt_and_butter_	Onions, green, fresh, cooked (with salt and butter)	75221061.202938
75221100	0	Onion_dehydrated	Onion, dehydrated	75221100.0
75221160	0	Palm_hearts_cooked_no_fat_added	Palm hearts, cooked, no fat added	75221160.0
75221200	0	Parsley_dried	Parsley, dried	75221200.0
75221210	0	Parsley_cooked_no_fat_added	Parsley, cooked, no fat added	75221210.0
75222010	0	Parsnips_cooked_with_salt_no_fat_added_	Parsnips, cooked (with salt, no fat added)	75222010.0
75222010	900000	Parsnips_cooked_no_salt_or_fat_added_	Parsnips, cooked (no salt or fat added)	75222010.900000
75222020	0	Parsnips_cooked_with_salt_and_fat_	Parsnips, cooked (with salt and fat)	75222020.0
75223011	0	Blackeye_peas_cowpeas_fresh_cooked_with_salt_no_fat_added_	Blackeye peas, (cowpeas), fresh, cooked (with salt, no fat added)	75223011.0
75223011	900000	Blackeye_peas_cowpeas_fresh_cooked_no_salt_or_fat_added_	Blackeye peas, (cowpeas), fresh, cooked (no salt or fat added)	75223011.900000
75223012	0	Blackeye_peas_cowpeas_frozen_cooked_with_salt_no_fat_added_	Blackeye peas, (cowpeas), frozen, cooked (with salt, no fat added)	75223012.0
75223012	900000	Black_eyed_peas_cowpeas_field_peas_frozen_cooked_no_salt_or_fat_added_	Black-eyed peas, (cowpeas, field peas), frozen, cooked (no salt or fat added)	75223012.900000
75223013	0	Blackeye_peas_cowpeas_canned_cooked_no_fat_added	Blackeye peas, (cowpeas), canned, cooked, no fat added	75223013.0
75223021	200886	Blackeye_peas_cowpeas_fresh_cooked_with_salt_and_vegetable_oil_	Blackeye peas, (cowpeas), fresh, cooked (with salt and vegetable oil)	75223021.200886
75223021	205105	Blackeye_peas_cowpeas_fresh_cooked_with_salt_and_pork_fat_	Blackeye peas, (cowpeas), fresh, cooked (with salt and pork fat)	75223021.205105
75223022	0	Blackeye_peas_cowpeas_frozen_cooked_with_salt_and_margarine_	Blackeye peas, (cowpeas), frozen, cooked (with salt and margarine)	75223022.0
75223022	205662	Blackeye_peas_cowpeas_frozen_cooked_with_salt_and_pork_fat_	Blackeye peas, (cowpeas), frozen, cooked (with salt and pork fat)	75223022.205662
75223023	0	Blackeye_peas_cowpeas_canned_cooked_with_margarine	Blackeye peas, (cowpeas), canned, cooked with margarine	75223023.0
75223023	205882	Blackeye_peas_cowpeas_canned_cooked_with_vegetable_oil	Blackeye peas, (cowpeas), canned, cooked with vegetable oil	75223023.205882
75223023	206042	Blackeye_peas_cowpeas_canned_cooked_with_pork_fat	Blackeye peas, (cowpeas), canned, cooked with pork fat	75223023.206042
75224021	0	Peas_green_fresh_cooked_with_salt_no_fat_added_	Peas, green, fresh, cooked (with salt, no fat added)	75224021.0
75224021	900000	Peas_green_fresh_cooked_no_salt_or_fat_added_	Peas, green, fresh, cooked (no salt or fat added)	75224021.900000
75224022	0	Peas_green_frozen_cooked_with_salt_no_fat_added_	Peas, green, frozen, cooked (with salt, no fat added)	75224022.0
75224022	900000	Peas_green_frozen_cooked_no_salt_or_fat_added_in_cooking_	Peas, green, frozen, cooked (no salt or fat added in cooking)	75224022.900000
75224023	0	Peas_green_canned_cooked_no_fat_added	Peas, green, canned, cooked, no fat added	75224023.0
75224031	0	Peas_green_fresh_cooked_with_salt_and_margarine_	Peas, green, fresh, cooked (with salt and margarine)	75224031.0
75224031	201578	Peas_green_fresh_cooked_with_salt_and_vegetable_oil_	Peas, green, fresh, cooked (with salt and vegetable oil)	75224031.201578
75224031	203283	Peas_green_fresh_cooked_with_salt_and_butter_	Peas, green, fresh, cooked (with salt and butter)	75224031.203283
75224032	0	Peas_green_frozen_cooked_with_salt_and_margarine_	Peas, green, frozen, cooked (with salt and margarine)	75224032.0
75224032	200361	Peas_green_frozen_cooked_with_salt_and_butter_	Peas, green, frozen, cooked (with salt and butter)	75224032.200361
75224032	203491	Peas_green_frozen_cooked_with_salt_and_vegetable_oil_	Peas, green, frozen, cooked (with salt and vegetable oil)	75224032.203491
75224033	0	Peas_green_canned_cooked_with_margarine	Peas, green, canned, cooked, with margarine	75224033.0
75224033	100006	Peas_green_canned_cooked_with_butter	Peas, green, canned, cooked, with butter	75224033.100006
75224033	205763	Peas_green_canned_cooked_with_vegetable_oil	Peas, green, canned, cooked, with vegetable oil	75224033.205763
75224120	0	Peas_green_canned_low_sodium_no_fat_added	Peas, green, canned, low sodium, no fat added	75224120.0
75224130	0	Peas_green_canned_low_sodium_with_margarine	Peas, green, canned, low sodium, with margarine	75224130.0
75224130	206835	Peas_green_canned_low_sodium_with_vegetable_oil	Peas, green, canned, low sodium, with vegetable oil	75224130.206835
75224130	206968	Peas_green_canned_low_sodium_with_butter	Peas, green, canned, low sodium, with butter	75224130.206968
75224999	0	Peas_green_canned_no_salt_added	Peas, green, canned, no salt added	75224999.0
75225011	0	Pigeon_peas_fresh_cooked_with_salt_no_fat_added_	Pigeon peas, fresh, cooked (with salt, no fat added)	75225011.0
75225011	900000	Pigeon_peas_fresh_cooked_no_salt_or_fat_added_	Pigeon peas, fresh, cooked (no salt or fat added)	75225011.900000
75225013	0	Pigeon_peas_canned_cooked_no_fat_added	Pigeon peas, canned, cooked, no fat added	75225013.0
75226010	0	Peppers_green_cooked_with_salt_no_fat_added_	Peppers, green, cooked (with salt, no fat added)	75226010.0
75226010	900000	Peppers_green_cooked_no_salt_or_fat_added_	Peppers, green, cooked (no salt or fat added)	75226010.900000
75226020	0	Green_peppers_cooked_with_salt_and_margarine_	Green peppers, cooked (with salt and margarine)	75226020.0
75226020	200168	Peppers_green_cooked_with_salt_and_butter_	Peppers, green, cooked  (with salt and butter)	75226020.200168
75226020	201320	Green_pepper_cooked_with_salt_and_vegetable_oil_	Green pepper, cooked (with salt and vegetable oil)	75226020.201320
75226050	0	Pepper_red_cooked_with_salt_no_fat_added_	Pepper, red, cooked (with salt, no fat added)	75226050.0
75226050	900000	Pepper_red_cooked_no_salt_or_fat_added_	Pepper, red, cooked (no salt or fat added)	75226050.900000
75226060	0	Red_pepper_cooked_with_salt_and_margarine_	Red pepper, cooked (with salt and margarine)	75226060.0
75226060	201630	Pepper_red_cooked_with_salt_and_vegetable_oil_	Pepper, red, cooked (with salt and vegetable oil)	75226060.201630
75226060	206637	Red_pepper_cooked_with_salt_and_butter_	Red pepper, cooked (with salt and butter)	75226060.206637
75226101	0	Pepper_hot_fresh_cooked_with_salt_no_fat_added_	Pepper, hot, fresh, cooked (with salt, no fat added)	75226101.0
75226102	0	Peppers_hot_frozen_cooked_with_salt_no_fat_added_	Peppers, hot, frozen, cooked (with salt, no fat added)	75226102.0
75226103	0	Pepper_hot_canned_cooked_no_fat_added	Pepper, hot, canned, cooked, no fat added	75226103.0
75226111	0	Pepper_hot_fresh_cooked_with_salt_and_margarine_	Pepper, hot, fresh, cooked (with salt and margarine)	75226111.0
75226111	206246	Pepper_hot_fresh_cooked_with_salt_and_butter_	Pepper, hot, fresh, cooked (with salt and butter)	75226111.206246
75226112	0	Pepper_hot_frozen_cooked_with_salt_and_fat_	Pepper, hot, frozen, cooked (with salt and fat)	75226112.0
75226113	0	Peppers_hot_canned_cooked_with_fat_added_	Peppers, hot, canned, cooked (with fat added)	75226113.0
75226700	0	Peppers_pimiento	Peppers, pimiento	75226700.0
75227100	0	Radish_Japanese_daikon_cooked_with_salt_no_fat_added_	Radish, Japanese (daikon), cooked (with salt, no fat added)	75227100.0
75227100	900000	Radishes_Japanese_daikon_cooked_no_salt_or_fat_added_	Radishes, Japanese (daikon), cooked (no salt or fat added)	75227100.900000
75227110	0	Radish_Japanese_daikon_cooked_with_salt_and_fat_	Radish, Japanese (daikon), cooked (with salt and fat)	75227110.0
75228010	0	Rutabaga_cooked_with_salt_no_fat_added_	Rutabaga, cooked (with salt, no fat added)	75228010.0
75228010	900000	Rutabaga_cooked_no_salt_or_fat_added_	Rutabaga, cooked (no salt or fat added)	75228010.900000
75228020	0	Rutabaga_cooked_with_salt_and_fat_	Rutabaga, cooked (with salt and fat)	75228020.0
75229010	0	Salsify_vegetable_oyster_cooked_with_salt_no_fat_added_	Salsify (vegetable oyster), cooked (with salt, no fat added)	75229010.0
75229010	900000	Salsify_vegetable_oyster_cooked_no_salt_or_fat_added_	Salsify (vegetable oyster), cooked (no salt or fat added)	75229010.900000
75230010	0	Sauerkraut_cooked_no_fat_added_	Sauerkraut, cooked (no fat added)	75230010.0
75230020	0	Sauerkraut_cooked_with_margarine_	Sauerkraut, cooked (with margarine)	75230020.0
75230020	100148	Sauerkraut_cooked_with_vegetable_oil_	Sauerkraut, cooked (with vegetable oil)	75230020.100148
75230020	205057	Sauerkraut_cooked_with_pork_fat_	Sauerkraut, cooked (with pork fat)	75230020.205057
75230020	206770	Sauerkraut_cooked_with_butter_	Sauerkraut, cooked (with butter)	75230020.206770
75230100	0	Sauerkraut_canned_low_sodium	Sauerkraut, canned, low sodium	75230100.0
75231011	0	Snow_peas_sugar_snap_peas_fresh_cooked_with_salt_no_fat_added_	Snow peas (sugar snap peas), fresh, cooked (with salt, no fat added)	75231011.0
75231011	900000	Snow_peas_sugar_snap_peas_fresh_cooked_no_salt_or_fat_added_	Snow peas (sugar snap peas), fresh, cooked (no salt or fat added)	75231011.900000
75231012	0	Snow_peas_sugar_snap_peas_frozen_cooked_with_salt_no_fat_added_	Snow peas (sugar snap peas), frozen, cooked (with salt, no fat added)	75231012.0
75231012	900000	Snow_peas_sugar_snap_peas_frozen_cooked_no_salt_or_fat_added_	Snow peas (sugar snap peas), frozen, cooked (no salt or fat added)	75231012.900000
75231021	0	Snow_peas_sugar_snap_peas_fresh_cooked_with_salt_and_margarine_	Snow peas (sugar snap peas), fresh, cooked (with salt and margarine)	75231021.0
75231021	100894	Snow_peas_sugar_snap_peas_fresh_cooked_with_salt_and_vegetable_oil_	Snow peas (sugar snap peas), fresh, cooked (with salt and vegetable oil)	75231021.100894
75231021	205366	Snow_peas_sugar_snap_peas_fresh_cooked_with_salt_and_butter_	Snow peas (sugar snap peas), fresh, cooked (with salt and butter)	75231021.205366
75231022	0	Snow_peas_sugar_snap_peas_frozen_cooked_with_salt_and_margarine_	Snow peas (sugar snap peas), frozen, cooked (with salt and margarine)	75231022.0
75231022	205262	Snow_peas_sugar_snap_peas_frozen_cooked_with_salt_and_butter_	Snow peas (sugar snap peas), frozen, cooked (with salt and butter)	75231022.205262
75231022	205857	Snow_peas_sugar_snap_peas_frozen_cooked_with_salt_and_vegetable_oil_	Snow peas (sugar snap peas), frozen, cooked (with salt and vegetable oil)	75231022.205857
75232000	0	Seaweed_dried	Seaweed, dried	75232000.0
75232050	0	Seaweed_prepared_with_soy_sauce	Seaweed, prepared with soy sauce	75232050.0
75232110	0	Seaweed_cooked_with_salt_no_fat_added_	Seaweed, cooked (with salt, no fat added)	75232110.0
75232120	0	Seaweed_cooked_with_salt_and_fat_	Seaweed, cooked (with salt and fat)	75232120.0
75233011	0	Squash_yellow_fresh_cooked_with_salt_no_fat_added_	Squash, yellow, fresh, cooked (with salt, no fat added)	75233011.0
75233011	900000	Squash_yellow_fresh_cooked_no_salt_or_fat_added_	Squash, yellow, fresh, cooked (no salt or fat added)	75233011.900000
75233012	0	Zucchini_frozen_cooked_with_salt_no_fat_added_	Zucchini, frozen, cooked (with salt, no fat added)	75233012.0
75233012	900000	Squash_yellow_frozen_cooked_no_salt_or_fat_added_	Squash, yellow, frozen, cooked (no salt or fat added)	75233012.900000
75233013	0	Squash_yellow_canned_cooked_no_fat_added_	Squash, yellow, canned, cooked (no fat added)	75233013.0
75233021	0	Squash_yellow_fresh_cooked_with_salt_and_margarine_	Squash, yellow, fresh, cooked (with salt and margarine)	75233021.0
75233021	201148	Zucchini_fresh_cooked_with_salt_and_vegetable_oil_	Zucchini, fresh, cooked (with salt and vegetable oil)	75233021.201148
75233021	201174	Squash_yellow_fresh_cooked_with_salt_and_butter_	Squash, yellow, fresh, cooked (with salt and butter)	75233021.201174
75233022	0	Zucchini_frozen_cooked_with_salt_and_margarine_	Zucchini, frozen, cooked (with salt and margarine)	75233022.0
75233022	201731	Squash_yellow_frozen_cooked_with_salt_and_butter_	Squash, yellow, frozen, cooked (with salt and butter)	75233022.201731
75233022	206425	Zucchini_frozen_cooked_with_salt_and_vegetable_oil_	Zucchini, frozen, cooked (with salt and vegetable oil)	75233022.206425
75233023	0	Squash_yellow_canned_cooked_with_fat_added_	Squash, yellow, canned, cooked (with fat added)	75233023.0
75233210	0	Squash_spaghetti_cooked_with_salt_and_margarine_	Squash, spaghetti, cooked (with salt and margarine)	75233210.0
75233210	205617	Squash_spaghetti_cooked_with_salt_and_butter_	Squash, spaghetti, cooked (with salt and butter)	75233210.205617
75233220	0	Squash_spaghetti_cooked_with_salt_no_fat_added_	Squash, spaghetti, cooked (with salt, no fat added)	75233220.0
75233220	900000	Squash_spaghetti_cooked_no_salt_or_fat_added_	Squash, spaghetti, cooked (no salt or fat added)	75233220.900000
75234011	0	Turnips_fresh_cooked_with_salt_no_fat_added_	Turnips, fresh, cooked (with salt, no fat added)	75234011.0
75234011	900000	Turnips_fresh_cooked_no_salt_or_fat_added_	Turnips, fresh, cooked (no salt or fat added)	75234011.900000
75234012	0	Turnips_frozen_cooked_with_salt_no_fat_added_	Turnips, frozen, cooked (with salt, no fat added)	75234012.0
75234013	0	Turnips_canned_cooked_no_fat_added_	Turnips, canned, cooked (no fat added)	75234013.0
75234021	0	Turnips_fresh_cooked_with_salt_and_margarine_	Turnips, fresh, cooked (with salt and margarine)	75234021.0
75234021	205160	Turnips_fresh_cooked_with_salt_and_pork_fat_	Turnips, fresh, cooked (with salt and pork fat)	75234021.205160
75234021	206020	Turnips_fresh_cooked_with_salt_and_vegetable_oil_	Turnips, fresh, cooked (with salt and vegetable oil)	75234021.206020
75234022	0	Turnips_frozen_cooked_with_salt_and_fat_	Turnips, frozen, cooked (with salt and fat)	75234022.0
75234023	0	Turnips_canned_cooked_with_fat_added_	Turnips, canned, cooked (with fat added)	75234023.0
75235000	0	Water_chestnut	Water chestnut	75235000.0
75235750	0	Winter_melon_cooked_with_salt_no_fat_added_	Winter melon, cooked (with salt, no fat added)	75235750.0
75236000	0	Yeast	Yeast	75236000.0
75236500	0	Yeast_extract_spread_vegemite_marmite_	Yeast extract spread (vegemite, marmite)	75236500.0
75299900	900000	Cabbage_Chinese_Won_Bok_Pe_tsai_cooked_no_salt_or_fat_added_	Cabbage, Chinese (Won Bok, Pe-tsai), cooked (no salt or fat added)	75299900.900000
75299999	0	Napa_Cabbage_raw	Napa Cabbage, raw	75299999.0
75301110	0	Succotash_lima_beans_and_corn_cooked_with_salt_no_fat_added_	Succotash (lima beans and corn), cooked (with salt, no fat added)	75301110.0
75301120	0	Succotash_lima_beans_and_corn_cooked_with_salt_and_margarine_	Succotash (lima beans and corn), cooked (with salt and margarine)	75301120.0
75301120	101241	Succotash_lima_beans_and_corn_cooked_with_salt_and_butter_	Succotash (lima beans and corn), cooked (with salt and butter)	75301120.101241
75301120	205850	Succotash_lima_beans_and_corn_cooked_with_salt_and_vegetable_oil_	Succotash (lima beans and corn), cooked (with salt and vegetable oil)	75301120.205850
75302010	0	String_beans_with_tomatoes_cooked_with_salt_no_fat_added_	String beans, with tomatoes, cooked (with salt, no fat added)	75302010.0
75302020	0	Green_beans_with_onions_cooked_with_salt_no_fat_added_	Green beans, with onions, cooked (with salt, no fat added)	75302020.0
75302030	0	String_beans_with_chickpeas_cooked_with_salt_no_fat_added_	String beans, with chickpeas, cooked (with salt, no fat added)	75302030.0
75302040	0	String_beans_with_almonds_cooked_with_salt_no_fat_added_	String beans, with almonds, cooked (with salt, no fat added)	75302040.0
75302045	0	Green_beans_with_almonds_cooked_with_salt_and_margarine_	Green beans, with almonds, cooked (with salt and margarine)	75302045.0
75302050	0	Green_beans_and_potatoes_cooked_with_salt_no_fat_added_	Green beans, and potatoes, cooked (with salt, no fat added)	75302050.0
75302060	0	String_beans_with_pinto_beans_cooked_with_salt_no_fat_added_	String beans, with pinto beans, cooked (with salt, no fat added)	75302060.0
75302080	0	Bean_salad_yellow_or_green_string_beans	Bean salad, yellow or green string beans	75302080.0
75302210	0	Green_beans_with_onions_cooked_with_salt_and_fat_	Green beans, with onions, cooked (with salt and fat)	75302210.0
75302510	0	String_beans_and_potatoes_cooked_with_salt_and_fat_	String beans, and potatoes, cooked (with salt and fat)	75302510.0
75303010	0	Corn_with_peppers_Mexicorn_cooked_with_salt_no_fat_added_	Corn with peppers (Mexicorn), cooked (with salt, no fat added)	75303010.0
75303020	0	Corn_with_peppers_Mexicorn_cooked_with_salt_and_fat_	Corn with peppers (Mexicorn), cooked (with salt and fat)	75303020.0
75307000	0	Green_peppers_and_onions_cooked_with_salt_and_margarine_	Green peppers and onions, cooked (with salt and margarine)	75307000.0
75307000	100955	Green_peppers_and_onions_cooked_with_salt_and_vegetable_oil_	Green peppers and onions, cooked (with salt and vegetable oil)	75307000.100955
75307000	101226	Green_peppers_and_onions_cooked_with_salt_and_butter_	Green peppers and onions, cooked (with salt and butter)	75307000.101226
75307000	205592	Green_peppers_and_onions_cooked_with_salt_no_fat_added_	Green peppers and onions, cooked (with salt, no fat added)	75307000.205592
75311012	0	Mixed_vegetables_corn_lima_beans_peas_green_beans_carrots_frozen_cooked_with_salt_no_fat_added_	Mixed vegetables (corn, lima beans, peas, green beans, carrots), frozen, cooked (with salt, no fat added)	75311012.0
75311012	900000	Mixed_vegetables_corn_lima_beans_peas_green_beans_carrots_frozen_cooked_no_salt_or_fat_added_	Mixed vegetables (corn, lima beans, peas, green beans, carrots), frozen, cooked (no salt or fat added)	75311012.900000
75311013	0	Mixed_vegetables_corn_lima_beans_peas_green_beans_carrots_canned_cooked_without_fat	Mixed vegetables (corn, lima beans, peas, green beans, carrots), canned, cooked without fat	75311013.0
75311022	0	Mixed_vegetables_corn_lima_beans_peas_green_beans_carrots_frozen_cooked_with_salt_and_margarine_	Mixed vegetables (corn, lima beans, peas, green beans, carrots), frozen, cooked (with salt and margarine)	75311022.0
75311022	100619	Mixed_vegetables_corn_lima_beans_peas_green_beans_carrots_frozen_cooked_with_salt_and_butter_	Mixed vegetables (corn, lima beans, peas, green beans, carrots), frozen, cooked (with salt and butter)	75311022.100619
75311022	204964	Mixed_vegetables_corn_lima_beans_peas_green_beans_carrots_frozen_cooked_with_salt_and_vegetable_oil_	Mixed vegetables (corn, lima beans, peas, green beans, carrots), frozen, cooked (with salt and vegetable oil)	75311022.204964
75311023	0	Mixed_vegetables_corn_lima_beans_peas_green_beans_carrots_canned_cooked_with_margarine	Mixed vegetables (corn, lima beans, peas, green beans, carrots), canned, cooked with margarine	75311023.0
75311023	204421	Mixed_vegetables_corn_lima_beans_peas_green_beans_carrots_canned_cooked_with_butter	Mixed vegetables (corn, lima beans, peas, green beans, carrots), canned, cooked with butter	75311023.204421
75311023	206211	Mixed_vegetables_corn_lima_beans_peas_green_beans_carrots_canned_cooked_with_vegetable_oil	Mixed vegetables (corn, lima beans, peas, green beans, carrots), canned, cooked with vegetable oil	75311023.206211
75311110	0	Mixed_vegetables_corn_lima_beans_peas_green_beans_carrots_canned_low_sodium_cooked_without_fat	Mixed vegetables (corn, lima beans, peas, green beans, carrots), canned, low sodium, cooked without fat	75311110.0
75311120	0	Mixed_vegetables_corn_lima_beans_peas_green_beans_carrots_canned_low_sodium_cooked_with_margarine	Mixed vegetables (corn, lima beans, peas, green beans, carrots), canned, low sodium, cooked with margarine	75311120.0
75311120	206134	Mixed_vegetables_corn_lima_beans_peas_green_beans_carrots_canned_low_sodium_cooked_with_vegetable_oil	Mixed vegetables (corn, lima beans, peas, green beans, carrots), canned, low sodium, cooked with vegetable oil	75311120.206134
75315110	0	Peas_and_onions_cooked_with_salt_no_fat_added_	Peas and onions, cooked (with salt, no fat added)	75315110.0
75315120	0	Peas_and_onions_cooked_with_salt_and_margarine_	Peas and onions, cooked (with salt and margarine)	75315120.0
75315120	202132	Peas_and_onions_cooked_with_salt_and_vegetable_oil_	Peas and onions, cooked (with salt and vegetable oil)	75315120.202132
75315120	202835	Peas_and_onions_cooked_with_salt_and_butter_	Peas and onions, cooked (with salt and butter)	75315120.202835
75315210	0	Peas_and_mushrooms_cooked_with_salt_no_fat_added_	Peas and mushrooms, cooked (with salt, no fat added)	75315210.0
75315215	0	Peas_and_mushrooms_cooked_with_salt_and_margarine_	Peas and mushrooms, cooked (with salt and margarine)	75315215.0
75316000	0	Squash_yellow_with_onions_with_salt_no_fat_added_	Squash, yellow, with onions (with salt, no fat added)	75316000.0
75316020	0	Squash_yellow_with_onions_with_salt_and_fat_	Squash, yellow, with onions (with salt and fat)	75316020.0
75316050	0	Ratatouille_cooked_with_olive_oil	Ratatouille, cooked with olive oil	75316050.0
75316050	203436	Ratatouille_cooked_with_vegetable_oil	Ratatouille, cooked with vegetable oil	75316050.203436
75316050	206095	Ratatouille_cooked_without_fat	Ratatouille, cooked without fat	75316050.206095
75317010	0	Vegetables_stew_type_potatoes_carrots_onions_celery_cooked_with_fat	Vegetables, stew type (potatoes, carrots, onions, celery), cooked with fat	75317010.0
75317010	101288	Vegetables_stew_type_potatoes_carrots_onions_celery_cooked_with_vegetable_oil	Vegetables, stew type, (potatoes, carrots, onions, celery), cooked with vegetable oil	75317010.101288
75317010	206766	Vegetables_stew_type_potatoes_carrots_onions_celery_cooked_with_butter	Vegetables, stew type, (potatoes, carrots, onions, celery), cooked with butter	75317010.206766
75317020	0	Vegetables_stew_type_potatoes_carrots_onions_celery_cooked_without_fat	Vegetables, stew type, (potatoes, carrots, onions, celery), cooked without fat	75317020.0
75340010	0	Vegetable_blends_medley_Asian_style_cooked_without_fat	Vegetable blends (medley), Asian style, cooked without fat	75340010.0
75340020	0	Vegetable_blends_medley_Asian_style_cooked_with_margarine	Vegetable blends (medley), Asian style, cooked with margarine	75340020.0
75340020	200421	Vegetable_blends_medley_Asian_style_cooked_with_vegetable_oil	Vegetable blends (medley), Asian style, cooked with vegetable oil	75340020.200421
75340110	0	Vegetable_blends_medley_cooked_without_fat	Vegetable blends (medley), cooked without fat	75340110.0
75340120	0	Vegetable_blends_medley_cooked_with_margarine	Vegetable blends (medley), cooked with margarine	75340120.0
75340120	200695	Vegetable_blends_medley_cooked_with_butter	Vegetable blends (medley), cooked with butter	75340120.200695
75340120	201702	Vegetable_blends_medley_cooked_with_vegetable_oil	Vegetable blends (medley), cooked with vegetable oil	75340120.201702
75340160	0	Vegetable_pasta_combo_with_cream_or_cheese_sauce_cooked_with_margarine	Vegetable-pasta combo, with cream or cheese sauce, cooked with margarine	75340160.0
75340160	206975	Vegetable_pasta_combo_with_cream_or_cheese_sauce_cooked_with_butter	Vegetable-pasta combo, with cream or cheese sauce, cooked with butter	75340160.206975
75340160	207000	Vegetable_pasta_combo_with_cream_or_cheese_sauce_cooked_without_fat	Vegetable-pasta combo, with cream or cheese sauce, cooked without fat	75340160.207000
75340200	0	Jai_Monk_s_Food_mushrooms_lily_roots_bean_curd_water_chestnuts_	Jai, Monk's Food (mushrooms, lily roots, bean curd, water chestnuts)	75340200.0
75340300	0	Pinacbet_eggplant_with_tomatoes_bitter_melon_etc_	Pinacbet (eggplant with tomatoes, bitter melon, etc.)	75340300.0
75365000	0	Vegetable_mixture_dried	Vegetable mixture, dried	75365000.0
75400500	0	Artichokes_stuffed	Artichokes, stuffed	75400500.0
75401011	0	Asparagus_fresh_creamed_or_with_cheese_sauce	Asparagus, fresh, creamed or with cheese sauce	75401011.0
75401012	0	Asparagus_frozen_creamed_or_with_cheese_sauce	Asparagus, frozen, creamed or with cheese sauce	75401012.0
75401013	0	Asparagus_canned_creamed_or_with_cheese_sauce	Asparagus, canned, creamed or with cheese sauce	75401013.0
75402011	0	Lima_beans_fresh_creamed_or_with_cheese_sauce	Lima beans, fresh, creamed or with cheese sauce	75402011.0
75402012	0	Lima_beans_frozen_creamed_or_with_cheese_sauce	Lima beans, frozen, creamed or with cheese sauce	75402012.0
75402013	0	Lima_beans_canned_creamed_or_with_cheese_sauce	Lima beans, canned, creamed or with cheese sauce	75402013.0
75402021	0	Lima_beans_fresh_with_mushroom_sauce	Lima beans, fresh, with mushroom sauce	75402021.0
75402022	0	Lima_beans_frozen_with_mushroom_sauce	Lima beans, frozen, with mushroom sauce	75402022.0
75402023	0	Lima_beans_canned_with_mushroom_sauce	Lima beans, canned, with mushroom sauce	75402023.0
75403011	0	Beans_green_string_fresh_creamed_or_with_cheese_sauce	Beans, green (string), fresh, creamed or with cheese sauce	75403011.0
75403012	0	String_beans_frozen_creamed_or_with_cheese_sauce	String beans, frozen, creamed or with cheese sauce	75403012.0
75403013	0	Green_beans_canned_creamed_or_with_cheese_sauce	Green beans, canned, creamed or with cheese sauce	75403013.0
75403021	0	String_beans_fresh_cooked_with_mushroom_sauce	String beans, fresh, cooked with mushroom sauce	75403021.0
75403022	0	Green_beans_frozen_cooked_with_mushroom_sauce	Green beans, frozen, cooked with mushroom sauce	75403022.0
75403023	0	String_beans_canned_cooked_with_mushroom_sauce	String beans, canned, cooked with mushroom sauce	75403023.0
75403200	0	Green_beans_cooked_Szechuan_style_with_vegetable_oil	Green beans, cooked, Szechuan-style, with vegetable oil	75403200.0
75404011	0	String_beans_yellow_fresh_creamed_or_with_cheese_sauce	String beans, yellow, fresh, creamed or with cheese sauce	75404011.0
75404012	0	String_beans_yellow_frozen_creamed_or_with_cheese_sauce	String beans, yellow, frozen, creamed or with cheese sauce	75404012.0
75404013	0	String_beans_yellow_canned_creamed_or_with_cheese_sauce	String beans, yellow, canned, creamed or with cheese sauce	75404013.0
75405010	0	Beets_with_Harvard_sauce	Beets with Harvard sauce	75405010.0
75405010	206390	Beets_with_Harvard_sauce_no_fat_added_	Beets with Harvard sauce (no fat added)	75405010.206390
75406011	0	Brussels_sprouts_from_fresh_creamed	Brussels sprouts, from fresh, creamed	75406011.0
75406012	0	Brussels_sprouts_from_frozen_creamed	Brussels sprouts, from frozen, creamed	75406012.0
75407010	0	Cabbage_creamed	Cabbage, creamed	75407010.0
75409011	0	Cauliflower_creamed	Cauliflower, creamed	75409011.0
75409012	0	Cauliflower_frozen_creamed	Cauliflower, frozen, creamed	75409012.0
75409013	0	Cauliflower_canned_creamed	Cauliflower, canned, creamed	75409013.0
75409020	101356	Cauliflower_batter_dipped_fried_with_vegetable_oil	Cauliflower, batter-dipped, fried with vegetable oil	75409020.101356
75410010	0	Celery_creamed	Celery, creamed	75410010.0
75410500	0	Chiles_rellenos_cheese_filled_stuffed_chili_peppers_	Chiles rellenos, cheese-filled (stuffed chili peppers)	75410500.0
75410530	0	Chiles_rellenos_filled_with_meat_and_cheese_stuffed_chili_peppers_	Chiles rellenos, filled with meat and cheese (stuffed chili peppers)	75410530.0
75410550	0	Jalapeno_pepper_stuffed_with_cheese_breaded_or_battered_fried	Jalapeno pepper, stuffed with cheese, breaded or battered, fried	75410550.0
75411010	0	Corn_scalloped_or_pudding	Corn, scalloped or pudding	75411010.0
75411020	0	Corn_fritter	Corn fritter	75411020.0
75411031	0	Corn_cooked_with_cream_sauce_made_with_milk	Corn, cooked, with cream sauce made with milk	75411031.0
75412010	0	Eggplant_batter_dipped_fried	Eggplant, batter-dipped, fried	75412010.0
75412030	0	Eggplant_dip	Eggplant dip	75412030.0
75412060	0	Eggplant_parmesan_casserole	Eggplant parmesan casserole	75412060.0
75412070	0	Eggplant_with_cheese_and_tomato_sauce	Eggplant, with cheese and tomato sauce	75412070.0
75413010	0	Kohlrabi_creamed	Kohlrabi, creamed	75413010.0
75414011	0	Mushrooms_creamed	Mushrooms, creamed	75414011.0
75414012	0	Mushrooms_frozen_creamed	Mushrooms, frozen, creamed	75414012.0
75414013	0	Mushrooms_canned_creamed	Mushrooms, canned, creamed	75414013.0
75414020	0	Mushrooms_stuffed	Mushrooms, stuffed	75414020.0
75414030	207073	Mushrooms_batter_dipped_fried_in_vegetable_oil	Mushrooms, batter-dipped, fried in vegetable oil	75414030.207073
75414500	206972	Okra_batter_dipped_fried_in_vegetable_oil	Okra, batter-dipped, fried in vegetable oil	75414500.206972
75415011	0	Onions_creamed	Onions, creamed	75415011.0
75415021	0	Onion_rings_fresh_batter_dipped_baked_or_fried	Onion rings, fresh, batter-dipped, baked or fried	75415021.0
75415022	0	Onion_rings_frozen_batter_dipped_baked_or_fried	Onion rings, frozen, batter-dipped, baked or fried	75415022.0
75416010	0	Parsnips_creamed	Parsnips, creamed	75416010.0
75416500	0	Pea_salad_with_mayonnaise	Pea salad, with mayonnaise	75416500.0
75416500	202865	Pea_salad_with_fat_free_mayonnaise_type_dressing_Miracle_Whip_Free_	Pea salad, with fat free mayonnaise-type dressing (Miracle Whip Free)	75416500.202865
75416500	207206	Pea_salad_with_mayonnaise_type_dressing_Miracle_Whip_	Pea salad, with mayonnaise-type dressing (Miracle Whip)	75416500.207206
75416600	0	Pea_salad_with_mayonnaise_and_cheese	Pea salad, with mayonnaise and cheese	75416600.0
75417011	0	Peas_fresh_creamed	Peas, fresh, creamed	75417011.0
75417012	0	Peas_frozen_creamed	Peas, frozen, creamed	75417012.0
75417013	0	Peas_canned_creamed	Peas, canned, creamed	75417013.0
75418000	0	Squash_yellow_breaded_or_battered_baked	Squash, yellow, breaded or battered, baked	75418000.0
75418010	0	Zucchini_breaded_or_battered_fried	Zucchini, breaded or battered, fried	75418010.0
75418020	0	Squash_yellow_casserole_with_tomato_and_cheese	Squash, yellow, casserole with tomato and cheese	75418020.0
75418030	0	Zucchini_with_rice_and_tomato_sauce	Zucchini, with rice and tomato sauce	75418030.0
75418040	0	Squash_yellow_casserole_with_cheese_sauce	Squash, yellow, casserole, with cheese sauce	75418040.0
75418051	0	Zucchini_fresh_creamed	Zucchini, fresh, creamed	75418051.0
75418052	0	Squash_yellow_frozen_creamed	Squash, yellow, frozen, creamed	75418052.0
75418053	0	Zucchini_canned_creamed	Zucchini, canned, creamed	75418053.0
75418060	0	Squash_yellow_souffle	Squash, yellow, souffle	75418060.0
75418101	0	Turnips_creamed	Turnips, creamed	75418101.0
75418102	0	Turnips_frozen_creamed	Turnips, frozen, creamed	75418102.0
75418103	0	Turnips_canned_creamed	Turnips, canned, creamed	75418103.0
75418220	0	Christophine_chayote_creamed_Puerto_Rican_style	Christophine (chayote), creamed, Puerto Rican style	75418220.0
75439010	0	Vegetable_stew_without_meat	Vegetable stew without meat	75439010.0
75439500	0	Chop_suey_meatless_no_noodles	Chop suey, meatless, no noodles	75439500.0
75440100	0	Vegetable_blends_medley_cooked_with_soy_based_sauce	Vegetable blends (medley), cooked with soy-based sauce	75440100.0
75440170	0	Vegetable_sticks_breaded_fried	Vegetable sticks, breaded, fried	75440170.0
75440200	0	Vegetable_tempura_fried_in_partially_hydrogenated_vegetable_oil	Vegetable tempura, fried in partially hydrogenated vegetable oil	75440200.0
75440400	0	Pakoras_Indian_vegetable_and_chickpea_fritters_	Pakoras (Indian vegetable and chickpea fritters)	75440400.0
75440500	0	Vegetable_blends_medley_cooked_with_cheese_sauce	Vegetable blends (medley), cooked with cheese sauce	75440500.0
75440600	0	Vegetable_curry	Vegetable curry	75440600.0
75450500	0	Vegetable_blends_medley_cooked_with_cream_sauce	Vegetable blends (medley), cooked with cream sauce	75450500.0
75460700	0	Vegetable_blends_medley_with_pasta	Vegetable blends (medley) with pasta	75460700.0
75460800	0	Vegetable_blends_medley_with_pasta_and_butter_sauce	Vegetable blends (medley) with pasta and butter sauce	75460800.0
75460900	0	Vegetable_chow_mein_chop_suey_with_chow_mein_noodles	Vegetable chow mein (chop suey), with chow mein noodles	75460900.0
75500110	0	Beans_string_green_pickled	Beans, string (green), pickled	75500110.0
75500210	0	Beets_pickled	Beets, pickled	75500210.0
75500510	0	Celery_pickled	Celery, pickled	75500510.0
75501010	0	Corn_relish	Corn relish	75501010.0
75502010	0	Cauliflower_pickled	Cauliflower, pickled	75502010.0
75502500	0	Cabbage_fresh_pickled_Japanese_style	Cabbage, fresh, pickled, Japanese style	75502500.0
75502510	0	Cabbage_red_pickled	Cabbage, red, pickled	75502510.0
75502520	0	Cabbage_Kimchi_Kim_Chee_style	Cabbage, Kimchi (Kim Chee) style	75502520.0
75502550	0	Cabbage_mustard_salted	Cabbage, mustard, salted	75502550.0
75503010	0	Pickle_dill	Pickle, dill	75503010.0
75503020	0	Pickle_relish	Pickle, relish	75503020.0
75503030	0	Pickles_sour	Pickles, sour	75503030.0
75503040	0	Pickle_sweet	Pickle, sweet	75503040.0
75503080	0	Eggplant_pickled	Eggplant, pickled	75503080.0
75503090	0	Horseradish	Horseradish	75503090.0
75503100	0	Mustard_pickles	Mustard pickles	75503100.0
75503110	0	Pickle_dill_reduced_salt	Pickle, dill, reduced salt	75503110.0
75503140	0	Pickle_sweet_reduced_salt	Pickle, sweet, reduced salt	75503140.0
75505000	0	Mushrooms_pickled	Mushrooms, pickled	75505000.0
75506010	0	Mustard	Mustard	75506010.0
75506100	0	Mustard_sauce	Mustard sauce	75506100.0
75507000	0	Okra_pickled	Okra, pickled	75507000.0
75510010	0	Olives_green	Olives, green	75510010.0
75510020	0	Olives_black	Olives, black	75510020.0
75510030	0	Olives_green_stuffed	Olives, green, stuffed	75510030.0
75511010	0	Hot_pepper_sauce	Hot pepper sauce	75511010.0
75511020	0	Peppers_pickled	Peppers, pickled	75511020.0
75511040	0	Peppers_hot_pickled	Peppers, hot, pickled	75511040.0
75511200	0	Pickles_mixed	Pickles, mixed	75511200.0
75512010	0	Radishes_pickled_Hawaiian_style	Radishes, pickled, Hawaiian style	75512010.0
75513010	0	Seaweed_pickled	Seaweed, pickled	75513010.0
75515000	0	Vegetables_pickled_Hawaiian_style	Vegetables, pickled, Hawaiian style	75515000.0
75515010	0	Vegetable_relish	Vegetable relish	75515010.0
75515100	0	Vegetables_pickled	Vegetables, pickled	75515100.0
75534030	0	Turnip_pickled	Turnip, pickled	75534030.0
75534500	0	Tsukemono_Japanese_pickles	Tsukemono, Japanese pickles	75534500.0
75535000	0	Zucchini_pickled	Zucchini, pickled	75535000.0
75601010	0	Cream_of_asparagus_soup_prepared_with_milk	Cream of asparagus soup, prepared with milk	75601010.0
75601020	0	Cream_of_asparagus_soup_prepared_with_water	Cream of asparagus soup, prepared with water	75601020.0
75601100	0	Beet_soup_borscht_	Beet soup (borscht)	75601100.0
75601200	0	Cabbage_soup	Cabbage soup	75601200.0
75601210	0	Cabbage_soup_with_pork	Cabbage soup, with pork	75601210.0
75602010	0	Cream_of_cauliflower_soup_prepared_with_milk	Cream of cauliflower soup, prepared with milk	75602010.0
75603010	0	Cream_of_celery_soup_prepared_with_milk	Cream of celery soup, prepared with milk	75603010.0
75603020	0	Cream_of_celery_soup_prepared_with_water	Cream of celery soup, prepared with water	75603020.0
75603030	0	Cream_of_celery_soup_canned_condensed	Cream of celery soup, canned, condensed	75603030.0
75604010	0	Cream_of_corn_soup_prepared_with_milk	Cream of corn soup, prepared with milk	75604010.0
75604020	0	Cream_of_corn_soup_prepared_with_water	Cream of corn soup, prepared with water	75604020.0
75604600	0	Gazpacho	Gazpacho	75604600.0
75605010	0	Leek_soup_cream_of_prepared_with_milk	Leek soup, cream of, prepared with milk	75605010.0
75607010	0	Cream_of_mushroom_soup_prepared_with_milk	Cream of mushroom soup, prepared with milk	75607010.0
75607020	0	Cream_of_mushroom_soup_prepared_with_water	Cream of mushroom soup, prepared with water	75607020.0
75607030	0	Cream_of_mushroom_soup_canned_condensed	Cream of mushroom soup, canned, condensed	75607030.0
75607040	0	Mushroom_soup_with_meat_broth_prepared_with_water	Mushroom soup, with meat broth, prepared with water	75607040.0
75607050	0	Cream_of_mushroom_soup_low_sodium_prepared_with_water	Cream of mushroom soup, low sodium, prepared with water	75607050.0
75607080	0	Cream_of_chicken_and_mushroom_soup_prepared_with_milk	Cream of chicken and mushroom soup, prepared with milk	75607080.0
75607100	0	Cream_of_mushroom_soup_canned_reduced_sodium_prepared_with_milk	Cream of mushroom soup, canned, reduced sodium, prepared with milk	75607100.0
75607130	0	Mushroom_soup_made_from_dry_mix	Mushroom soup, made from dry mix	75607130.0
75607140	0	Cream_of_mushroom_soup_canned_reduced_sodium_prepared_with_water	Cream of mushroom soup, canned, reduced sodium, prepared with water	75607140.0
75607150	0	Cream_of_mushroom_soup_canned_reduced_sodium_condensed	Cream of mushroom soup, canned, reduced sodium, condensed	75607150.0
75608010	0	Onion_soup_cream_of_prepared_with_milk	Onion soup, cream of, prepared with milk	75608010.0
75608100	0	Onion_soup_French	Onion soup, French	75608100.0
75608200	0	Onion_soup_made_from_dry_mix	Onion soup, made from dry mix	75608200.0
75608300	0	Onion_soup_mix_dry	Onion soup mix, dry	75608300.0
75609010	0	Pea_soup_prepared_with_milk	Pea soup, prepared with milk	75609010.0
75609020	0	Pea_soup_prepared_with_water	Pea soup, prepared with water	75609020.0
75609050	0	Pea_soup_canned_low_sodium_prepared_with_water	Pea soup, canned, low sodium, prepared with water	75609050.0
75611010	0	Vegetable_soup_cream_of_prepared_with_milk	Vegetable soup, cream of, prepared with milk	75611010.0
75612010	0	Zucchini_soup_cream_of_prepared_with_milk	Zucchini soup, cream of, prepared with milk	75612010.0
75646010	0	Shav_soup	Shav soup	75646010.0
75647000	0	Seaweed_soup	Seaweed soup	75647000.0
75649010	0	Vegetable_soup_prepared_with_water_or_ready_to_serve	Vegetable soup, prepared with water or ready-to-serve	75649010.0
75649030	0	Vegetable_soup_canned_low_sodium_prepared_with_water_or_ready_to_serve	Vegetable soup, canned, low sodium, prepared with water or ready-to-serve	75649030.0
75649050	0	Vegetable_soup_made_from_dry_mix	Vegetable soup, made from dry mix	75649050.0
75649060	0	Vegetable_soup_mix_dry	Vegetable soup mix, dry	75649060.0
75649070	0	Vegetable_soup_made_from_dry_mix_low_sodium	Vegetable soup, made from dry mix, low sodium	75649070.0
75649100	0	Vegetable_soup_cream_of_made_from_dry_mix_low_sodium_prepared_with_water	Vegetable soup, cream of, made from dry mix, low sodium, prepared with water	75649100.0
75649110	0	Vegetable_soup_home_recipe	Vegetable soup, home recipe	75649110.0
75649150	0	Vegetable_noodle_soup_home_recipe	Vegetable noodle soup, home recipe	75649150.0
75650990	0	Minestrone_soup_canned_reduced_sodium_ready_to_serve	Minestrone soup, canned, reduced sodium, ready-to-serve	75650990.0
75651000	0	Minestrone_soup_home_recipe	Minestrone soup, home recipe	75651000.0
75651010	0	Vegetable_bean_soup_prepared_with_water_or_ready_to_serve	Vegetable bean soup, prepared with water or ready-to-serve	75651010.0
75651020	0	Vegetable_beef_soup_prepared_with_water	Vegetable beef soup, prepared with water	75651020.0
75651030	0	Vegetable_beef_noodle_soup_prepared_with_water	Vegetable beef noodle soup, prepared with water	75651030.0
75651040	0	Vegetable_noodle_soup_prepared_with_water	Vegetable noodle soup, prepared with water	75651040.0
75651050	0	Vegetable_chicken_or_turkey_soup_prepared_with_water_or_ready_to_serve	Vegetable chicken or turkey soup, prepared with water or ready-to-serve	75651050.0
75651070	0	Vegetable_rice_soup_prepared_with_water	Vegetable rice soup, prepared with water	75651070.0
75651080	0	Vegetable_beef_soup_with_rice_prepared_with_water_or_ready_to_serve	Vegetable beef soup with rice, prepared with water or ready-to-serve	75651080.0
75651090	0	Vegetable_chicken_soup_canned_low_sodium_prepared_with_water	Vegetable chicken soup, canned, low sodium, prepared with water	75651090.0
75651110	0	Vegetable_chicken_rice_soup_prepared_with_water_or_ready_to_serve	Vegetable chicken rice soup, prepared with water or ready-to-serve	75651110.0
75651120	0	Vegetable_chicken_noodle_soup_prepared_with_water_or_ready_to_serve	Vegetable chicken noodle soup, prepared with water or ready-to-serve	75651120.0
75651140	0	Vegetable_soup_with_chicken_broth_Mexican_style	Vegetable soup with chicken broth, Mexican style	75651140.0
75651150	0	Vegetable_noodle_soup_canned_reduced_sodium_prepared_with_water_or_ready_to_serve	Vegetable noodle soup, canned, reduced sodium, prepared with water or ready-to-serve	75651150.0
75652010	0	Vegetable_beef_soup_home_recipe	Vegetable beef soup, home recipe	75652010.0
75652030	0	Vegetable_beef_soup_prepared_with_milk	Vegetable beef soup, prepared with milk	75652030.0
75652040	0	Vegetable_beef_soup_with_noodles_or_pasta_home_recipe	Vegetable beef soup with noodles or pasta, home recipe	75652040.0
75652050	0	Vegetable_beef_soup_with_rice_home_recipe	Vegetable beef soup with rice, home recipe	75652050.0
75654010	0	Vegetarian_vegetable_soup_prepared_with_water	Vegetarian vegetable soup, prepared with water	75654010.0
75656020	0	Vegetable_soup_chunky_style	Vegetable soup, chunky style	75656020.0
75656040	0	Vegetable_soup_with_pasta_chunky_style	Vegetable soup, with pasta, chunky style	75656040.0
75656060	0	Vegetable_beef_soup_chunky_style	Vegetable beef soup, chunky style	75656060.0
75657000	0	Broth_vegetable	Broth, vegetable	75657000.0
77316600	0	Eggplant_and_meat_casserole_Moussaka_	Eggplant and meat casserole (Moussaka)	77316600.0
78101000	0	Vegetable_and_fruit_juice_blend_100_juice_V8_fusion_	Vegetable and fruit juice blend, 100% juice (V8 fusion)	78101000.0
79999901	0	Cardamom	Cardamom	79999901.0
79999902	0	Lemongrass	Lemongrass	79999902.0
79999903	0	Nutmeg	Nutmeg	79999903.0
79999904	0	Onion_powder	Onion powder	79999904.0
79999905	0	Oregano	Oregano	79999905.0
79999906	0	Paprika	Paprika	79999906.0
79999907	0	Rosemary_fresh	Rosemary, fresh	79999907.0
79999908	0	Rosemary_dried	Rosemary, dried	79999908.0
79999909	0	Saffron	Saffron	79999909.0
79999910	0	Pumpkin_pie_spice	Pumpkin pie spice	79999910.0
79999911	0	Garlic_salt	Garlic salt	79999911.0
79999990	0	Marjoram	Marjoram	79999990.0
79999991	0	Pepper_red_cayenne_	Pepper, red (cayenne)	79999991.0
79999992	0	Curry_powder	Curry powder	79999992.0
79999993	0	Garlic_powder	Garlic powder	79999993.0
79999994	0	Cinnamon	Cinnamon	79999994.0
79999995	0	Ginger_raw	Ginger, raw	79999995.0
79999996	0	Ginger_ground	Ginger, ground	79999996.0
79999997	0	Basil_fresh	Basil, fresh	79999997.0
79999998	0	Basil_dried	Basil, dried	79999998.0
79999999	0	Bay_leaf	Bay leaf	79999999.0
81101000	0	Butter_stick_salted	Butter, stick, salted	81101000.0
81101010	0	Butter_tub_whipped_salted	Butter, tub, whipped, salted	81101010.0
81101020	0	Butter_stick_whipped_salted	Butter, stick, whipped, salted	81101020.0
81101100	0	Butter_stick_unsalted	Butter, stick, unsalted	81101100.0
81101110	0	Butter_tub_whipped_unsalted	Butter, tub, whipped, unsalted	81101110.0
81101120	0	Butter_stick_whipped_unsalted	Butter, stick, whipped, unsalted	81101120.0
81101500	0	Light_butter_stick_salted	Light butter, stick, salted	81101500.0
81101510	0	Light_butter_stick_unsalted	Light butter, stick, unsalted	81101510.0
81101520	0	Light_butter_tub_whipped_salted	Light butter, tub, whipped, salted	81101520.0
81102010	0	Margarine_stick_salted	Margarine, stick, salted	81102010.0
81102020	0	Margarine_tub_salted	Margarine, tub, salted	81102020.0
81103020	0	Margarine_tub_whipped_salted	Margarine, tub, whipped, salted	81103020.0
81103030	0	Margarine_stick_unsalted	Margarine, stick, unsalted	81103030.0
81103040	0	Margarine_like_spread_stick_salted	Margarine-like spread, stick, salted	81103040.0
81103041	0	Margarine_like_spread_stick_made_with_yogurt_salted	Margarine-like spread, stick, made with yogurt, salted	81103041.0
81103060	0	Margarine_tub_unsalted	Margarine, tub, unsalted	81103060.0
81103070	0	Margarine_tub_whipped_unsalted	Margarine, tub, whipped, unsalted	81103070.0
81103080	0	Margarine_like_spread_tub_salted	Margarine-like spread, tub, salted	81103080.0
81103090	0	Margarine_like_spread_liquid_squeeze_bottle_or_spray	Margarine-like spread, liquid, squeeze bottle or spray	81103090.0
81103100	0	Margarine_like_spread_stick_unsalted	Margarine-like spread, stick, unsalted	81103100.0
81103120	0	Margarine_like_spread_tub_unsalted	Margarine-like spread, tub, unsalted	81103120.0
81103130	0	Margarine_like_spread_tub_whipped_salted	Margarine-like spread, tub, whipped, salted	81103130.0
81103140	0	Margarine_like_spread_tub_sweetened	Margarine-like spread, tub, sweetened	81103140.0
81104010	0	Margarine_like_spread_tub_light_50_calories_per_Tbsp_salted	Margarine-like spread, tub, light, 50 calories per Tbsp, salted	81104010.0
81104011	0	Margarine_like_spread_tub_light_made_with_yogurt_salted	Margarine-like spread, tub, light, made with yogurt, salted	81104011.0
81104020	0	Margarine_like_spread_stick_light_salted	Margarine-like spread, stick, light salted	81104020.0
81104050	0	Margarine_like_spread_tub_light_30_calories_per_Tbsp_salted	Margarine-like spread, tub, light, 30 calories per Tbsp, salted	81104050.0
81104070	0	Margarine_like_spread_tub_light_30_calories_per_Tbsp_unsalted	Margarine-like spread, tub, light, 30 calories per Tbsp, unsalted	81104070.0
81104100	0	Margarine_like_spread_tub_fat_free_salted	Margarine-like spread, tub, fat-free, salted	81104100.0
81104110	0	Margarine_like_spread_liquid_squeeze_bottle_or_spray_fat_free	Margarine-like spread, liquid, squeeze bottle or spray, fat free	81104110.0
81104500	0	Butter_and_oil_spread_stick_salted	Butter and oil spread, stick, salted	81104500.0
81104510	0	Butter_and_oil_spread_tub_salted	Butter and oil spread, tub, salted	81104510.0
81104550	0	Butter_and_oil_spread_stick_light_salted	Butter and oil spread, stick, light, salted	81104550.0
81104560	0	Butter_and_oil_spread_tub_light_salted	Butter and oil spread, tub, light, salted	81104560.0
81105010	0	Butter_and_margarine_blend_stick_salted	Butter and margarine blend, stick, salted	81105010.0
81105020	0	Butter_and_margarine_blend_tub_salted	Butter and margarine blend, tub, salted	81105020.0
81105500	0	Butter_and_vegetable_oil_blend	Butter and vegetable oil blend	81105500.0
81106010	0	Butter_buds_powder_fat_free	Butter buds powder, fat-free	81106010.0
81201000	0	Pork_fat_or_drippings	Pork fat or drippings	81201000.0
81202000	0	Lard	Lard	81202000.0
81203100	0	Shortening_vegetable	Shortening, vegetable	81203100.0
81203200	0	Shortening_animal	Shortening, animal	81203200.0
81204000	0	Ghee_clarified_butter	Ghee, clarified butter	81204000.0
81301000	0	Garlic_sauce	Garlic sauce	81301000.0
81301020	0	Lemon_butter_sauce	Lemon-butter sauce	81301020.0
81302010	0	Hollandaise_sauce	Hollandaise sauce	81302010.0
81302020	0	Bernaise_sauce	Bernaise sauce	81302020.0
81302050	0	Tartar_sauce	Tartar sauce	81302050.0
81302060	0	Horseradish_sauce	Horseradish sauce	81302060.0
81302070	0	Pesto_sauce	Pesto sauce	81302070.0
81312000	0	Tartar_sauce_reduced_fat	Tartar sauce, reduced fat	81312000.0
81322000	0	Honey_butter	Honey butter	81322000.0
81330210	0	Adobo_criollo	Adobo criollo	81330210.0
82101000	0	Oil_vegetable	Oil, vegetable	82101000.0
82101300	0	Oil_almond	Oil, almond	82101300.0
82101500	0	Oil_coconut	Oil, coconut	82101500.0
82102000	0	Oil_corn	Oil, corn	82102000.0
82102500	0	Corn_and_canola_oil_blend	Corn and canola oil blend	82102500.0
82103000	0	Oil_cottonseed	Oil, cottonseed	82103000.0
82103500	0	Oil_flax_seed	Oil, flax seed	82103500.0
82104000	0	Oil_olive	Oil, olive	82104000.0
82105000	0	Oil_peanut	Oil, peanut	82105000.0
82105500	0	Oil_canola	Oil, canola	82105500.0
82105750	0	Canola_and_soybean_oil_blend	Canola and soybean oil blend	82105750.0
82105800	0	Canola_soybean_and_sunflower_oil_blend	Canola, soybean and sunflower oil blend	82105800.0
82106000	0	Oil_safflower	Oil, safflower	82106000.0
82107000	0	Oil_sesame	Oil, sesame	82107000.0
82108000	0	Oil_soybean	Oil, soybean	82108000.0
82108250	0	Soybean_and_sunflower_oil_blend	Soybean and sunflower oil blend	82108250.0
82108500	0	Oil_sunflower	Oil, sunflower	82108500.0
82108700	0	Oil_walnut	Oil, walnut	82108700.0
82109000	0	Oil_wheat_germ	Oil, wheat germ	82109000.0
82199998	0	Nonstick_cooking_spray_PAM_	Nonstick cooking spray (PAM)	82199998.0
82199999	0	Grapeseed_oil	Grapeseed oil	82199999.0
83101000	0	Salad_dressing_blue_cheese	Salad dressing, blue cheese	83101000.0
83101500	0	Salad_dressing_hot_bacon	Salad dressing, hot bacon	83101500.0
83101600	0	Salad_dressing_tomato_bacon	Salad dressing, tomato bacon	83101600.0
83102000	0	Salad_dressing_caesar	Salad dressing, caesar	83102000.0
83103000	0	Coleslaw_dressing	Coleslaw dressing	83103000.0
83103500	0	Salad_dressing_feta_cheese	Salad dressing, feta cheese	83103500.0
83104000	0	Salad_dressing_french	Salad dressing, french	83104000.0
83105000	0	Fruit_salad_dressing_made_with_fruit_juice_and_cream	Fruit salad dressing, made with fruit juice and cream	83105000.0
83105100	0	Fruit_dressing_made_with_honey_oil_and_water	Fruit dressing, made with honey, oil, and water	83105100.0
83105500	0	Salad_dressing_honey_mustard	Salad dressing, honey mustard	83105500.0
83106000	0	Salad_dressing_italian	Salad dressing, italian	83106000.0
83107000	0	Salad_dressing_mayo_regular	Salad dressing, mayo, regular	83107000.0
83107100	0	Mayonnaise_made_with_yogurt_Yogannaise_	Mayonnaise, made with yogurt (Yogannaise)	83107100.0
83107200	0	Salad_dressing_mayo_made_with_tofu_Nayonaise_	Salad dressing, mayo, made with tofu (Nayonaise)	83107200.0
83108000	0	Mayonnaise_imitation	Mayonnaise, imitation	83108000.0
83109000	0	Salad_dressing_russian	Salad dressing, russian	83109000.0
83110000	0	Salad_dressing_Mayonnaise_type_Miracle_Whip_	Salad dressing, Mayonnaise type (Miracle Whip)	83110000.0
83112000	0	Salad_dressing_green_goddess	Salad dressing, green goddess	83112000.0
83112500	0	Salad_dressing_ranch	Salad dressing, ranch	83112500.0
83112950	0	Salad_dressing_poppy_seed	Salad dressing, poppy seed	83112950.0
83112960	0	Salad_dressing_peppercorn	Salad dressing, peppercorn	83112960.0
83112980	0	Salad_dressing_celery_seed	Salad dressing, celery seed	83112980.0
83112990	0	Salad_dressing_sesame	Salad dressing, sesame	83112990.0
83113000	0	Salad_dressing_sweet_and_sour	Salad dressing, sweet and sour	83113000.0
83114000	0	Salad_dressing_thousand_island	Salad dressing, thousand island	83114000.0
83115000	0	Fruit_salad_dressing_made_with_yogurt	Fruit salad dressing, made with yogurt	83115000.0
83201000	0	Salad_dressing_blue_cheese_low_fat	Salad dressing, blue cheese, low fat	83201000.0
83201400	0	Coleslaw_dressing_light	Coleslaw dressing, light	83201400.0
83202020	0	Salad_dressing_french_low_fat	Salad dressing, french, low fat	83202020.0
83203000	0	Salad_dressing_caesar_low_fat	Salad dressing, caesar, low fat	83203000.0
83203250	0	Salad_dressing_mayo_type_fat_free_Miracle_whip_free_	Salad dressing, mayo type, fat-free (Miracle whip free)	83203250.0
83204000	0	Mayo_low_calorie_or_diet_Light_Mayonnaise_	Mayo, low-calorie or diet (Light Mayonnaise)	83204000.0
83204030	0	Mayonnaise_reduced_fat_with_olive_oil	Mayonnaise, reduced fat, with olive oil	83204030.0
83204040	0	Mayonnaise_reduced_fat	Mayonnaise, reduced fat	83204040.0
83204050	0	Salad_dressing_Mayo_type_low_calorie_or_diet_Miracle_whip_light_	Salad dressing, Mayo type, low-calorie or diet (Miracle whip light)	83204050.0
83204060	0	Mayonnaise_low_fat	Mayonnaise, low fat	83204060.0
83204500	0	Salad_dressing_honey_mustard_low_fat	Salad dressing, honey mustard, low fat	83204500.0
83205450	0	Salad_dressing_italian_low_fat	Salad dressing, italian, low fat	83205450.0
83206000	0	Salad_dressing_russian_low_fat	Salad dressing, russian, low fat	83206000.0
83206500	0	Salad_dressing_sesame_low_fat	Salad dressing, sesame, low fat	83206500.0
83207000	0	Salad_dressing_thousand_island_low_fat	Salad dressing, thousand island, low fat	83207000.0
83210100	0	Salad_dressing_ranch_low_fat	Salad dressing, ranch, low fat	83210100.0
83300100	0	Salad_dressing_blue_cheese_fat_free	Salad dressing, blue cheese, fat free	83300100.0
83300200	0	Salad_dressing_caesar_fat_free	Salad dressing, caesar, fat free	83300200.0
83300300	0	Salad_dressing_ranch_fat_free	Salad dressing, ranch, fat free	83300300.0
83300400	0	Salad_dressing_french_fat_free	Salad dressing, french, fat free	83300400.0
83300500	0	Salad_dressing_honey_mustard_fat_free	Salad dressing, honey mustard, fat free	83300500.0
83300600	0	Salad_dressing_italian_fat_free	Salad dressing, italian, fat free	83300600.0
83300700	0	Mayonnaise_fat_free	Mayonnaise, fat free	83300700.0
83300800	0	Salad_dressing_russian_fat_free	Salad dressing, russian, fat free	83300800.0
83301000	0	Salad_dressing_thousand_island_fat_free	Salad dressing, thousand island, fat free	83301000.0
91101010	0	Sugar_white_granulated_or_lump	Sugar, white, granulated or lump	91101010.0
91101020	0	Sugar_powdered_confectioners_	Sugar, powdered (confectioners)	91101020.0
91102010	0	Sugar_brown	Sugar, brown	91102010.0
91103010	0	Sugar_maple	Sugar, maple	91103010.0
91104100	0	Sugar_cinnamon	Sugar, cinnamon	91104100.0
91104200	0	Sugar_raw	Sugar, raw	91104200.0
91107000	0	Sugar_substitute_sucralose_based_sweetener_Splenda_	Sugar substitute, sucralose-based sweetener (Splenda)	91107000.0
91108000	0	Sugar_substitute_herbal_extract_sweetener_powder_Stevia_	Sugar substitute, herbal extract sweetener, powder (Stevia)	91108000.0
91108010	0	Sugar_substitute_herbal_extract_sweetener_liquid_Stevia_liquid_	Sugar substitute, herbal extract sweetener, liquid (Stevia liquid)	91108010.0
91109000	0	Agave_syrup	Agave syrup	91109000.0
91200020	0	Sugar_substitute_saccharin_based_dry_powder_Sugar_Twin_	Sugar substitute, saccharin-based, dry powder (Sugar Twin)	91200020.0
91200030	0	Sugar_substitute_saccharin_based_brown_sugar_dry_powder_Sugar_Twin_	Sugar substitute, saccharin-based brown sugar, dry powder (Sugar Twin)	91200030.0
91200040	0	Sugar_substitute_saccharin_based_dry_powder_Sweet_n_Low_	Sugar substitute, saccharin-based, dry powder (Sweet n' Low)	91200040.0
91200110	0	Sugar_substitute_saccharin_based_liquid_Superose_	Sugar substitute, saccharin-based, liquid (Superose)	91200110.0
91201010	0	Sugar_substitute_aspartame_based_dry_powder_Equal_	Sugar substitute, aspartame-based, dry powder (Equal)	91201010.0
91301020	0	Syrup_pancake_Karo_pancake_syrup_Aunt_Jemimah_Hungry_Jack_	Syrup, pancake (Karo pancake syrup, Aunt Jemimah, Hungry Jack)	91301020.0
91301030	0	Corn_syrup_light_or_dark	Corn syrup, light or dark	91301030.0
91301040	0	Syrup_pancake_buttered_blends_Mrs_Butterworth_Log_Cabin_with_butter_	Syrup, pancake, buttered blends (Mrs. Butterworth, Log Cabin with butter)	91301040.0
91301050	0	Fruit_syrup_strawberry_	Fruit syrup (strawberry)	91301050.0
91301060	0	Maple_syrup_100_maple_	Maple syrup (100% maple)	91301060.0
91301080	0	Chocolate_syrup_thin	Chocolate syrup, thin	91301080.0
91301081	0	Chocolate_syrup_thin_light	Chocolate syrup, thin, light	91301081.0
91301082	0	Chocolate_syrup_thin_sugar_free	Chocolate syrup, thin, sugar free	91301082.0
91301090	0	Sorghum_syrup	Sorghum syrup	91301090.0
91301100	0	Sugar_and_water_syrup_simple_syrup_	Sugar and water syrup, (simple syrup)	91301100.0
91301130	0	Fruit_flavored_syrup_Hershey_s_Strawberry_Syrup_Nestle_s_Strawberry_Syrup_	Fruit flavored syrup (Hershey's Strawberry Syrup, Nestle's Strawberry Syrup)	91301130.0
91301200	0	Simple_syrup_sugar_and_water_syrup_	Simple syrup (sugar and water syrup)	91301200.0
91301250	0	Syrup_pancake_maple_flavored_Log_Cabin_Original_Aunt_Jemimah_	Syrup, pancake, maple flavored (Log Cabin, Original Aunt Jemimah)	91301250.0
91301510	0	Syrup_pancake_reduced_calorie_Lite_syrup_	Syrup, pancake, reduced calorie (Lite syrup)	91301510.0
91302010	0	Honey	Honey	91302010.0
91303000	0	Molasses	Molasses	91303000.0
91303750	0	Chocolate_gravy	Chocolate gravy	91303750.0
91304010	0	Caramel_syrup	Caramel syrup	91304010.0
91304020	0	Chocolate_syrup_thick_hot_fudge_topping_	Chocolate syrup, thick (hot fudge topping)	91304020.0
91304030	0	Fruit_syrup_strawberry_or_pineapple_ice_cream_topping_	Fruit syrup (strawberry or pineapple ice cream topping)	91304030.0
91304040	0	Marshmallow_creme_marshmallow_fluff_	Marshmallow creme (marshmallow fluff)	91304040.0
91304050	0	Hard_sauce	Hard sauce	91304050.0
91304060	0	Wet_nuts_nuts_in_syrup_	Wet nuts (nuts in syrup)	91304060.0
91304070	0	Peanut_butter_syrup_ice_cream_topping_	Peanut butter syrup (ice cream topping)	91304070.0
91304090	0	Chocolate_flavored_hazelnut_spread_Nutella_	Chocolate flavored hazelnut spread (Nutella)	91304090.0
91304300	0	Topping_chocolate_hard_coating_Magic_Shell_topping_	Topping, chocolate, hard coating (Magic Shell topping)	91304300.0
91305010	0	Icing_chocolate	Icing, chocolate	91305010.0
91305020	0	Frosting_white	Frosting, white	91305020.0
91351010	0	Syrup_dietetic_sugar_free_Estee_breakfast_syrup_	Syrup, dietetic, sugar free (Estee breakfast syrup)	91351010.0
91361010	0	Sweet_and_sour_sauce	Sweet and sour sauce	91361010.0
91361020	0	Fruit_sauce	Fruit sauce	91361020.0
91361040	0	Dessert_sauce_rum	Dessert sauce, rum	91361040.0
91361050	0	Duck_sauce	Duck sauce	91361050.0
91361070	0	Plum_sauce_Asian_style	Plum sauce, Asian-style	91361070.0
91401000	0	Jelly_all_flavors	Jelly, all flavors	91401000.0
91402000	0	Jam_preserves_all_flavors	Jam, preserves, all flavors	91402000.0
91403000	0	Apple_butter	Apple butter	91403000.0
91404000	0	Marmalade_all_flavors	Marmalade, all flavors	91404000.0
91405000	0	Jelly_sweetened_with_artificial_sweetener	Jelly, sweetened with artificial sweetener	91405000.0
91405500	0	Jelly_reduced_sugar_all_flavors	Jelly, reduced sugar, all flavors	91405500.0
91406000	0	Jams_preserves_marmalades_sweetened_with_artificial_sweetener	Jams, preserves, marmalades, sweetened with artificial sweetener	91406000.0
91406500	0	Jams_preserves_marmalades_sweetened_with_fruit_juice_Spreadable_Fruits_	Jams, preserves, marmalades, sweetened with fruit juice (Spreadable Fruits)	91406500.0
91406600	0	Jams_preserves_marmalades_low_sugar_all_flavors_	Jams, preserves, marmalades, low sugar (all flavors)	91406600.0
91407100	0	Guava_paste	Guava paste	91407100.0
91407120	0	Sweet_potato_paste_dulce_de_calabaza_	Sweet potato paste (dulce de calabaza)	91407120.0
91407150	0	Bean_paste_sweetened	Bean paste, sweetened	91407150.0
91500200	0	Jello_gelatin_powder_sweetened_dry	Jello (gelatin) powder, sweetened, dry	91500200.0
91501010	0	Jello_gelatin_dessert	Jello (gelatin) dessert	91501010.0
91501015	0	Jello_gelatin_snacks	Jello (gelatin) snacks	91501015.0
91501020	0	Jello_gelatin_dessert_with_fruit	Jello (gelatin) dessert, with fruit	91501020.0
91501030	0	Jello_gelatin_dessert_with_whipped_cream	Jello (gelatin) dessert, with whipped cream	91501030.0
91501040	0	Jello_gelatin_dessert_with_fruit_and_whipped_cream	Jello (gelatin) dessert, with fruit and whipped cream	91501040.0
91501050	0	Jello_gelatin_dessert_with_cream_cheese	Jello (gelatin) dessert, with cream cheese	91501050.0
91501060	0	Jello_gelatin_dessert_with_sour_cream	Jello (gelatin) dessert, with sour cream	91501060.0
91501080	0	Jello_gelatin_dessert_with_fruit_and_cream_cheese	Jello (gelatin) dessert, with fruit and cream cheese	91501080.0
91501100	0	Jello_gelatin_salad_with_vegetables_onions_peppers_celery_radishes_	Jello (gelatin) salad, with vegetables (onions, peppers, celery, radishes)	91501100.0
91511010	0	Jello_gelatin_dessert_with_low_calorie_sweetener	Jello (gelatin) dessert, with low calorie sweetener	91511010.0
91511020	0	Jello_gelatin_dessert_with_low_calorie_sweetener_with_fruit	Jello (gelatin) dessert, with low calorie sweetener, with fruit	91511020.0
91511030	0	Jello_gelatin_dessert_with_low_calorie_sweetener_with_whipped_topping	Jello (gelatin) dessert, with low calorie sweetener, with whipped topping	91511030.0
91550100	0	Coconut_cream_cake_Puerto_Rican_style	Coconut cream cake, Puerto Rican style	91550100.0
91550300	0	Pineapple_custard_Puerto_Rican_style	Pineapple custard, Puerto Rican style	91550300.0
91560100	0	Haupia_coconut_pudding_	Haupia (coconut pudding)	91560100.0
91601000	0	Ice_fruit	Ice, fruit	91601000.0
91611000	0	Ice_pop_popsicle_	Ice pop (popsicle)	91611000.0
91611050	0	Ice_pop_popsicle_filled_with_ice_cream	Ice pop (popsicle), filled with ice cream	91611050.0
91611100	0	Ice_pop_popsicle_with_low_calorie_sweetener	Ice pop (popsicle), with low calorie sweetener	91611100.0
91621000	0	Snow_cone_slurpee_	Snow cone (slurpee)	91621000.0
91700500	0	M_M_s_almond	M&M's, almond	91700500.0
91701010	0	Almonds_chocolate_covered	Almonds, chocolate covered	91701010.0
91701020	0	Almonds_sugar_coated	Almonds, sugar-coated	91701020.0
91701030	0	Almonds_yogurt_covered	Almonds, yogurt-covered	91701030.0
91702010	0	Butterscotch_morsels_or_chips	Butterscotch morsels or chips	91702010.0
91703010	0	Chocolate_flavored_roll_Tootsie_Roll_	Chocolate-flavored roll (Tootsie Roll)	91703010.0
91703020	0	Caramel	Caramel	91703020.0
91703030	0	Caramel_with_walnuts	Caramel, with walnuts	91703030.0
91703040	0	Caramel_chocolate_covered_Riesen_Russel_Stover_Caramello_	Caramel, chocolate covered (Riesen, Russel Stover, Caramello)	91703040.0
91703060	0	Caramel_with_nuts_chocolate_covered_turtles_	Caramel, with nuts, chocolate covered (turtles)	91703060.0
91703070	0	Rolo	Rolo	91703070.0
91703080	0	Caramel_sugar_free	Caramel, sugar free	91703080.0
91703150	0	Toblerone_milk_chocolate_with_honey_and_almond_nougat	Toblerone, milk chocolate with honey and almond nougat	91703150.0
91703200	0	TWIX_Caramel_Cookie_Bars	TWIX Caramel Cookie Bars	91703200.0
91703250	0	TWIX_Chocolate_Fudge_Cookie_Bars	TWIX Chocolate Fudge Cookie Bars	91703250.0
91703300	0	TWIX_Peanut_Butter_Cookie_Bars	TWIX Peanut Butter Cookie Bars	91703300.0
91703400	0	Whatchamacallit	Whatchamacallit	91703400.0
91703500	0	Almonds_carob_coated	Almonds, carob-coated	91703500.0
91703600	0	Espresso_coffee_beans_chocolate_covered	Espresso coffee beans, chocolate-covered	91703600.0
91705010	0	Chocolate_bar_milk_plain_Hershey_Bar_Kiss_Nestle_Bar_	Chocolate bar, milk, plain (Hershey Bar, Kiss, Nestle Bar)	91705010.0
91705020	0	Chocolate_bar_milk_with_crisped_rice_Nestle_Crunch_Krackle_	Chocolate bar, milk, with crisped rice (Nestle Crunch, Krackle)	91705020.0
91705030	0	Kit_Kat	Kit Kat	91705030.0
91705040	0	Chocolate_bar_milk_with_nuts_pecans_hazelnuts_or_cashews_	Chocolate bar, milk, with nuts (pecans, hazelnuts or cashews)	91705040.0
91705050	0	Chocolate_bar_milk_with_fruit_and_nuts_Nestle_Chunky_	Chocolate bar, milk, with fruit and nuts (Nestle Chunky)	91705050.0
91705060	0	Chocolate_bar_milk_with_almonds	Chocolate bar, milk, with almonds	91705060.0
91705070	0	Chocolate_bar_milk_with_peanuts_Mr_Goodbar_	Chocolate bar, milk, with peanuts (Mr. Goodbar)	91705070.0
91705200	0	Chocolate_chips_semi_sweet	Chocolate chips, semi-sweet	91705200.0
91705300	0	Chocolate_bar_dark_plain_Hershey_Special_Dark_	Chocolate bar, dark, plain (Hershey Special Dark)	91705300.0
91705310	0	Chocolate_bar_dark_with_almonds_Hershey_Special_Dark_with_Almonds_	Chocolate bar, dark, with almonds (Hershey Special Dark with Almonds)	91705310.0
91705400	0	Chocolate_bar_white_plain	Chocolate bar, white, plain	91705400.0
91705410	0	Chocolate_bar_white_with_almonds	Chocolate bar, white, with almonds	91705410.0
91705420	0	Chocolate_bar_white_with_cookie_bits_Hershey_Cookies_n_Creme_	Chocolate bar, white, with cookie bits (Hershey Cookies 'n' Creme)	91705420.0
91705430	0	Kit_Kat_White	Kit Kat White	91705430.0
91705500	0	Mexican_chocolate	Mexican chocolate	91705500.0
91706000	0	Chocolate_bar_dark_coconut_filled_Mounds_	Chocolate bar, dark, coconut filled (Mounds)	91706000.0
91706100	0	Coconut_candy_no_chocolate_covering_Bon_bon_	Coconut candy, no chocolate covering (Bon-bon)	91706100.0
91706400	0	Coconut_candy_Puerto_Rican_style	Coconut candy, Puerto Rican style	91706400.0
91707000	0	Fondant_candy_Candy_Corn_Mentos_Mints_	Fondant candy (Candy Corn, Mentos, Mints)	91707000.0
91707010	0	Fondant_candy_chocolate_covered_Cadbury_Creme_Egg_Peppermint_Patties_Thin_Mints_Junior_Mints_	Fondant candy, chocolate covered (Cadbury Creme Egg, Peppermint Patties, Thin Mints, Junior Mints)	91707010.0
91708000	0	Fruit_peel_candied	Fruit peel, candied	91708000.0
91708010	0	Dried_fruit_and_nut_bar_date_bar_	Dried fruit and nut bar (date bar)	91708010.0
91708020	0	Soft_fruit_candy_Aplets_Cotlets_Turkish_delight_	Soft fruit candy (Aplets & Cotlets, Turkish delight)	91708020.0
91708030	0	Fruit_snack_candy_Roll_Up_Gushers_Fun_Fruits_	Fruit snack candy (Roll Up, Gushers, Fun Fruits)	91708030.0
91708070	0	Tamarind_candy	Tamarind candy	91708070.0
91708100	0	Fruit_snacks_high_vitamin_C_Welch_s_Fruit_Snacks_Brach_s_Hi_C_Fruit_Snacks_	Fruit snacks, high vitamin C (Welch's Fruit Snacks, Brach's Hi-C Fruit Snacks)	91708100.0
91708150	0	Yogurt_covered_fruit_snacks_with_added_vitamin_C_Kellogg_s_Yogos_Bits_	Yogurt covered fruit snacks, with added vitamin C (Kellogg's Yogos Bits)	91708150.0
91709000	0	Gumdrops_chocolate_covered	Gumdrops, chocolate covered	91709000.0
91713010	0	Fudge_chocolate_chocolate_covered	Fudge, chocolate, chocolate covered	91713010.0
91713020	0	Fudge_chocolate_chocolate_covered_with_nuts	Fudge, chocolate, chocolate covered, with nuts	91713020.0
91713030	0	Fudge_chocolate	Fudge, chocolate	91713030.0
91713040	0	Fudge_chocolate_with_nuts	Fudge, chocolate, with nuts	91713040.0
91713050	0	Fudge_peanut_butter	Fudge, peanut butter	91713050.0
91713060	0	Fudge_peanut_butter_with_nuts	Fudge, peanut butter, with nuts	91713060.0
91713070	0	Fudge_vanilla	Fudge, vanilla	91713070.0
91713080	0	Fudge_vanilla_with_nuts	Fudge, vanilla, with nuts	91713080.0
91713090	0	Fudge_divinity	Fudge, divinity	91713090.0
91713100	0	Fudge_brown_sugar_penuche_	Fudge, brown sugar (penuche)	91713100.0
91715000	0	Fudge_caramel_and_nut_chocolate_covered_candy_Oh_Henry_	Fudge, caramel and nut, chocolate covered candy (Oh Henry)	91715000.0
91715100	0	Snickers_Bar	Snickers Bar	91715100.0
91715200	0	Baby_Ruth	Baby Ruth	91715200.0
91715300	0	100_GRAND_Bar	100 GRAND Bar	91715300.0
91716010	0	Halvah_plain	Halvah, plain	91716010.0
91716110	0	Halvah_chocolate_covered	Halvah, chocolate covered	91716110.0
91718000	0	Honey_combed_hard_candy_with_peanut_butter_Chick_o_Stick_	Honey-combed hard candy with peanut butter (Chick-o-Stick)	91718000.0
91718050	0	Honey_combed_hard_candy_with_peanut_butter_chocolate_covered_Clark_Bar_5th_Avenue_Bar_	Honey-combed hard candy with peanut butter, chocolate covered (Clark Bar, 5th Avenue Bar)	91718050.0
91718100	0	Butterfinger	Butterfinger	91718100.0
91718110	0	Butterfinger_Crisp	Butterfinger Crisp	91718110.0
91718200	0	Sprinkles_chocolate_flavored	Sprinkles, chocolate-flavored	91718200.0
91721000	0	Licorice	Licorice	91721000.0
91723000	0	Marshmallow	Marshmallow	91723000.0
91723010	0	Marshmallows_chocolate_covered	Marshmallows, chocolate covered	91723010.0
91723020	0	Marshmallow_candy_coated_Peeps_	Marshmallow, candy-coated (Peeps)	91723020.0
91723050	0	Marshmallow_coconut_coated	Marshmallow, coconut-coated	91723050.0
91726000	0	Nougat_plain	Nougat, plain	91726000.0
91726110	0	Nougat_with_caramel_chocolate_covered	Nougat, with caramel, chocolate covered	91726110.0
91726130	0	Milky_Way_Bar	Milky Way Bar	91726130.0
91726140	0	Milky_Way_Midnight_Bar	Milky Way Midnight Bar	91726140.0
91726150	0	Mars_Almond_Bar	Mars Almond Bar	91726150.0
91726410	0	Nougat_chocolate_covered_Charleston_Chew_	Nougat, chocolate covered (Charleston Chew)	91726410.0
91726420	0	3_Musketeers_Bar	3 Musketeers Bar	91726420.0
91727010	0	Nuts_chocolate_covered_hazelnuts_brazil_nuts_cashews_	Nuts, chocolate covered, (hazelnuts, brazil nuts, cashews)	91727010.0
91728000	0	Nut_roll_fudge_or_nougat_caramel_and_nuts_Payday_	Nut roll, fudge or nougat, caramel and nuts (Payday)	91728000.0
91728500	0	Pecans_sugared	Pecans, sugared	91728500.0
91731000	0	Peanuts_chocolate_covered	Peanuts, chocolate covered	91731000.0
91731010	0	M_M_s_peanut	M&M's, peanut	91731010.0
91731060	0	M_M_s_peanut_butter	M&M's, peanut butter	91731060.0
91731100	0	Peanuts_sugar_coated	Peanuts, sugar-coated	91731100.0
91731150	0	Peanuts_yogurt_covered	Peanuts, yogurt covered	91731150.0
91732000	0	Peanut_bar	Peanut bar	91732000.0
91732100	0	Planters_Peanut_Bar	Planters Peanut Bar	91732100.0
91733000	0	Peanut_brittle	Peanut brittle	91733000.0
91733200	0	Peanut_bar_chocolate_covered	Peanut bar, chocolate covered	91733200.0
91734000	0	Peanut_butter_chocolate_covered_peanut_butter_egg_Peanut_Butter_Meltaway_Bar_	Peanut butter, chocolate covered (peanut butter egg, Peanut Butter Meltaway Bar)	91734000.0
91734100	0	Reese_s_Peanut_Butter_Cup	Reese's Peanut Butter Cup	91734100.0
91734200	0	Reese_s_Pieces	Reese's Pieces	91734200.0
91734300	0	Reese_s_Sticks	Reese's Sticks	91734300.0
91734400	0	Reese_s_Fast_Break	Reese's Fast Break	91734400.0
91734450	0	Reese_s_Crispy_Crunchy_Bar	Reese's Crispy Crunchy Bar	91734450.0
91734500	0	Peanut_butter_morsels_or_chips	Peanut butter morsels or chips	91734500.0
91735000	0	Pralines	Pralines	91735000.0
91736000	0	Pineapple_candy_Puerto_Rican_style	Pineapple candy, Puerto Rican style	91736000.0
91739010	0	Raisins_chocolate_covered	Raisins, chocolate covered	91739010.0
91739600	0	Raisins_yogurt_covered	Raisins, yogurt covered	91739600.0
91742010	0	Sesame_Crunch_Sahadi_	Sesame Crunch (Sahadi)	91742010.0
91745010	0	Gummy_candy_gummies_	Gummy candy (gummies)	91745010.0
91745020	0	Hard_candy_Jolly_Rancher_Life_Savers_Gob_Stoppers_Lollipop_	Hard candy (Jolly Rancher, Life Savers, Gob Stoppers, Lollipop)	91745020.0
91745040	0	Butterscotch_hard_candy	Butterscotch hard candy	91745040.0
91745100	0	Skittles	Skittles	91745100.0
91746010	0	Sugar_coated_chocolate_discs_Snow_Caps_	Sugar-coated chocolate discs (Snow Caps)	91746010.0
91746100	0	M_M_s_plain	M&M's, plain	91746100.0
91746120	0	Sixlets	Sixlets	91746120.0
91746150	0	Easter_egg_candy_coated_chocolate_Cadbury_s_Mini_Eggs_	Easter egg, candy coated chocolate (Cadbury's Mini Eggs)	91746150.0
91746200	0	M_M_s_pretzel	M&M's, pretzel	91746200.0
91750000	0	Taffy_Starburst_Laffy_Taffy_Salt_Water_Taffy_	Taffy (Starburst, Laffy Taffy, Salt Water Taffy)	91750000.0
91760000	0	Toffee_plain	Toffee, plain	91760000.0
91760100	0	Toffee_chocolate_covered_Heath_Bar_Skor_Bar_	Toffee, chocolate covered (Heath Bar, Skor Bar)	91760100.0
91760200	0	Toffee_chocolate_coated_with_nuts_Almond_Roca_	Toffee, chocolate-coated, with nuts (Almond Roca)	91760200.0
91760500	0	Chocolate_truffle	Chocolate truffle	91760500.0
91760700	0	Wax_candy_liquid_filled_Sathers_Pop_Bottles_	Wax candy, liquid filled (Sathers Pop Bottles)	91760700.0
91770010	0	Gumdrops_dietetic_or_low_calorie	Gumdrops, dietetic or low calorie	91770010.0
91770020	0	Hard_candy_dietetic_or_low_calorie	Hard candy, dietetic or low calorie	91770020.0
91770030	0	Candy_chocolate_covered_dietetic_or_low_calorie	Candy, chocolate covered, dietetic or low calorie	91770030.0
91770050	0	Mints_dietetic_or_low_calorie	Mints, dietetic or low calorie	91770050.0
91780010	0	Snickers_Marathon_Energy_bar	Snickers Marathon Energy bar	91780010.0
91781010	0	Snickers_Marathon_Protein_bar	Snickers Marathon Protein bar	91781010.0
91799999	0	Baking_chocolate_unsweetened	Baking chocolate, unsweetened	91799999.0
91801000	0	Chewing_gum_sugared	Chewing gum, sugared	91801000.0
91802000	0	Chewing_gum_sugarless	Chewing gum, sugarless	91802000.0
92101000	0	Coffee_brewed_regular	Coffee, brewed, regular	92101000.0
92101500	0	Coffee_brewed_regular_and_decaffeinated_mixture	Coffee, brewed, regular and decaffeinated mixture	92101500.0
92101600	0	Coffee_Turkish	Coffee, Turkish	92101600.0
92101610	0	Espresso	Espresso	92101610.0
92101630	0	Espresso_decaffeinated	Espresso, decaffeinated	92101630.0
92101640	0	Coffee_Mexican	Coffee, Mexican	92101640.0
92101650	0	Coffee_Mexican_with_sugar	Coffee, Mexican, with sugar	92101650.0
92101660	0	Coffee_Mexican_decaffeinated	Coffee, Mexican, decaffeinated	92101660.0
92101670	0	Coffee_Mexican_decaffeinated_with_sugar	Coffee, Mexican, decaffeinated, with sugar	92101670.0
92101700	0	Coffee_brewed_flavored	Coffee, brewed, flavored	92101700.0
92101800	0	Coffee_Cuban	Coffee, Cuban	92101800.0
92101900	201503	Latte_espresso_coffee_regular_with_skim_milk	Latte (espresso coffee), regular, with skim milk	92101900.201503
92101900	203108	Latte_espresso_coffee_regular_with_2_milk	Latte (espresso coffee), regular, with 2% milk	92101900.203108
92101900	206405	Latte_espresso_coffee_regular_with_whole_milk	Latte (espresso coffee), regular, with whole milk	92101900.206405
92101900	206440	Latte_espresso_coffee_regular_with_1_milk	Latte (espresso coffee), regular, with 1% milk	92101900.206440
92101900	206726	Latte_espresso_coffee_with_half_and_half	Latte (espresso coffee), with half and half	92101900.206726
92101900	206901	Latte_espresso_coffee_with_cream	Latte (espresso coffee), with cream	92101900.206901
92101900	207303	Latte_espresso_coffee_with_soymilk	Latte (espresso coffee), with soymilk	92101900.207303
92101910	0	Latte_espresso_coffee_decaffeinated	Latte (espresso coffee), decaffeinated	92101910.0
92101910	206442	Latte_espresso_coffee_decaffeinated_with_1_milk	Latte (espresso coffee), decaffeinated, with 1% milk	92101910.206442
92101910	206444	Latte_espresso_coffee_decaffeinated_with_whole_milk	Latte (espresso coffee), decaffeinated, with whole milk	92101910.206444
92101910	206760	Latte_espresso_coffee_decaffeinated_with_skim_milk	Latte (espresso coffee), decaffeinated, with skim milk	92101910.206760
92101910	207081	Latte_espresso_coffee_decaffeinated_with_2_milk	Latte (espresso coffee), decaffeinated, with 2% milk	92101910.207081
92101910	207415	Latte_espresso_coffee_decaffeinated_with_soymilk	Latte (espresso coffee), decaffeinated, with soymilk	92101910.207415
92101920	0	Frappuccino_regular_with_whole_milk	Frappuccino, regular, with whole milk	92101920.0
92101920	206598	Frappuccino_regular_with_1_milk	Frappuccino, regular, with 1% milk	92101920.206598
92101920	206619	Frappuccino_regular_with_2_milk	Frappuccino, regular, with 2% milk	92101920.206619
92101920	206735	Frappuccino_regular_with_cream	Frappuccino, regular, with cream	92101920.206735
92101920	207523	Frappuccino_regular_with_skim_milk	Frappuccino, regular, with skim milk	92101920.207523
92101925	0	Frappuccino_regular_with_whole_milk_and_whipped_cream	Frappuccino, regular, with whole milk and whipped cream	92101925.0
92101930	0	Frappuccino_decaffeinated_with_whole_milk	Frappuccino, decaffeinated, with whole milk	92101930.0
92101930	206599	Frappuccino_decaffeinated_with_1_milk	Frappuccino, decaffeinated, with 1% milk	92101930.206599
92101935	0	Frappuccino_decaffeinated_with_whole_milk_and_whipped_cream	Frappuccino, decaffeinated, with whole milk and whipped cream	92101935.0
92101950	101316	Mocha_with_skim_milk_and_whipped_cream	Mocha, with skim milk and whipped cream	92101950.101316
92101950	205578	Mocha_with_2_milk_and_whipped_cream	Mocha, with 2% milk and whipped cream	92101950.205578
92101950	206423	Mocha_with_whole_milk_and_whipped_cream	Mocha, with whole milk and whipped cream	92101950.206423
92101950	206694	Mocha_with_1_milk_and_whipped_cream	Mocha, with 1% milk and whipped cream	92101950.206694
92101950	207676	Mocha_with_half_and_half_and_whipped_cream	Mocha, with half and half and whipped cream	92101950.207676
92101960	0	Mocha_with_soymilk_and_whipped_cream	Mocha, with soymilk and whipped cream	92101960.0
92103000	0	Coffee_instant_regular	Coffee, instant, regular	92103000.0
92104000	0	Coffee_instant_50_less_caffeine	Coffee, instant, 50% less caffeine	92104000.0
92105000	0	Coffee_liquid_concentrate	Coffee, liquid concentrate	92105000.0
92105010	0	Coffee_made_from_liquid_concentrate	Coffee, made from liquid concentrate	92105010.0
92111010	0	Coffee_brewed_decaffeinated	Coffee, brewed, decaffeinated	92111010.0
92114000	0	Coffee_instant_decaffeinated	Coffee, instant, decaffeinated	92114000.0
92121000	0	Cappucino_instant_with_sugar	Cappucino, instant, with sugar	92121000.0
92121010	0	Coffee_instant_regular_with_sugar	Coffee, instant, regular, with sugar	92121010.0
92121020	0	Mocha_mix_dry_instant_powder_prepared_with_water	Mocha mix, dry instant powder, prepared with water	92121020.0
92121030	0	Mocha_mix_dry_instant_powder_with_low_calorie_sweetener_prepared_with_water	Mocha mix, dry instant powder, with low calorie sweetener, prepared with water	92121030.0
92121040	0	Coffee_instant_regular_with_low_calorie_sweetener_and_creamer	Coffee, instant, regular, with low calorie sweetener and creamer	92121040.0
92121050	0	Mocha_made_from_powdered_instant_mix_decaffeinated_with_low_calorie_sweetener	Mocha, made from powdered instant mix, decaffeinated, with low calorie sweetener	92121050.0
92130000	0	Coffee_regular_with_cream_and_sugar_from_vending_	Coffee, regular, with cream and sugar (from vending)	92130000.0
92130001	0	Coffee_decaffeinated_with_cream_and_sugar_from_vending_	Coffee, decaffeinated, with cream and sugar (from vending)	92130001.0
92130005	0	Coffee_regular_with_cream_and_low_calorie_sweetener_from_vending_	Coffee, regular, with cream and low-calorie sweetener (from vending)	92130005.0
92130006	0	Coffee_decaffeinated_with_cream_and_low_calorie_sweetener_from_vending_	Coffee, decaffeinated, with cream and low-calorie sweetener (from vending)	92130006.0
92130010	0	Coffee_regular_with_cream_from_vending_	Coffee, regular, with cream (from vending)	92130010.0
92130020	0	Coffee_regular_with_sugar_from_vending_	Coffee, regular, with sugar (from vending)	92130020.0
92151000	0	Coffee_and_chicory_regular_instant	Coffee and chicory, regular, instant	92151000.0
92151100	0	Coffee_and_chicory_decaffeinated_instant	Coffee and chicory, decaffeinated, instant	92151100.0
92152000	0	Coffee_and_chicory_regular_instant	Coffee and chicory, regular, instant	92152000.0
92161000	0	Cappuccino_regular_with_whole_milk	Cappuccino, regular, with whole milk	92161000.0
92161000	101315	Cappuccino_regular_with_2_milk	Cappuccino, regular, with 2% milk	92161000.101315
92161000	202295	Cappuccino_regular_with_skim_milk	Cappuccino, regular, with skim milk	92161000.202295
92161000	205450	Cappuccino_regular_with_1_milk	Cappuccino, regular, with 1% milk	92161000.205450
92161000	206563	Cappuccino_regular_with_half_and_half	Cappuccino, regular, with half and half	92161000.206563
92161000	207164	Cappuccino_regular_with_non_dairy_creamer	Cappuccino, regular, with non-dairy creamer	92161000.207164
92161000	207364	Cappuccino_regular_with_soymilk	Cappuccino, regular, with soymilk	92161000.207364
92161005	0	Caramel_macchiato_regular	Caramel macchiato, regular	92161005.0
92162000	0	Cappuccino_decaffeinated_with_whole_milk	Cappuccino, decaffeinated, with whole milk	92162000.0
92162000	207157	Cappuccino_decaffeinated_with_2_milk	Cappuccino, decaffeinated, with 2% milk	92162000.207157
92162000	207279	Cappuccino_decaffeinated_with_skim_milk	Cappuccino, decaffeinated, with skim milk	92162000.207279
92162000	207407	Cappuccino_decaffeinated_with_1_milk	Cappuccino, decaffeinated, with 1% milk	92162000.207407
92162005	0	Caramel_macchiato_decaffeinated	Caramel macchiato, decaffeinated	92162005.0
92191500	0	Chicory_coffee_dry_instant_powder	Chicory coffee, dry instant powder	92191500.0
92191520	0	Chicory_coffee_dry_instant_powder_decaffeinated_	Chicory coffee, dry instant powder, decaffeinated,	92191520.0
92192000	0	Mocha_mix_dry_instant_powder	Mocha mix, dry instant powder	92192000.0
92192030	0	Mocha_mix_dry_instant_powder_with_low_calorie_sweetener	Mocha mix, dry instant powder, with low calorie sweetener	92192030.0
92192040	0	Mocha_mix_dry_instant_powder_with_low_calorie_sweetener_decaffeinated	Mocha mix, dry instant powder, with low calorie sweetener, decaffeinated	92192040.0
92193000	0	Coffee_dry_instant_powder_flavored	Coffee, dry instant powder, flavored	92193000.0
92193020	0	Coffee_dry_instant_powder_with_low_calorie_sweetener	Coffee, dry instant powder, with low calorie sweetener	92193020.0
92201010	0	Postum_prepared_with_water	Postum, prepared with water	92201010.0
92202010	0	Chicory_coffee	Chicory coffee	92202010.0
92204000	0	Yerba_mate_sweetened	Yerba mate, sweetened	92204000.0
92205000	0	Rice_beverage_Rice_Dream_rice_drink_	Rice beverage (Rice Dream, rice drink)	92205000.0
92291300	0	Postum_dry_powder	Postum, dry powder	92291300.0
92302000	0	Tea_unsweetened	Tea, unsweetened	92302000.0
92302200	0	Iced_tea_sweetened_with_sugar	Iced tea, sweetened with sugar	92302200.0
92302300	0	Tea_sweetened_with_low_calorie_sweetener	Tea, sweetened with low calorie sweetener	92302300.0
92302500	0	Tea_decaffeinated_unsweetened	Tea, decaffeinated, unsweetened	92302500.0
92302600	0	Iced_tea_decaffeinated_sweetened_with_sugar	Iced tea, decaffeinated, sweetened with sugar	92302600.0
92302700	0	Tea_decaffeinated_sweetened_with_low_calorie_sweetener	Tea, decaffeinated, sweetened with low calorie sweetener	92302700.0
92304000	0	Iced_tea_from_frozen_concentrate_unsweetened	Iced tea, from frozen concentrate, unsweetened	92304000.0
92304700	0	Iced_tea_from_frozen_concentrate_decaffeinated_sweetened_with_low_calorie_sweetener	Iced tea, from frozen concentrate, decaffeinated, sweetened with low calorie sweetener	92304700.0
92305010	0	Tea_from_instant_powder_unsweetened	Tea, from instant powder, unsweetened	92305010.0
92305040	0	Iced_tea_from_instant_powder_sweetened_with_sugar	Iced tea, from instant powder, sweetened with sugar	92305040.0
92305050	0	Tea_from_instant_powder_decaffeinated_sweetened_with_sugar	Tea, from instant powder, decaffeinated, sweetened with sugar	92305050.0
92305090	0	Tea_from_instant_powder_sweetened_with_low_calorie_sweetener	Tea, from instant powder, sweetened with low calorie sweetener	92305090.0
92305110	0	Iced_tea_from_instant_powder_decaffeinated_sweetened_with_low_calorie_sweetener	Iced tea, from instant powder, decaffeinated, sweetened with low calorie sweetener	92305110.0
92305180	0	Tea_from_instant_powder_decaffeinated_unsweetened	Tea, from instant powder, decaffeinated, unsweetened	92305180.0
92306000	0	Tea_herbal	Tea, herbal	92306000.0
92306020	0	Tea_herbal_sweetened_with_sugar	Tea, herbal, sweetened with sugar	92306020.0
92306030	0	Tea_herbal_sweetened_with_low_calorie_sweetener	Tea, herbal, sweetened with low calorie sweetener	92306030.0
92306090	0	Tea_hibiscus	Tea, hibiscus	92306090.0
92306610	0	Russian_tea	Russian tea	92306610.0
92306700	0	Tea_chamomile	Tea, chamomile	92306700.0
92307000	0	Tea_instant_powder_dry	Tea, instant powder, dry	92307000.0
92307500	0	Arnold_Palmer_half_tea_half_lemonade_	Arnold Palmer (half tea, half lemonade)	92307500.0
92307510	0	Arnold_Palmer_half_tea_half_lemonade_low_calorie	Arnold Palmer (half tea, half lemonade), low calorie	92307510.0
92410110	0	Carbonated_water_sweetened_Penafiel_Clearly_Canadian_Mistic_Sparkling_Water_	Carbonated water, sweetened (Penafiel, Clearly Canadian, Mistic Sparkling Water)	92410110.0
92410210	0	Carbonated_water_unsweetened_Club_soda_	Carbonated water, unsweetened (Club soda)	92410210.0
92410250	0	Carbonated_water_sweetened_with_low_calorie_or_no_calorie_sweetener_Diet_Mistic_Sparkling_Water_	Carbonated water, sweetened, with low-calorie or no-calorie sweetener (Diet Mistic Sparkling Water)	92410250.0
92410310	0	Soft_drink_cola_Pepsi_Coke_	Soft drink, cola (Pepsi, Coke)	92410310.0
92410315	0	Soft_drink_cola_reduced_sugar_C2_	Soft drink, cola, reduced sugar (C2)	92410315.0
92410320	0	Soft_drink_cola_diet_Diet_Pepsi_Diet_Coke_	Soft drink, cola, diet (Diet Pepsi, Diet Coke)	92410320.0
92410330	0	Soft_drink_cola_with_extra_caffeine_Jolt_Cola_	Soft drink, cola, with extra caffeine (Jolt Cola)	92410330.0
92410340	0	Soft_drink_cola_decaffeinated_Caffeine_Free_Pepsi_Caffeine_Free_Coke_	Soft drink, cola, decaffeinated (Caffeine Free Pepsi, Caffeine Free Coke)	92410340.0
92410350	0	Soft_drink_cola_decaffeinated_diet_Caffeine_Free_Diet_Pepsi_Caffeine_Free_Diet_Coke_	Soft drink, cola, decaffeinated, diet (Caffeine Free Diet Pepsi, Caffeine Free Diet Coke)	92410350.0
92410360	0	Soft_drink_pepper_type_Dr_Pepper_Mr_Pibb_	Soft drink, pepper type, (Dr. Pepper, Mr. Pibb)	92410360.0
92410370	0	Soft_drink_pepper_type_diet_Diet_Dr_Pepper_	Soft drink, pepper type, diet (Diet Dr. Pepper)	92410370.0
92410390	0	Soft_drink_pepper_type_decaffeinated_Caffeine_Free_Dr_Pepper_	Soft drink, pepper type, decaffeinated, (Caffeine Free Dr. Pepper)	92410390.0
92410400	0	Soft_drink_pepper_type_diet_decaffeinated_Caffeine_Free_Diet_Dr_Pepper_	Soft drink, pepper type, diet, decaffeinated, (Caffeine Free Diet Dr. Pepper)	92410400.0
92410410	0	Soft_drink_cream_soda	Soft drink, cream soda	92410410.0
92410420	0	Soft_drink_cream_soda_diet	Soft drink, cream soda, diet	92410420.0
92410510	0	Soft_drink_fruit_flavored_caffeine_free_Sprite_Sierra_Mist_7_Up_	Soft drink, fruit-flavored, caffeine free (Sprite, Sierra Mist, 7-Up)	92410510.0
92410520	0	Soft_drink_fruit_flavored_diet_caffeine_free_Sprite_Sierra_Mist_7_Up_	Soft drink, fruit-flavored, diet, caffeine free (Sprite, Sierra Mist, 7-Up)	92410520.0
92410550	0	Soft_drink_fruit_flavored_caffeine_containing_Mountain_Dew_Mellow_Yellow_	Soft drink, fruit flavored, caffeine containing (Mountain Dew, Mellow Yellow)	92410550.0
92410560	0	Soft_drink_fruit_flavored_caffeine_containing_diet_Diet_Mountain_Dew_Diet_Mellow_Yellow_	Soft drink, fruit flavored, caffeine containing, diet (Diet Mountain Dew, Diet Mellow Yellow)	92410560.0
92410610	0	Soft_drink_ginger_ale	Soft drink, ginger ale	92410610.0
92410620	0	Soft_drink_ginger_ale_diet	Soft drink, ginger ale, diet	92410620.0
92410710	0	Soft_drink_root_beer	Soft drink, root beer	92410710.0
92410720	0	Soft_drink_root_beer_diet	Soft drink, root beer, diet	92410720.0
92411510	0	Soft_drink_cola_fruit_or_vanilla_flavor_Cherry_Coke_Vanilla_Coke_Pepsi_Wild_Cherry_	Soft drink, cola, fruit or vanilla flavor (Cherry Coke, Vanilla Coke, Pepsi Wild Cherry)	92411510.0
92411610	0	Soft_drink_cola_fruit_or_vanilla_flavor_diet_Diet_Cherry_Coke_Diet_Vanilla_Coke_Diet_Pepsi_Wild_Cherry_	Soft drink, cola, fruit or vanilla flavor, diet (Diet Cherry Coke, Diet Vanilla Coke, Diet Pepsi Wild Cherry)	92411610.0
92432000	0	Carbonated_citrus_juice_drink	Carbonated citrus juice drink	92432000.0
92433000	0	Carbonated_juice_drink_Mistic_Spring_Water_	Carbonated  juice drink (Mistic Spring Water)	92433000.0
92510610	0	Lemonade	Lemonade	92510610.0
92510650	0	Tamarind_drink_Puerto_Rican	Tamarind drink, Puerto Rican	92510650.0
92510720	0	Fruit_punch_made_with_fruit_juice_and_soda	Fruit punch, made with fruit juice and soda	92510720.0
92510730	0	Fruit_punch_made_with_soda_fruit_juice_and_sherbet_or_ice_cream	Fruit punch, made with soda, fruit juice, and sherbet or ice cream	92510730.0
92511000	0	Lemonade_frozen_concentrate_not_reconstituted	Lemonade, frozen concentrate, not reconstituted	92511000.0
92511010	0	Fruit_flavored_drink_Snapple_Country_Time_Lemonade_Kool_Aid_Bursts_Little_Hugs_	Fruit flavored drink (Snapple, Country Time Lemonade, Kool-Aid Bursts, Little Hugs)	92511010.0
92512040	0	Daiquiri_mix_frozen_concentrate_not_reconstituted	Daiquiri mix, frozen concentrate, not reconstituted	92512040.0
92512050	0	Daiquiri_mix_from_frozen_concentrate_reconstituted	Daiquiri mix, from frozen concentrate, reconstituted	92512050.0
92512090	0	Pina_Colada_nonalcoholic	Pina Colada, nonalcoholic	92512090.0
92512110	0	Whiskey_sour_nonalcoholic	Whiskey sour, nonalcoholic	92512110.0
92513000	0	Fruit_flavored_frozen_drink_Slushie_Slurpee_Icee_	Fruit flavored frozen drink (Slushie, Slurpee, Icee)	92513000.0
92530410	0	Fruit_flavored_drink_high_vitamin_C_Fruit_Punch_Tropicana_Twister_Lemonade_Minute_Maid_Orange_Drink_	Fruit flavored drink, high vitamin C (Fruit Punch, Tropicana Twister Lemonade, Minute Maid Orange Drink)	92530410.0
92530510	0	Cranberry_juice_cocktail_or_drink_high_vitamin_C	Cranberry juice cocktail or drink, high vitamin C	92530510.0
92530610	0	Fruit_juice_drink_with_high_vitamin_C_Hi_C_Hawaiian_Punch_Tropicana_Twister_Ocean_Spray_Juice_Cocktail_Minute_Maid_	Fruit juice drink, with high vitamin C (Hi-C, Hawaiian Punch, Tropicana Twister, Ocean Spray Juice Cocktail, Minute Maid)	92530610.0
92530950	0	Vegetable_and_fruit_juice_drink_with_high_vitamin_C_V8_Splash_	Vegetable and fruit juice drink, with high vitamin C (V8 Splash)	92530950.0
92531030	0	Fruit_juice_drink_with_thiamin_and_vitamin_C_Sunny_Delight_	Fruit juice drink, with thiamin and vitamin C, (Sunny Delight)	92531030.0
92541010	0	Fruit_flavored_drink_from_powdered_mix_Kool_Aid_Lemonade_from_mix_	Fruit flavored drink, from powdered mix (Kool-Aid, Lemonade from mix)	92541010.0
92542000	0	Fruit_flavored_drink_from_powdered_mix_with_vitamin_C_Tang_	Fruit flavored drink, from powdered mix, with vitamin C (Tang)	92542000.0
92550030	0	Fruit_juice_drink_low_calorie_with_vitamin_C_Minute_Maid_Light_Tropicana_Light_Lemonade_	Fruit juice drink, low calorie, with vitamin C (Minute Maid Light, Tropicana Light Lemonade)	92550030.0
92550040	0	Fruit_juice_drink_low_calorie_Welch_s_Diet_Diet_Snapple_	Fruit juice drink, low calorie (Welch's Diet, Diet Snapple)	92550040.0
92550110	0	Cranberry_juice_cocktail_or_drink_low_calorie_with_vitamin_C	Cranberry juice cocktail or drink, low calorie, with vitamin C	92550110.0
92550350	0	Light_orange_juice_beverage_lower_calorie_with_artificial_sweetener_Tropicana_Minute_Maid_Dole_	Light orange juice beverage, lower calorie, with artificial sweetener (Tropicana, Minute Maid, Dole)	92550350.0
92550400	0	Vegetable_and_fruit_juice_drink_low_calorie_with_vitamin_C_Diet_V8_Splash_	Vegetable and fruit juice drink, low calorie, with vitamin C (Diet V8 Splash)	92550400.0
92550405	0	Vegetable_and_fruit_juice_drink_low_calorie_with_vitamin_C_E_and_A_V8_V_Fusion_Light_	Vegetable and fruit juice drink, low calorie, with vitamin C, E, and A (V8 V-Fusion Light)	92550405.0
92550610	0	Fruit_flavored_drink_low_calorie_with_vitamin_C_Light_Lemonade_	Fruit flavored drink, low calorie, with vitamin C (Light Lemonade)	92550610.0
92550620	0	Fruit_flavored_drink_low_calorie_Light_Lemonade_Crystal_Light_Minute_Maid_Light_	Fruit flavored drink, low calorie (Light Lemonade, Crystal Light, Minute Maid Light)	92550620.0
92552000	0	Fruit_flavored_drink_from_powdered_mix_low_calorie_with_vitamin_C_Sugar_Free_Tang_	Fruit flavored drink, from powdered mix, low calorie, with vitamin C (Sugar Free Tang)	92552000.0
92552010	0	Fruit_flavored_drink_from_powdered_mix_low_calorie_Crystal_Light_Sugar_Free_Kool_Aid_	Fruit flavored drink, from powdered mix, low calorie (Crystal Light, Sugar Free Kool-Aid)	92552010.0
92552020	0	Fruit_juice_drink_reduced_sugar_with_thiamin_and_vitamin_C_Sunny_Delight_reduced_sugar_	Fruit juice drink, reduced sugar, with thiamin and  vitamin C (Sunny Delight reduced sugar)	92552020.0
92552030	0	Fruit_juice_drink_reduced_sugar_with_vitamin_E_Capri_Sun_	Fruit juice drink, reduced sugar, with vitamin E (Capri Sun)	92552030.0
92553000	0	Fruit_flavored_thirst_quencher_beverage_low_calorie_Sports_Drink_reduced_sugar_	Fruit-flavored thirst quencher beverage, low calorie (Sports Drink reduced sugar)	92553000.0
92560000	0	Fruit_flavored_thirst_quencher_beverage_Sports_Drink_	Fruit-flavored thirst quencher beverage (Sports Drink)	92560000.0
92560100	0	Gatorade_Thirst_Quencher_sports_drink	Gatorade Thirst Quencher sports drink	92560100.0
92560200	0	Powerade_sports_drink	Powerade sports drink	92560200.0
92565000	0	Fruit_flavored_sports_drink_or_thirst_quencher_beverage_low_calorie	Fruit-flavored sports drink or thirst quencher beverage, low calorie	92565000.0
92565100	0	Gatorade_G2_thirst_quencher_sports_drink_low_calorie	Gatorade G2 thirst quencher sports drink, low calorie	92565100.0
92565200	0	Powerade_Zero_sports_drink_low_calorie	Powerade Zero sports drink, low calorie	92565200.0
92570100	0	Fluid_replacement_electrolyte_solution_Pedialyte_	Fluid replacement, electrolyte solution (Pedialyte)	92570100.0
92582100	0	Fruit_juice_drink_with_high_vitamin_C_plus_added_calcium	Fruit juice drink, with high vitamin C, plus added calcium	92582100.0
92582110	0	Fruit_juice_drink_with_thiamin_vitamin_B1_and_high_vitamin_C_plus_calcium_Sunny_Delight_Plus_Calcium_	Fruit juice drink, with thiamin (vitamin B1) and high vitamin C plus calcium (Sunny Delight Plus Calcium)	92582110.0
92582120	0	Fruit_flavored_drink_reduced_sugar_with_high_vitamin_C_plus_added_calcium	Fruit flavored drink, reduced sugar, with high vitamin C, plus added calcium	92582120.0
92610010	0	Horchata_made_with_almonds_horchata_de_almendras_	Horchata, made with almonds (horchata de almendras)	92610010.0
92610010	206931	Horchata_with_skim_milk	Horchata, with skim milk	92610010.206931
92610110	0	Coconut_beverage_Refresco_de_coco_	Coconut beverage (Refresco de coco)	92610110.0
92611010	0	Oatmeal_beverage_Frescavena_	Oatmeal beverage (Frescavena)	92611010.0
92611100	0	Oatmeal_beverage_atole_de_avena_with_whole_milk	Oatmeal beverage (atole de avena), with whole milk	92611100.0
92611100	207411	Oatmeal_beverage_atole_de_avena_with_2_milk	Oatmeal beverage (atole de avena), with 2% milk	92611100.207411
92611510	204076	Horchata_with_whole_milk	Horchata, with whole milk	92611510.204076
92611510	207210	Horchata_with_reduced_fat_2_milk	Horchata, with reduced fat (2%) milk	92611510.207210
92611510	207395	Horchata_with_low_fat_1_milk	Horchata, with low fat (1%) milk	92611510.207395
92612010	0	Sugar_cane_beverage_guarapo_	Sugar cane beverage (guarapo)	92612010.0
92613010	0	Corn_meal_beverage_atole_	Corn meal beverage (atole)	92613010.0
92613510	0	Corn_beverage_with_chocolate_atole_de_chocolate_with_whole_milk	Corn beverage with chocolate (atole de chocolate), with whole milk	92613510.0
92613510	207036	Corn_beverage_with_chocolate_atole_de_chocolate_with_skim_milk	Corn beverage with chocolate (atole de chocolate), with skim milk	92613510.207036
92650000	0	Red_Bull_Energy_Drink	Red Bull Energy Drink	92650000.0
92650005	0	Red_Bull_Energy_Drink_sugar_free	Red Bull Energy Drink, sugar-free	92650005.0
92650100	0	Full_Throttle_Energy_Drink	Full Throttle Energy Drink	92650100.0
92650200	0	Monster_Energy_Drink	Monster Energy Drink	92650200.0
92650205	0	Mountain_Dew_AMP_Energy_Drink	Mountain Dew AMP Energy Drink	92650205.0
92650210	0	Mountain_Dew_AMP_Energy_Drink_sugar_free	Mountain Dew AMP Energy Drink, sugar-free	92650210.0
92650700	0	Rockstar_Energy_Drink	Rockstar Energy Drink	92650700.0
92650705	0	Rockstar_Energy_Drink_sugar_free	Rockstar Energy Drink, sugar-free	92650705.0
92650800	0	Vault_Energy_Drink	Vault Energy Drink	92650800.0
92650805	0	Vault_Zero_Energy_drink	Vault Zero Energy drink	92650805.0
92801000	0	Wine_nonalcoholic	Wine, nonalcoholic	92801000.0
92802000	0	Wine_light_nonalcoholic	Wine, light, nonalcoholic	92802000.0
92803000	0	Nonalcoholic_malt_beverage	Nonalcoholic malt beverage	92803000.0
92804000	0	Shirley_Temple	Shirley Temple	92804000.0
92900110	0	Fruit_flavored_beverage_powder_with_sugar_Kool_Aid_	Fruit-flavored beverage, powder, with sugar (Kool-Aid)	92900110.0
92900200	0	Fruit_flavored_beverage_powder_low_calorie_Crystal_Light_	Fruit-flavored beverage, powder, low calorie (Crystal Light)	92900200.0
92900300	0	Fruit_flavored_thirst_quencher_beverage_powder_Gatorade_	Fruit-flavored thirst quencher beverage, powder (Gatorade)	92900300.0
93101000	0	Beer	Beer	93101000.0
93102000	0	Beer_lite	Beer, lite	93102000.0
93106000	0	Alcoholic_malt_beverage_sweetened_Mike_s_hard_lemonade_	Alcoholic malt beverage, sweetened (Mike's hard lemonade)	93106000.0
93201000	0	Cordial_or_liqueur	Cordial or liqueur	93201000.0
93301010	0	Alexander	Alexander	93301010.0
93301020	0	Bacardi_cocktail	Bacardi cocktail	93301020.0
93301030	0	Bloody_Mary	Bloody Mary	93301030.0
93301031	0	Canadian_Club_and_soda	Canadian Club and soda	93301031.0
93301032	0	Cape_Cod	Cape Cod	93301032.0
93301040	0	Daiquiri	Daiquiri	93301040.0
93301050	0	Gimlet	Gimlet	93301050.0
93301060	0	Gin_and_Tonic	Gin and Tonic	93301060.0
93301070	0	Grasshopper	Grasshopper	93301070.0
93301080	0	High_ball	High ball	93301080.0
93301085	0	Kamikaze	Kamikaze	93301085.0
93301090	0	Manhattan	Manhattan	93301090.0
93301100	0	Margarita	Margarita	93301100.0
93301110	0	Martini	Martini	93301110.0
93301115	0	Mimosa	Mimosa	93301115.0
93301120	0	Mint_julep	Mint julep	93301120.0
93301125	0	Mojito	Mojito	93301125.0
93301130	0	Old_fashioned	Old fashioned	93301130.0
93301135	0	Rob_Roy	Rob Roy	93301135.0
93301136	0	Rusty_Nail	Rusty Nail	93301136.0
93301139	0	Salty_Dog	Salty Dog	93301139.0
93301140	0	Screwdriver	Screwdriver	93301140.0
93301141	0	Seabreeze	Seabreeze	93301141.0
93301142	0	Seven_and_Seven	Seven and Seven	93301142.0
93301150	0	Tom_Collins	Tom Collins	93301150.0
93301160	0	Whiskey_sour	Whiskey sour	93301160.0
93301170	0	Bourbon_and_soda	Bourbon and soda	93301170.0
93301190	0	Rum_and_cola	Rum and cola	93301190.0
93301200	0	Pina_Colada	Pina Colada	93301200.0
93301220	0	Coquito_Puerto_Rican_coconut_rum_	Coquito, Puerto Rican (coconut, rum)	93301220.0
93301230	0	Sloe_gin_fizz	Sloe gin fizz	93301230.0
93301240	0	Black_Russian	Black Russian	93301240.0
93301250	0	White_Russian	White Russian	93301250.0
93301270	0	Fruit_punch_alcoholic	Fruit punch, alcoholic	93301270.0
93301280	0	Singapore_Sling	Singapore Sling	93301280.0
93301290	0	Stinger	Stinger	93301290.0
93301300	0	Gibson	Gibson	93301300.0
93301310	0	Mai_Tai	Mai Tai	93301310.0
93301320	0	Tequila_Sunrise	Tequila Sunrise	93301320.0
93301330	0	Gin_Rickey	Gin Rickey	93301330.0
93301340	0	Golden_Cadillac	Golden Cadillac	93301340.0
93301360	0	Long_Island_iced_tea	Long Island iced tea	93301360.0
93301370	0	Fuzzy_Navel	Fuzzy Navel	93301370.0
93301400	0	Irish_Coffee	Irish Coffee	93301400.0
93301450	0	Liqueur_with_cream_Bailey_s_	Liqueur with cream (Bailey's)	93301450.0
93301500	0	Daiquiri_frozen	Daiquiri, frozen	93301500.0
93301510	0	Margarita_frozen	Margarita, frozen	93301510.0
93301550	0	Eggnog_alcoholic	Eggnog, alcoholic	93301550.0
93301600	0	Gin_fizz	Gin fizz	93301600.0
93302000	0	Rum_hot_buttered	Rum, hot buttered	93302000.0
93302100	0	Zombie	Zombie	93302100.0
93401010	0	Wine_red	Wine, red	93401010.0
93401020	0	Wine_white	Wine, white	93401020.0
93401100	0	Wine_rice	Wine, rice	93401100.0
93401300	0	Wine_cooking_sherry	Wine, cooking, sherry	93401300.0
93402000	0	Wine_dessert_sweet	Wine, dessert, sweet	93402000.0
93403000	0	Wine_light	Wine, light	93403000.0
93404000	0	Wine_cooler	Wine cooler	93404000.0
93404500	0	Sangria	Sangria	93404500.0
93404600	0	Sangria_Puerto_Rican_style	Sangria, Puerto Rican style	93404600.0
93405000	0	Wine_spritzer	Wine spritzer	93405000.0
93501000	0	Brandy	Brandy	93501000.0
93502000	0	Whiskey	Whiskey	93502000.0
93503000	0	Gin	Gin	93503000.0
93504000	0	Rum	Rum	93504000.0
93504100	0	Rum_cooler	Rum cooler	93504100.0
93505000	0	Vodka	Vodka	93505000.0
94000100	0	Water_tap	Water, tap	94000100.0
94100100	0	Water_bottled_unsweetened	Water, bottled, unsweetened	94100100.0
94100200	0	Water_bottled_sweetened_with_low_or_no_calorie_sweetener	Water, bottled, sweetened, with low or no calorie sweetener	94100200.0
94100300	0	Water_fruit_flavored_sweetened_with_high_fructose_corn_syrup_and_low_calorie_sweetener	Water, fruit flavored, sweetened, with high fructose corn syrup and low calorie sweetener	94100300.0
94210100	0	Propel_Water	Propel Water	94210100.0
94210200	0	Glaceau_Water	Glaceau Water	94210200.0
94210300	0	SoBe_Lifewater	SoBe Lifewater	94210300.0
94220200	0	Glaceau_Water_low_calorie	Glaceau Water, low calorie	94220200.0
95101010	0	Boost_Plus_ready_to_drink	Boost Plus, ready-to-drink	95101010.0
95102000	0	Carnation_Instant_Breakfast_ready_to_drink_regular	Carnation Instant Breakfast, ready-to-drink, regular	95102000.0
95102010	0	Carnation_Instant_Breakfast_ready_to_drink_sugar_free	Carnation Instant Breakfast, ready-to-drink, sugar free	95102010.0
95104000	0	Glucerna_nutritional_shake_ready_to_drink	Glucerna, nutritional shake, ready-to-drink	95104000.0
95105000	0	Kellogg_s_Special_K_protein_shake	Kellogg's Special K protein shake	95105000.0
95106000	0	Muscle_Milk_ready_to_drink	Muscle Milk, ready-to-drink	95106000.0
95106010	0	Muscle_Milk_ready_to_drink_light	Muscle Milk, ready-to-drink, light	95106010.0
95110000	0	Slim_Fast_shake_ready_to_drink_regular	Slim Fast shake, ready-to-drink, regular	95110000.0
95110010	0	Slim_Fast_shake_ready_to_drink_sugar_free	Slim Fast shake, ready-to-drink, sugar free	95110010.0
95110020	0	Slim_Fast_shake_ready_to_drink_high_protein	Slim Fast shake, ready-to-drink, high protein	95110020.0
95201000	0	Carnation_Instant_Breakfast_nutritional_drink_mix_regular_powder	Carnation Instant Breakfast, nutritional drink mix, regular, powder	95201000.0
95201010	0	Carnation_Instant_Breakfast_nutritional_drink_mix_sugar_free_powder	Carnation Instant Breakfast, nutritional drink mix, sugar free, powder	95201010.0
95201200	0	EAS_whey_protein_powder	EAS whey protein powder	95201200.0
95201300	0	EAS_soy_protein_powder	EAS soy protein powder	95201300.0
95201500	0	Herbalife_nutritional_shake_mix_high_protein_powder	Herbalife, nutritional shake mix, high protein, powder	95201500.0
95201600	0	Isopure_protein_powder	Isopure protein powder	95201600.0
95201700	0	Kellogg_s_Special_K20_protein_water_mix	Kellogg's Special K20 protein water mix	95201700.0
95202000	0	Muscle_Milk_regular_powder	Muscle Milk, regular, powder	95202000.0
95202010	0	Muscle_Milk_light_powder	Muscle Milk, light, powder	95202010.0
95210000	0	Slim_Fast_shake_mix_powder	Slim Fast shake mix, powder	95210000.0
95210010	0	Slim_Fast_shake_mix_sugar_free_powder	Slim Fast shake mix, sugar free, powder	95210010.0
95210020	0	Slim_Fast_shake_mix_high_protein_powder	Slim Fast shake mix, high protein, powder	95210020.0
95310550	0	No_Fear_energy_drink	No Fear energy drink	95310550.0
95310555	0	No_Fear_Motherload_energy_drink	No Fear Motherload energy drink	95310555.0
95310560	0	NOS_energy_drink	NOS energy drink	95310560.0
95310750	0	SoBe_Energize_energy_juice_drink	SoBe Energize energy juice drink	95310750.0
95311000	0	Energy_drink	Energy drink	95311000.0
95312400	0	Monster_Lo_Carb_energy_drink	Monster, Lo Carb, energy drink	95312400.0
95312550	0	No_Fear_energy_drink_sugar_free	No Fear energy drink, sugar-free	95312550.0
95312555	0	NOS_energy_drink_sugar_free	NOS energy drink, sugar-free	95312555.0
95312560	0	Ocean_Spray_cran_energy_cranberry_energy_juice_drink	Ocean Spray cran-energy cranberry energy juice drink	95312560.0
95312900	0	XS_energy_drink	XS energy drink	95312900.0
95312905	0	XS_Gold_Plus_energy_drink	XS Gold Plus energy drink	95312905.0
95341000	0	FUZE_Slenderize_fortified_low_calorie_fruit_juice_beverage	FUZE Slenderize fortified low calorie fruit juice beverage	95341000.0
95342000	0	MonaVie_acai_blend_beverage	MonaVie acai blend beverage	95342000.0
95999992	0	Pepper_white	Pepper, white	95999992.0
95999993	0	Pepper_black	Pepper, black	95999993.0
95999994	0	Poultry_seasoning	Poultry seasoning	95999994.0
95999995	0	Taco_seasoning	Taco seasoning	95999995.0
95999996	0	Vanilla_extract	Vanilla extract	95999996.0
95999997	0	Cream_of_tartar	Cream of tartar	95999997.0
95999998	0	Baking_soda	Baking soda	95999998.0
95999999	0	Baking_powder	Baking powder	95999999.0
99000000	0	Salt_table	Salt, table	99000000.0
